
blink.elf:     file format elf32-littlearm

Sections:
Idx Name          Size      VMA       LMA       File off  Algn
  0 .boot2        00000100  10000000  10000000  00010000  2**0
                  CONTENTS, ALLOC, LOAD, READONLY, CODE
  1 .text         00007dd8  10000100  10000100  00010100  2**4
                  CONTENTS, ALLOC, LOAD, READONLY, CODE
  2 .rodata       00000390  10007ed8  10007ed8  00017ed8  2**2
                  CONTENTS, ALLOC, LOAD, READONLY, DATA
  3 .binary_info  00000020  10008268  10008268  00018268  2**2
                  CONTENTS, ALLOC, LOAD, DATA
  4 .ram_vector_table 000000c0  20000000  20000000  00020d38  2**2
                  CONTENTS
  5 .data         00000c78  200000c0  10008288  000200c0  2**4
                  CONTENTS, ALLOC, LOAD, READONLY, CODE
  6 .uninitialized_data 00000000  20000d38  20000d38  00020df8  2**0
                  CONTENTS
  7 .scratch_x    00000000  20040000  20040000  00020df8  2**0
                  CONTENTS
  8 .scratch_y    00000000  20041000  20041000  00020df8  2**0
                  CONTENTS
  9 .bss          00000f38  20000d38  20000d38  00020d38  2**3
                  ALLOC
 10 .heap         00000800  20001c70  20001c70  00020df8  2**2
                  CONTENTS, READONLY
 11 .stack_dummy  00000800  20041000  20041000  00021600  2**5
                  CONTENTS, READONLY
 12 .ARM.attributes 00000028  00000000  00000000  00021e00  2**0
                  CONTENTS, READONLY
 13 .comment      00000059  00000000  00000000  00021e28  2**0
                  CONTENTS, READONLY
 14 .debug_line   00001689  00000000  00000000  00021e81  2**0
                  CONTENTS, READONLY, DEBUGGING, OCTETS
 15 .debug_info   0000574a  00000000  00000000  0002350a  2**0
                  CONTENTS, READONLY, DEBUGGING, OCTETS
 16 .debug_abbrev 000012ba  00000000  00000000  00028c54  2**0
                  CONTENTS, READONLY, DEBUGGING, OCTETS
 17 .debug_aranges 00000118  00000000  00000000  00029f10  2**3
                  CONTENTS, READONLY, DEBUGGING, OCTETS
 18 .debug_str    00000ac2  00000000  00000000  0002a028  2**0
                  CONTENTS, READONLY, DEBUGGING, OCTETS
 19 .debug_loc    00001661  00000000  00000000  0002aaea  2**0
                  CONTENTS, READONLY, DEBUGGING, OCTETS
 20 .debug_frame  0000019c  00000000  00000000  0002c14c  2**2
                  CONTENTS, READONLY, DEBUGGING, OCTETS
 21 .debug_ranges 00000038  00000000  00000000  0002c2e8  2**0
                  CONTENTS, READONLY, DEBUGGING, OCTETS

blink.elf:     file format elf32-littlearm


Disassembly of section .boot2:

10000000 <__boot2_start__>:
10000000:	4b32b500 	.word	0x4b32b500
10000004:	60582021 	.word	0x60582021
10000008:	21026898 	.word	0x21026898
1000000c:	60984388 	.word	0x60984388
10000010:	611860d8 	.word	0x611860d8
10000014:	4b2e6158 	.word	0x4b2e6158
10000018:	60992100 	.word	0x60992100
1000001c:	61592102 	.word	0x61592102
10000020:	22f02101 	.word	0x22f02101
10000024:	492b5099 	.word	0x492b5099
10000028:	21016019 	.word	0x21016019
1000002c:	20356099 	.word	0x20356099
10000030:	f844f000 	.word	0xf844f000
10000034:	42902202 	.word	0x42902202
10000038:	2106d014 	.word	0x2106d014
1000003c:	f0006619 	.word	0xf0006619
10000040:	6e19f834 	.word	0x6e19f834
10000044:	66192101 	.word	0x66192101
10000048:	66182000 	.word	0x66182000
1000004c:	f000661a 	.word	0xf000661a
10000050:	6e19f82c 	.word	0x6e19f82c
10000054:	6e196e19 	.word	0x6e196e19
10000058:	f0002005 	.word	0xf0002005
1000005c:	2101f82f 	.word	0x2101f82f
10000060:	d1f94208 	.word	0xd1f94208
10000064:	60992100 	.word	0x60992100
10000068:	6019491b 	.word	0x6019491b
1000006c:	60592100 	.word	0x60592100
10000070:	481b491a 	.word	0x481b491a
10000074:	21016001 	.word	0x21016001
10000078:	21eb6099 	.word	0x21eb6099
1000007c:	21a06619 	.word	0x21a06619
10000080:	f0006619 	.word	0xf0006619
10000084:	2100f812 	.word	0x2100f812
10000088:	49166099 	.word	0x49166099
1000008c:	60014814 	.word	0x60014814
10000090:	60992101 	.word	0x60992101
10000094:	2800bc01 	.word	0x2800bc01
10000098:	4700d000 	.word	0x4700d000
1000009c:	49134812 	.word	0x49134812
100000a0:	c8036008 	.word	0xc8036008
100000a4:	8808f380 	.word	0x8808f380
100000a8:	b5034708 	.word	0xb5034708
100000ac:	20046a99 	.word	0x20046a99
100000b0:	d0fb4201 	.word	0xd0fb4201
100000b4:	42012001 	.word	0x42012001
100000b8:	bd03d1f8 	.word	0xbd03d1f8
100000bc:	6618b502 	.word	0x6618b502
100000c0:	f7ff6618 	.word	0xf7ff6618
100000c4:	6e18fff2 	.word	0x6e18fff2
100000c8:	bd026e18 	.word	0xbd026e18
100000cc:	40020000 	.word	0x40020000
100000d0:	18000000 	.word	0x18000000
100000d4:	00070000 	.word	0x00070000
100000d8:	005f0300 	.word	0x005f0300
100000dc:	00002221 	.word	0x00002221
100000e0:	180000f4 	.word	0x180000f4
100000e4:	a0002022 	.word	0xa0002022
100000e8:	10000100 	.word	0x10000100
100000ec:	e000ed08 	.word	0xe000ed08
	...
100000fc:	7a4eb274 	.word	0x7a4eb274

Disassembly of section .text:

10000100 <__VECTOR_TABLE>:
10000100:	20042000 	.word	0x20042000
10000104:	100001f7 	.word	0x100001f7
10000108:	100001c3 	.word	0x100001c3
1000010c:	100001c5 	.word	0x100001c5
10000110:	100001c1 	.word	0x100001c1
10000114:	100001c1 	.word	0x100001c1
10000118:	100001c1 	.word	0x100001c1
1000011c:	100001c1 	.word	0x100001c1
10000120:	100001c1 	.word	0x100001c1
10000124:	100001c1 	.word	0x100001c1
10000128:	100001c1 	.word	0x100001c1
1000012c:	10007435 	.word	0x10007435
10000130:	100001c1 	.word	0x100001c1
10000134:	100001c1 	.word	0x100001c1
10000138:	10007491 	.word	0x10007491
1000013c:	100074d5 	.word	0x100074d5
10000140:	100001cd 	.word	0x100001cd
10000144:	100001cd 	.word	0x100001cd
10000148:	100001cd 	.word	0x100001cd
1000014c:	100001cd 	.word	0x100001cd
10000150:	100001cd 	.word	0x100001cd
10000154:	100001cd 	.word	0x100001cd
10000158:	100001cd 	.word	0x100001cd
1000015c:	100001cd 	.word	0x100001cd
10000160:	100001cd 	.word	0x100001cd
10000164:	100001cd 	.word	0x100001cd
10000168:	100001cd 	.word	0x100001cd
1000016c:	100001cd 	.word	0x100001cd
10000170:	100001cd 	.word	0x100001cd
10000174:	100001cd 	.word	0x100001cd
10000178:	100001cd 	.word	0x100001cd
1000017c:	100001cd 	.word	0x100001cd
10000180:	100001cd 	.word	0x100001cd
10000184:	100001cd 	.word	0x100001cd
10000188:	100001cd 	.word	0x100001cd
1000018c:	100001cd 	.word	0x100001cd
10000190:	100001cd 	.word	0x100001cd
10000194:	100001cd 	.word	0x100001cd
10000198:	100001cd 	.word	0x100001cd
1000019c:	100001cd 	.word	0x100001cd
100001a0:	100001cd 	.word	0x100001cd
100001a4:	100001cd 	.word	0x100001cd
100001a8:	100001cd 	.word	0x100001cd
100001ac:	100001cd 	.word	0x100001cd
100001b0:	100001cd 	.word	0x100001cd
100001b4:	100001cd 	.word	0x100001cd
100001b8:	100001cd 	.word	0x100001cd
100001bc:	100001cd 	.word	0x100001cd

100001c0 <isr_invalid>:
100001c0:	be00      	bkpt	0x0000

100001c2 <isr_nmi>:
100001c2:	be00      	bkpt	0x0000

100001c4 <isr_hardfault>:
100001c4:	be00      	bkpt	0x0000
100001c6:	be00      	bkpt	0x0000
100001c8:	be00      	bkpt	0x0000
100001ca:	be00      	bkpt	0x0000

100001cc <__unhandled_user_irq>:
100001cc:	f000 f84b 	bl	10000266 <__get_current_exception>
100001d0:	3810      	subs	r0, #16

100001d2 <unhandled_user_irq_num_in_r0>:
100001d2:	be00      	bkpt	0x0000

100001d4 <binary_info_header>:
100001d4:	7188ebf2 	.word	0x7188ebf2
100001d8:	10008268 	.word	0x10008268
100001dc:	10008288 	.word	0x10008288
100001e0:	10000234 	.word	0x10000234
100001e4:	e71aa390 	.word	0xe71aa390

100001e8 <_entry_point>:
100001e8:	2000      	movs	r0, #0
100001ea:	4921      	ldr	r1, [pc, #132]	; (10000270 <__get_current_exception+0xa>)
100001ec:	6008      	str	r0, [r1, #0]
100001ee:	c806      	ldmia	r0!, {r1, r2}
100001f0:	f381 8808 	msr	MSP, r1
100001f4:	4710      	bx	r2

100001f6 <_reset_handler>:
100001f6:	481f      	ldr	r0, [pc, #124]	; (10000274 <__get_current_exception+0xe>)
100001f8:	6800      	ldr	r0, [r0, #0]
100001fa:	2800      	cmp	r0, #0
100001fc:	d12f      	bne.n	1000025e <hold_non_core0_in_bootrom>
100001fe:	a40d      	add	r4, pc, #52	; (adr r4, 10000234 <data_cpy_table>)
10000200:	cc0e      	ldmia	r4!, {r1, r2, r3}
10000202:	2900      	cmp	r1, #0
10000204:	d002      	beq.n	1000020c <_reset_handler+0x16>
10000206:	f000 f812 	bl	1000022e <data_cpy>
1000020a:	e7f9      	b.n	10000200 <_reset_handler+0xa>
1000020c:	491a      	ldr	r1, [pc, #104]	; (10000278 <__get_current_exception+0x12>)
1000020e:	4a1b      	ldr	r2, [pc, #108]	; (1000027c <__get_current_exception+0x16>)
10000210:	2000      	movs	r0, #0
10000212:	e000      	b.n	10000216 <bss_fill_test>

10000214 <bss_fill_loop>:
10000214:	c101      	stmia	r1!, {r0}

10000216 <bss_fill_test>:
10000216:	4291      	cmp	r1, r2
10000218:	d1fc      	bne.n	10000214 <bss_fill_loop>

1000021a <platform_entry>:
1000021a:	4919      	ldr	r1, [pc, #100]	; (10000280 <__get_current_exception+0x1a>)
1000021c:	4788      	blx	r1
1000021e:	4919      	ldr	r1, [pc, #100]	; (10000284 <__get_current_exception+0x1e>)
10000220:	4788      	blx	r1
10000222:	4919      	ldr	r1, [pc, #100]	; (10000288 <__get_current_exception+0x22>)
10000224:	4788      	blx	r1
10000226:	be00      	bkpt	0x0000
10000228:	e7fd      	b.n	10000226 <platform_entry+0xc>

1000022a <data_cpy_loop>:
1000022a:	c901      	ldmia	r1!, {r0}
1000022c:	c201      	stmia	r2!, {r0}

1000022e <data_cpy>:
1000022e:	429a      	cmp	r2, r3
10000230:	d3fb      	bcc.n	1000022a <data_cpy_loop>
10000232:	4770      	bx	lr

10000234 <data_cpy_table>:
10000234:	10008288 	.word	0x10008288
10000238:	200000c0 	.word	0x200000c0
1000023c:	20000d38 	.word	0x20000d38
10000240:	10008f00 	.word	0x10008f00
10000244:	20040000 	.word	0x20040000
10000248:	20040000 	.word	0x20040000
1000024c:	10008f00 	.word	0x10008f00
10000250:	20041000 	.word	0x20041000
10000254:	20041000 	.word	0x20041000
10000258:	00000000 	.word	0x00000000
1000025c:	4770      	bx	lr

1000025e <hold_non_core0_in_bootrom>:
1000025e:	480b      	ldr	r0, [pc, #44]	; (1000028c <__get_current_exception+0x26>)
10000260:	f001 fd10 	bl	10001c84 <rom_func_lookup>
10000264:	4700      	bx	r0

10000266 <__get_current_exception>:
10000266:	f3ef 8005 	mrs	r0, IPSR
1000026a:	b2c0      	uxtb	r0, r0
1000026c:	4770      	bx	lr
1000026e:	0000      	.short	0x0000
10000270:	e000ed08 	.word	0xe000ed08
10000274:	d0000000 	.word	0xd0000000
10000278:	20000d38 	.word	0x20000d38
1000027c:	20001c70 	.word	0x20001c70
10000280:	10001355 	.word	0x10001355
10000284:	1000038d 	.word	0x1000038d
10000288:	10001485 	.word	0x10001485
1000028c:	00005657 	.word	0x00005657

10000290 <__bi_50>:
10000290:	50520006 5360b3ab 10007fa8              ..RP..`S....

1000029c <__bi_38>:
1000029c:	50520006 02031c86 10007fb8              ..RP........

100002a8 <__bi_30>:
100002a8:	50520006 9da22254 10007fc0              ..RPT"......

100002b4 <__bi_22>:
100002b4:	50520005 68f465de 10008f00              ..RP.e.h....

100002c0 <_init>:
100002c0:	b5f8      	push	{r3, r4, r5, r6, r7, lr}
100002c2:	46c0      	nop			; (mov r8, r8)

100002c4 <deregister_tm_clones>:
100002c4:	4804      	ldr	r0, [pc, #16]	; (100002d8 <deregister_tm_clones+0x14>)
100002c6:	4b05      	ldr	r3, [pc, #20]	; (100002dc <deregister_tm_clones+0x18>)
100002c8:	b510      	push	{r4, lr}
100002ca:	4283      	cmp	r3, r0
100002cc:	d003      	beq.n	100002d6 <deregister_tm_clones+0x12>
100002ce:	4b04      	ldr	r3, [pc, #16]	; (100002e0 <deregister_tm_clones+0x1c>)
100002d0:	2b00      	cmp	r3, #0
100002d2:	d000      	beq.n	100002d6 <deregister_tm_clones+0x12>
100002d4:	4798      	blx	r3
100002d6:	bd10      	pop	{r4, pc}
100002d8:	20000d38 	.word	0x20000d38
100002dc:	20000d38 	.word	0x20000d38
100002e0:	00000000 	.word	0x00000000

100002e4 <register_tm_clones>:
100002e4:	4806      	ldr	r0, [pc, #24]	; (10000300 <register_tm_clones+0x1c>)
100002e6:	4907      	ldr	r1, [pc, #28]	; (10000304 <register_tm_clones+0x20>)
100002e8:	1a09      	subs	r1, r1, r0
100002ea:	108b      	asrs	r3, r1, #2
100002ec:	0fc9      	lsrs	r1, r1, #31
100002ee:	18c9      	adds	r1, r1, r3
100002f0:	b510      	push	{r4, lr}
100002f2:	1049      	asrs	r1, r1, #1
100002f4:	d003      	beq.n	100002fe <register_tm_clones+0x1a>
100002f6:	4b04      	ldr	r3, [pc, #16]	; (10000308 <register_tm_clones+0x24>)
100002f8:	2b00      	cmp	r3, #0
100002fa:	d000      	beq.n	100002fe <register_tm_clones+0x1a>
100002fc:	4798      	blx	r3
100002fe:	bd10      	pop	{r4, pc}
10000300:	20000d38 	.word	0x20000d38
10000304:	20000d38 	.word	0x20000d38
10000308:	00000000 	.word	0x00000000

1000030c <__do_global_dtors_aux>:
1000030c:	b510      	push	{r4, lr}
1000030e:	4c07      	ldr	r4, [pc, #28]	; (1000032c <__do_global_dtors_aux+0x20>)
10000310:	7823      	ldrb	r3, [r4, #0]
10000312:	2b00      	cmp	r3, #0
10000314:	d109      	bne.n	1000032a <__do_global_dtors_aux+0x1e>
10000316:	f7ff ffd5 	bl	100002c4 <deregister_tm_clones>
1000031a:	4b05      	ldr	r3, [pc, #20]	; (10000330 <__do_global_dtors_aux+0x24>)
1000031c:	2b00      	cmp	r3, #0
1000031e:	d002      	beq.n	10000326 <__do_global_dtors_aux+0x1a>
10000320:	4804      	ldr	r0, [pc, #16]	; (10000334 <__do_global_dtors_aux+0x28>)
10000322:	e000      	b.n	10000326 <__do_global_dtors_aux+0x1a>
10000324:	bf00      	nop
10000326:	2301      	movs	r3, #1
10000328:	7023      	strb	r3, [r4, #0]
1000032a:	bd10      	pop	{r4, pc}
1000032c:	20000e40 	.word	0x20000e40
10000330:	00000000 	.word	0x00000000
10000334:	10007ed8 	.word	0x10007ed8

10000338 <frame_dummy>:
10000338:	4b05      	ldr	r3, [pc, #20]	; (10000350 <frame_dummy+0x18>)
1000033a:	b510      	push	{r4, lr}
1000033c:	2b00      	cmp	r3, #0
1000033e:	d003      	beq.n	10000348 <frame_dummy+0x10>
10000340:	4904      	ldr	r1, [pc, #16]	; (10000354 <frame_dummy+0x1c>)
10000342:	4805      	ldr	r0, [pc, #20]	; (10000358 <frame_dummy+0x20>)
10000344:	e000      	b.n	10000348 <frame_dummy+0x10>
10000346:	bf00      	nop
10000348:	f7ff ffcc 	bl	100002e4 <register_tm_clones>
1000034c:	bd10      	pop	{r4, pc}
1000034e:	46c0      	nop			; (mov r8, r8)
10000350:	00000000 	.word	0x00000000
10000354:	20000e44 	.word	0x20000e44
10000358:	10007ed8 	.word	0x10007ed8

1000035c <SchedulerTestTask1>:
1000035c:	b510      	push	{r4, lr}
1000035e:	4c04      	ldr	r4, [pc, #16]	; (10000370 <SchedulerTestTask1+0x14>)
10000360:	0020      	movs	r0, r4
10000362:	f001 feab 	bl	100020bc <__wrap_puts>
10000366:	2064      	movs	r0, #100	; 0x64
10000368:	f006 f88a 	bl	10006480 <vTaskDelay>
1000036c:	e7f8      	b.n	10000360 <SchedulerTestTask1+0x4>
1000036e:	46c0      	nop			; (mov r8, r8)
10000370:	10007ed8 	.word	0x10007ed8

10000374 <SchedulerTestTask2>:
10000374:	b510      	push	{r4, lr}
10000376:	4c04      	ldr	r4, [pc, #16]	; (10000388 <SchedulerTestTask2+0x14>)
10000378:	0020      	movs	r0, r4
1000037a:	f001 fe9f 	bl	100020bc <__wrap_puts>
1000037e:	2064      	movs	r0, #100	; 0x64
10000380:	f006 f87e 	bl	10006480 <vTaskDelay>
10000384:	e7f8      	b.n	10000378 <SchedulerTestTask2+0x4>
10000386:	46c0      	nop			; (mov r8, r8)
10000388:	10007ef4 	.word	0x10007ef4

1000038c <main>:
1000038c:	b510      	push	{r4, lr}
1000038e:	b082      	sub	sp, #8
10000390:	f001 fed0 	bl	10002134 <stdio_init_all>
10000394:	2200      	movs	r2, #0
10000396:	2104      	movs	r1, #4
10000398:	2001      	movs	r0, #1
1000039a:	f004 fa09 	bl	100047b0 <xQueueGenericCreate>
1000039e:	4b0d      	ldr	r3, [pc, #52]	; (100003d4 <main+0x48>)
100003a0:	2400      	movs	r4, #0
100003a2:	6018      	str	r0, [r3, #0]
100003a4:	2280      	movs	r2, #128	; 0x80
100003a6:	2301      	movs	r3, #1
100003a8:	490b      	ldr	r1, [pc, #44]	; (100003d8 <main+0x4c>)
100003aa:	9300      	str	r3, [sp, #0]
100003ac:	0052      	lsls	r2, r2, #1
100003ae:	2300      	movs	r3, #0
100003b0:	480a      	ldr	r0, [pc, #40]	; (100003dc <main+0x50>)
100003b2:	9401      	str	r4, [sp, #4]
100003b4:	f005 fb9c 	bl	10005af0 <xTaskCreate>
100003b8:	2302      	movs	r3, #2
100003ba:	2280      	movs	r2, #128	; 0x80
100003bc:	4908      	ldr	r1, [pc, #32]	; (100003e0 <main+0x54>)
100003be:	9300      	str	r3, [sp, #0]
100003c0:	0052      	lsls	r2, r2, #1
100003c2:	2300      	movs	r3, #0
100003c4:	4807      	ldr	r0, [pc, #28]	; (100003e4 <main+0x58>)
100003c6:	9401      	str	r4, [sp, #4]
100003c8:	f005 fb92 	bl	10005af0 <xTaskCreate>
100003cc:	f005 feaa 	bl	10006124 <vTaskStartScheduler>
100003d0:	e7fe      	b.n	100003d0 <main+0x44>
100003d2:	46c0      	nop			; (mov r8, r8)
100003d4:	2000194c 	.word	0x2000194c
100003d8:	10007f10 	.word	0x10007f10
100003dc:	1000035d 	.word	0x1000035d
100003e0:	10007f18 	.word	0x10007f18
100003e4:	10000375 	.word	0x10000375

100003e8 <hw_claim_or_assert>:
100003e8:	b5f8      	push	{r3, r4, r5, r6, r7, lr}
100003ea:	f3ef 8710 	mrs	r7, PRIMASK
100003ee:	b672      	cpsid	i
100003f0:	4e0e      	ldr	r6, [pc, #56]	; (1000042c <hw_claim_or_assert+0x44>)
100003f2:	6833      	ldr	r3, [r6, #0]
100003f4:	2b00      	cmp	r3, #0
100003f6:	d0fc      	beq.n	100003f2 <hw_claim_or_assert+0xa>
100003f8:	f3bf 8f5f 	dmb	sy
100003fc:	08cb      	lsrs	r3, r1, #3
100003fe:	18c4      	adds	r4, r0, r3
10000400:	2507      	movs	r5, #7
10000402:	46a4      	mov	ip, r4
10000404:	5cc4      	ldrb	r4, [r0, r3]
10000406:	2301      	movs	r3, #1
10000408:	400d      	ands	r5, r1
1000040a:	40ab      	lsls	r3, r5
1000040c:	0018      	movs	r0, r3
1000040e:	4020      	ands	r0, r4
10000410:	4223      	tst	r3, r4
10000412:	d108      	bne.n	10000426 <hw_claim_or_assert+0x3e>
10000414:	4662      	mov	r2, ip
10000416:	4323      	orrs	r3, r4
10000418:	7013      	strb	r3, [r2, #0]
1000041a:	f3bf 8f5f 	dmb	sy
1000041e:	6030      	str	r0, [r6, #0]
10000420:	f387 8810 	msr	PRIMASK, r7
10000424:	bdf8      	pop	{r3, r4, r5, r6, r7, pc}
10000426:	0010      	movs	r0, r2
10000428:	f001 f82e 	bl	10001488 <panic>
1000042c:	d000012c 	.word	0xd000012c

10000430 <hw_claim_unused_from_range>:
10000430:	b5f8      	push	{r3, r4, r5, r6, r7, lr}
10000432:	46ce      	mov	lr, r9
10000434:	4647      	mov	r7, r8
10000436:	468c      	mov	ip, r1
10000438:	b580      	push	{r7, lr}
1000043a:	f3ef 8810 	mrs	r8, PRIMASK
1000043e:	b672      	cpsid	i
10000440:	4d21      	ldr	r5, [pc, #132]	; (100004c8 <hw_claim_unused_from_range+0x98>)
10000442:	682c      	ldr	r4, [r5, #0]
10000444:	2c00      	cmp	r4, #0
10000446:	d0fc      	beq.n	10000442 <hw_claim_unused_from_range+0x12>
10000448:	f3bf 8f5f 	dmb	sy
1000044c:	429a      	cmp	r2, r3
1000044e:	d82c      	bhi.n	100004aa <hw_claim_unused_from_range+0x7a>
10000450:	08d4      	lsrs	r4, r2, #3
10000452:	2107      	movs	r1, #7
10000454:	5d05      	ldrb	r5, [r0, r4]
10000456:	1906      	adds	r6, r0, r4
10000458:	2401      	movs	r4, #1
1000045a:	4011      	ands	r1, r2
1000045c:	408c      	lsls	r4, r1
1000045e:	422c      	tst	r4, r5
10000460:	d01f      	beq.n	100004a2 <hw_claim_unused_from_range+0x72>
10000462:	2107      	movs	r1, #7
10000464:	4689      	mov	r9, r1
10000466:	3906      	subs	r1, #6
10000468:	e009      	b.n	1000047e <hw_claim_unused_from_range+0x4e>
1000046a:	08d4      	lsrs	r4, r2, #3
1000046c:	5d05      	ldrb	r5, [r0, r4]
1000046e:	1906      	adds	r6, r0, r4
10000470:	464c      	mov	r4, r9
10000472:	000f      	movs	r7, r1
10000474:	4014      	ands	r4, r2
10000476:	40a7      	lsls	r7, r4
10000478:	003c      	movs	r4, r7
1000047a:	422f      	tst	r7, r5
1000047c:	d011      	beq.n	100004a2 <hw_claim_unused_from_range+0x72>
1000047e:	3201      	adds	r2, #1
10000480:	4293      	cmp	r3, r2
10000482:	d2f2      	bcs.n	1000046a <hw_claim_unused_from_range+0x3a>
10000484:	2001      	movs	r0, #1
10000486:	4240      	negs	r0, r0
10000488:	f3bf 8f5f 	dmb	sy
1000048c:	2200      	movs	r2, #0
1000048e:	4b0e      	ldr	r3, [pc, #56]	; (100004c8 <hw_claim_unused_from_range+0x98>)
10000490:	601a      	str	r2, [r3, #0]
10000492:	f388 8810 	msr	PRIMASK, r8
10000496:	2800      	cmp	r0, #0
10000498:	db0f      	blt.n	100004ba <hw_claim_unused_from_range+0x8a>
1000049a:	bc0c      	pop	{r2, r3}
1000049c:	4690      	mov	r8, r2
1000049e:	4699      	mov	r9, r3
100004a0:	bdf8      	pop	{r3, r4, r5, r6, r7, pc}
100004a2:	432c      	orrs	r4, r5
100004a4:	0010      	movs	r0, r2
100004a6:	7034      	strb	r4, [r6, #0]
100004a8:	e7ee      	b.n	10000488 <hw_claim_unused_from_range+0x58>
100004aa:	f3bf 8f5f 	dmb	sy
100004ae:	2300      	movs	r3, #0
100004b0:	602b      	str	r3, [r5, #0]
100004b2:	f388 8810 	msr	PRIMASK, r8
100004b6:	2001      	movs	r0, #1
100004b8:	4240      	negs	r0, r0
100004ba:	4663      	mov	r3, ip
100004bc:	2b00      	cmp	r3, #0
100004be:	d0ec      	beq.n	1000049a <hw_claim_unused_from_range+0x6a>
100004c0:	9808      	ldr	r0, [sp, #32]
100004c2:	f000 ffe1 	bl	10001488 <panic>
100004c6:	46c0      	nop			; (mov r8, r8)
100004c8:	d000012c 	.word	0xd000012c

100004cc <running_on_fpga>:
100004cc:	4b02      	ldr	r3, [pc, #8]	; (100004d8 <running_on_fpga+0xc>)
100004ce:	6818      	ldr	r0, [r3, #0]
100004d0:	0780      	lsls	r0, r0, #30
100004d2:	0fc0      	lsrs	r0, r0, #31
100004d4:	4770      	bx	lr
100004d6:	46c0      	nop			; (mov r8, r8)
100004d8:	4006c000 	.word	0x4006c000

100004dc <spin_locks_reset>:
100004dc:	2100      	movs	r1, #0
100004de:	4b04      	ldr	r3, [pc, #16]	; (100004f0 <spin_locks_reset+0x14>)
100004e0:	4a04      	ldr	r2, [pc, #16]	; (100004f4 <spin_locks_reset+0x18>)
100004e2:	f3bf 8f5f 	dmb	sy
100004e6:	c302      	stmia	r3!, {r1}
100004e8:	4293      	cmp	r3, r2
100004ea:	d1fa      	bne.n	100004e2 <spin_locks_reset+0x6>
100004ec:	4770      	bx	lr
100004ee:	46c0      	nop			; (mov r8, r8)
100004f0:	d0000100 	.word	0xd0000100
100004f4:	d0000180 	.word	0xd0000180

100004f8 <next_striped_spin_lock_num>:
100004f8:	4a04      	ldr	r2, [pc, #16]	; (1000050c <next_striped_spin_lock_num+0x14>)
100004fa:	7810      	ldrb	r0, [r2, #0]
100004fc:	1c43      	adds	r3, r0, #1
100004fe:	b2db      	uxtb	r3, r3
10000500:	2b17      	cmp	r3, #23
10000502:	d900      	bls.n	10000506 <next_striped_spin_lock_num+0xe>
10000504:	2310      	movs	r3, #16
10000506:	7013      	strb	r3, [r2, #0]
10000508:	4770      	bx	lr
1000050a:	46c0      	nop			; (mov r8, r8)
1000050c:	200003f0 	.word	0x200003f0

10000510 <spin_lock_claim_unused>:
10000510:	b500      	push	{lr}
10000512:	4b05      	ldr	r3, [pc, #20]	; (10000528 <spin_lock_claim_unused+0x18>)
10000514:	b083      	sub	sp, #12
10000516:	0001      	movs	r1, r0
10000518:	9300      	str	r3, [sp, #0]
1000051a:	2218      	movs	r2, #24
1000051c:	231f      	movs	r3, #31
1000051e:	4803      	ldr	r0, [pc, #12]	; (1000052c <spin_lock_claim_unused+0x1c>)
10000520:	f7ff ff86 	bl	10000430 <hw_claim_unused_from_range>
10000524:	b003      	add	sp, #12
10000526:	bd00      	pop	{pc}
10000528:	10007f20 	.word	0x10007f20
1000052c:	20001458 	.word	0x20001458

10000530 <timer_pool_entry_comparator>:
10000530:	6883      	ldr	r3, [r0, #8]
10000532:	480b      	ldr	r0, [pc, #44]	; (10000560 <timer_pool_entry_comparator+0x30>)
10000534:	b510      	push	{r4, lr}
10000536:	4684      	mov	ip, r0
10000538:	4461      	add	r1, ip
1000053a:	4462      	add	r2, ip
1000053c:	0109      	lsls	r1, r1, #4
1000053e:	0112      	lsls	r2, r2, #4
10000540:	189a      	adds	r2, r3, r2
10000542:	1859      	adds	r1, r3, r1
10000544:	6854      	ldr	r4, [r2, #4]
10000546:	684b      	ldr	r3, [r1, #4]
10000548:	2001      	movs	r0, #1
1000054a:	429c      	cmp	r4, r3
1000054c:	d801      	bhi.n	10000552 <timer_pool_entry_comparator+0x22>
1000054e:	d002      	beq.n	10000556 <timer_pool_entry_comparator+0x26>
10000550:	2000      	movs	r0, #0
10000552:	b2c0      	uxtb	r0, r0
10000554:	bd10      	pop	{r4, pc}
10000556:	6812      	ldr	r2, [r2, #0]
10000558:	680b      	ldr	r3, [r1, #0]
1000055a:	429a      	cmp	r2, r3
1000055c:	d8f9      	bhi.n	10000552 <timer_pool_entry_comparator+0x22>
1000055e:	e7f7      	b.n	10000550 <timer_pool_entry_comparator+0x20>
10000560:	0fffffff 	.word	0x0fffffff

10000564 <sleep_until_callback>:
10000564:	4b0a      	ldr	r3, [pc, #40]	; (10000590 <sleep_until_callback+0x2c>)
10000566:	6819      	ldr	r1, [r3, #0]
10000568:	f3ef 8010 	mrs	r0, PRIMASK
1000056c:	b672      	cpsid	i
1000056e:	680a      	ldr	r2, [r1, #0]
10000570:	2a00      	cmp	r2, #0
10000572:	d0fc      	beq.n	1000056e <sleep_until_callback+0xa>
10000574:	f3bf 8f5f 	dmb	sy
10000578:	681b      	ldr	r3, [r3, #0]
1000057a:	f3bf 8f5f 	dmb	sy
1000057e:	2200      	movs	r2, #0
10000580:	601a      	str	r2, [r3, #0]
10000582:	f380 8810 	msr	PRIMASK, r0
10000586:	bf40      	sev
10000588:	2000      	movs	r0, #0
1000058a:	2100      	movs	r1, #0
1000058c:	4770      	bx	lr
1000058e:	46c0      	nop			; (mov r8, r8)
10000590:	2000191c 	.word	0x2000191c

10000594 <alarm_pool_add_alarm_at.constprop.0>:
10000594:	b5f8      	push	{r3, r4, r5, r6, r7, lr}
10000596:	4657      	mov	r7, sl
10000598:	464e      	mov	r6, r9
1000059a:	4645      	mov	r5, r8
1000059c:	46de      	mov	lr, fp
1000059e:	b5e0      	push	{r5, r6, r7, lr}
100005a0:	4d43      	ldr	r5, [pc, #268]	; (100006b0 <alarm_pool_add_alarm_at.constprop.0+0x11c>)
100005a2:	4681      	mov	r9, r0
100005a4:	468a      	mov	sl, r1
100005a6:	686a      	ldr	r2, [r5, #4]
100005a8:	f3ef 8810 	mrs	r8, PRIMASK
100005ac:	b672      	cpsid	i
100005ae:	6813      	ldr	r3, [r2, #0]
100005b0:	2b00      	cmp	r3, #0
100005b2:	d0fc      	beq.n	100005ae <alarm_pool_add_alarm_at.constprop.0+0x1a>
100005b4:	f3bf 8f5f 	dmb	sy
100005b8:	682e      	ldr	r6, [r5, #0]
100005ba:	7bb4      	ldrb	r4, [r6, #14]
100005bc:	2c00      	cmp	r4, #0
100005be:	d03e      	beq.n	1000063e <alarm_pool_add_alarm_at.constprop.0+0xaa>
100005c0:	0067      	lsls	r7, r4, #1
100005c2:	6833      	ldr	r3, [r6, #0]
100005c4:	193f      	adds	r7, r7, r4
100005c6:	3f03      	subs	r7, #3
100005c8:	19da      	adds	r2, r3, r7
100005ca:	7853      	ldrb	r3, [r2, #1]
100005cc:	73b3      	strb	r3, [r6, #14]
100005ce:	2b00      	cmp	r3, #0
100005d0:	d100      	bne.n	100005d4 <alarm_pool_add_alarm_at.constprop.0+0x40>
100005d2:	73f3      	strb	r3, [r6, #15]
100005d4:	2300      	movs	r3, #0
100005d6:	7093      	strb	r3, [r2, #2]
100005d8:	7053      	strb	r3, [r2, #1]
100005da:	7013      	strb	r3, [r2, #0]
100005dc:	68a9      	ldr	r1, [r5, #8]
100005de:	4a35      	ldr	r2, [pc, #212]	; (100006b4 <alarm_pool_add_alarm_at.constprop.0+0x120>)
100005e0:	468c      	mov	ip, r1
100005e2:	4649      	mov	r1, r9
100005e4:	18a2      	adds	r2, r4, r2
100005e6:	0112      	lsls	r2, r2, #4
100005e8:	4462      	add	r2, ip
100005ea:	6011      	str	r1, [r2, #0]
100005ec:	4651      	mov	r1, sl
100005ee:	6051      	str	r1, [r2, #4]
100005f0:	4931      	ldr	r1, [pc, #196]	; (100006b8 <alarm_pool_add_alarm_at.constprop.0+0x124>)
100005f2:	60d3      	str	r3, [r2, #12]
100005f4:	6091      	str	r1, [r2, #8]
100005f6:	6832      	ldr	r2, [r6, #0]
100005f8:	19d2      	adds	r2, r2, r7
100005fa:	7093      	strb	r3, [r2, #2]
100005fc:	7053      	strb	r3, [r2, #1]
100005fe:	7013      	strb	r3, [r2, #0]
10000600:	7b73      	ldrb	r3, [r6, #13]
10000602:	469b      	mov	fp, r3
10000604:	2b00      	cmp	r3, #0
10000606:	d035      	beq.n	10000674 <alarm_pool_add_alarm_at.constprop.0+0xe0>
10000608:	0022      	movs	r2, r4
1000060a:	0019      	movs	r1, r3
1000060c:	68b0      	ldr	r0, [r6, #8]
1000060e:	6873      	ldr	r3, [r6, #4]
10000610:	4798      	blx	r3
10000612:	6832      	ldr	r2, [r6, #0]
10000614:	2800      	cmp	r0, #0
10000616:	d020      	beq.n	1000065a <alarm_pool_add_alarm_at.constprop.0+0xc6>
10000618:	465b      	mov	r3, fp
1000061a:	4658      	mov	r0, fp
1000061c:	005b      	lsls	r3, r3, #1
1000061e:	445b      	add	r3, fp
10000620:	19d7      	adds	r7, r2, r7
10000622:	3b03      	subs	r3, #3
10000624:	70b8      	strb	r0, [r7, #2]
10000626:	18d1      	adds	r1, r2, r3
10000628:	5cd3      	ldrb	r3, [r2, r3]
1000062a:	2b00      	cmp	r3, #0
1000062c:	d000      	beq.n	10000630 <alarm_pool_add_alarm_at.constprop.0+0x9c>
1000062e:	707b      	strb	r3, [r7, #1]
10000630:	465b      	mov	r3, fp
10000632:	700c      	strb	r4, [r1, #0]
10000634:	7373      	strb	r3, [r6, #13]
10000636:	455c      	cmp	r4, fp
10000638:	d01d      	beq.n	10000676 <alarm_pool_add_alarm_at.constprop.0+0xe2>
1000063a:	2600      	movs	r6, #0
1000063c:	e026      	b.n	1000068c <alarm_pool_add_alarm_at.constprop.0+0xf8>
1000063e:	686b      	ldr	r3, [r5, #4]
10000640:	f3bf 8f5f 	dmb	sy
10000644:	601c      	str	r4, [r3, #0]
10000646:	f388 8810 	msr	PRIMASK, r8
1000064a:	2001      	movs	r0, #1
1000064c:	4240      	negs	r0, r0
1000064e:	bc3c      	pop	{r2, r3, r4, r5}
10000650:	4690      	mov	r8, r2
10000652:	4699      	mov	r9, r3
10000654:	46a2      	mov	sl, r4
10000656:	46ab      	mov	fp, r5
10000658:	bdf8      	pop	{r3, r4, r5, r6, r7, pc}
1000065a:	465b      	mov	r3, fp
1000065c:	005b      	lsls	r3, r3, #1
1000065e:	445b      	add	r3, fp
10000660:	3b03      	subs	r3, #3
10000662:	18d3      	adds	r3, r2, r3
10000664:	709c      	strb	r4, [r3, #2]
10000666:	19d1      	adds	r1, r2, r7
10000668:	5dd2      	ldrb	r2, [r2, r7]
1000066a:	2a00      	cmp	r2, #0
1000066c:	d000      	beq.n	10000670 <alarm_pool_add_alarm_at.constprop.0+0xdc>
1000066e:	705a      	strb	r2, [r3, #1]
10000670:	465b      	mov	r3, fp
10000672:	700b      	strb	r3, [r1, #0]
10000674:	7374      	strb	r4, [r6, #13]
10000676:	464a      	mov	r2, r9
10000678:	4653      	mov	r3, sl
1000067a:	7d28      	ldrb	r0, [r5, #20]
1000067c:	f000 fbb4 	bl	10000de8 <hardware_alarm_set_target>
10000680:	1e06      	subs	r6, r0, #0
10000682:	d0da      	beq.n	1000063a <alarm_pool_add_alarm_at.constprop.0+0xa6>
10000684:	0021      	movs	r1, r4
10000686:	6828      	ldr	r0, [r5, #0]
10000688:	f000 fe26 	bl	100012d8 <ph_remove_and_free_node>
1000068c:	68eb      	ldr	r3, [r5, #12]
1000068e:	686a      	ldr	r2, [r5, #4]
10000690:	191b      	adds	r3, r3, r4
10000692:	3b01      	subs	r3, #1
10000694:	781b      	ldrb	r3, [r3, #0]
10000696:	f3bf 8f5f 	dmb	sy
1000069a:	2100      	movs	r1, #0
1000069c:	6011      	str	r1, [r2, #0]
1000069e:	f388 8810 	msr	PRIMASK, r8
100006a2:	2000      	movs	r0, #0
100006a4:	2e00      	cmp	r6, #0
100006a6:	d1d2      	bne.n	1000064e <alarm_pool_add_alarm_at.constprop.0+0xba>
100006a8:	0218      	lsls	r0, r3, #8
100006aa:	4320      	orrs	r0, r4
100006ac:	e7cf      	b.n	1000064e <alarm_pool_add_alarm_at.constprop.0+0xba>
100006ae:	46c0      	nop			; (mov r8, r8)
100006b0:	200003f4 	.word	0x200003f4
100006b4:	0fffffff 	.word	0x0fffffff
100006b8:	10000565 	.word	0x10000565

100006bc <add_alarm_under_lock>:
100006bc:	b5f8      	push	{r3, r4, r5, r6, r7, lr}
100006be:	4657      	mov	r7, sl
100006c0:	4645      	mov	r5, r8
100006c2:	464e      	mov	r6, r9
100006c4:	46de      	mov	lr, fp
100006c6:	b5e0      	push	{r5, r6, r7, lr}
100006c8:	4699      	mov	r9, r3
100006ca:	ab0c      	add	r3, sp, #48	; 0x30
100006cc:	7819      	ldrb	r1, [r3, #0]
100006ce:	ab0d      	add	r3, sp, #52	; 0x34
100006d0:	781b      	ldrb	r3, [r3, #0]
100006d2:	0005      	movs	r5, r0
100006d4:	4690      	mov	r8, r2
100006d6:	469a      	mov	sl, r3
100006d8:	6807      	ldr	r7, [r0, #0]
100006da:	2900      	cmp	r1, #0
100006dc:	d112      	bne.n	10000704 <add_alarm_under_lock+0x48>
100006de:	7bbe      	ldrb	r6, [r7, #14]
100006e0:	2e00      	cmp	r6, #0
100006e2:	d045      	beq.n	10000770 <add_alarm_under_lock+0xb4>
100006e4:	0074      	lsls	r4, r6, #1
100006e6:	683b      	ldr	r3, [r7, #0]
100006e8:	19a4      	adds	r4, r4, r6
100006ea:	3c03      	subs	r4, #3
100006ec:	191b      	adds	r3, r3, r4
100006ee:	785a      	ldrb	r2, [r3, #1]
100006f0:	0031      	movs	r1, r6
100006f2:	73ba      	strb	r2, [r7, #14]
100006f4:	2a00      	cmp	r2, #0
100006f6:	d100      	bne.n	100006fa <add_alarm_under_lock+0x3e>
100006f8:	73fa      	strb	r2, [r7, #15]
100006fa:	2200      	movs	r2, #0
100006fc:	709a      	strb	r2, [r3, #2]
100006fe:	705a      	strb	r2, [r3, #1]
10000700:	701a      	strb	r2, [r3, #0]
10000702:	e003      	b.n	1000070c <add_alarm_under_lock+0x50>
10000704:	000e      	movs	r6, r1
10000706:	004c      	lsls	r4, r1, #1
10000708:	1864      	adds	r4, r4, r1
1000070a:	3c03      	subs	r4, #3
1000070c:	4b2c      	ldr	r3, [pc, #176]	; (100007c0 <add_alarm_under_lock+0x104>)
1000070e:	2200      	movs	r2, #0
10000710:	469c      	mov	ip, r3
10000712:	68ab      	ldr	r3, [r5, #8]
10000714:	4461      	add	r1, ip
10000716:	469c      	mov	ip, r3
10000718:	4643      	mov	r3, r8
1000071a:	0109      	lsls	r1, r1, #4
1000071c:	4461      	add	r1, ip
1000071e:	600b      	str	r3, [r1, #0]
10000720:	464b      	mov	r3, r9
10000722:	604b      	str	r3, [r1, #4]
10000724:	9b0a      	ldr	r3, [sp, #40]	; 0x28
10000726:	608b      	str	r3, [r1, #8]
10000728:	9b0b      	ldr	r3, [sp, #44]	; 0x2c
1000072a:	60cb      	str	r3, [r1, #12]
1000072c:	683b      	ldr	r3, [r7, #0]
1000072e:	191b      	adds	r3, r3, r4
10000730:	709a      	strb	r2, [r3, #2]
10000732:	705a      	strb	r2, [r3, #1]
10000734:	701a      	strb	r2, [r3, #0]
10000736:	7b7b      	ldrb	r3, [r7, #13]
10000738:	469b      	mov	fp, r3
1000073a:	2b00      	cmp	r3, #0
1000073c:	d02c      	beq.n	10000798 <add_alarm_under_lock+0xdc>
1000073e:	0032      	movs	r2, r6
10000740:	4659      	mov	r1, fp
10000742:	68b8      	ldr	r0, [r7, #8]
10000744:	687b      	ldr	r3, [r7, #4]
10000746:	4798      	blx	r3
10000748:	683a      	ldr	r2, [r7, #0]
1000074a:	2800      	cmp	r0, #0
1000074c:	d017      	beq.n	1000077e <add_alarm_under_lock+0xc2>
1000074e:	465b      	mov	r3, fp
10000750:	4658      	mov	r0, fp
10000752:	005b      	lsls	r3, r3, #1
10000754:	445b      	add	r3, fp
10000756:	1914      	adds	r4, r2, r4
10000758:	3b03      	subs	r3, #3
1000075a:	70a0      	strb	r0, [r4, #2]
1000075c:	18d1      	adds	r1, r2, r3
1000075e:	5cd3      	ldrb	r3, [r2, r3]
10000760:	2b00      	cmp	r3, #0
10000762:	d000      	beq.n	10000766 <add_alarm_under_lock+0xaa>
10000764:	7063      	strb	r3, [r4, #1]
10000766:	465b      	mov	r3, fp
10000768:	700e      	strb	r6, [r1, #0]
1000076a:	737b      	strb	r3, [r7, #13]
1000076c:	45b3      	cmp	fp, r6
1000076e:	d014      	beq.n	1000079a <add_alarm_under_lock+0xde>
10000770:	0030      	movs	r0, r6
10000772:	bc3c      	pop	{r2, r3, r4, r5}
10000774:	4690      	mov	r8, r2
10000776:	4699      	mov	r9, r3
10000778:	46a2      	mov	sl, r4
1000077a:	46ab      	mov	fp, r5
1000077c:	bdf8      	pop	{r3, r4, r5, r6, r7, pc}
1000077e:	465b      	mov	r3, fp
10000780:	005b      	lsls	r3, r3, #1
10000782:	445b      	add	r3, fp
10000784:	3b03      	subs	r3, #3
10000786:	18d3      	adds	r3, r2, r3
10000788:	709e      	strb	r6, [r3, #2]
1000078a:	1911      	adds	r1, r2, r4
1000078c:	5d12      	ldrb	r2, [r2, r4]
1000078e:	2a00      	cmp	r2, #0
10000790:	d000      	beq.n	10000794 <add_alarm_under_lock+0xd8>
10000792:	705a      	strb	r2, [r3, #1]
10000794:	465b      	mov	r3, fp
10000796:	700b      	strb	r3, [r1, #0]
10000798:	737e      	strb	r6, [r7, #13]
1000079a:	4642      	mov	r2, r8
1000079c:	464b      	mov	r3, r9
1000079e:	7d28      	ldrb	r0, [r5, #20]
100007a0:	f000 fb22 	bl	10000de8 <hardware_alarm_set_target>
100007a4:	1e04      	subs	r4, r0, #0
100007a6:	d006      	beq.n	100007b6 <add_alarm_under_lock+0xfa>
100007a8:	4653      	mov	r3, sl
100007aa:	2b00      	cmp	r3, #0
100007ac:	d103      	bne.n	100007b6 <add_alarm_under_lock+0xfa>
100007ae:	0031      	movs	r1, r6
100007b0:	6828      	ldr	r0, [r5, #0]
100007b2:	f000 fd91 	bl	100012d8 <ph_remove_and_free_node>
100007b6:	9b0e      	ldr	r3, [sp, #56]	; 0x38
100007b8:	2b00      	cmp	r3, #0
100007ba:	d0d9      	beq.n	10000770 <add_alarm_under_lock+0xb4>
100007bc:	701c      	strb	r4, [r3, #0]
100007be:	e7d7      	b.n	10000770 <add_alarm_under_lock+0xb4>
100007c0:	0fffffff 	.word	0x0fffffff

100007c4 <alarm_pool_alarm_callback>:
100007c4:	b5f0      	push	{r4, r5, r6, r7, lr}
100007c6:	46de      	mov	lr, fp
100007c8:	464e      	mov	r6, r9
100007ca:	4657      	mov	r7, sl
100007cc:	4645      	mov	r5, r8
100007ce:	2300      	movs	r3, #0
100007d0:	b5e0      	push	{r5, r6, r7, lr}
100007d2:	b08d      	sub	sp, #52	; 0x34
100007d4:	930a      	str	r3, [sp, #40]	; 0x28
100007d6:	4b6b      	ldr	r3, [pc, #428]	; (10000984 <alarm_pool_alarm_callback+0x1c0>)
100007d8:	0082      	lsls	r2, r0, #2
100007da:	58d3      	ldr	r3, [r2, r3]
100007dc:	900b      	str	r0, [sp, #44]	; 0x2c
100007de:	4699      	mov	r9, r3
100007e0:	2300      	movs	r3, #0
100007e2:	469b      	mov	fp, r3
100007e4:	464b      	mov	r3, r9
100007e6:	9307      	str	r3, [sp, #28]
100007e8:	f000 faae 	bl	10000d48 <time_us_64>
100007ec:	9c07      	ldr	r4, [sp, #28]
100007ee:	0006      	movs	r6, r0
100007f0:	000f      	movs	r7, r1
100007f2:	6862      	ldr	r2, [r4, #4]
100007f4:	f3ef 8510 	mrs	r5, PRIMASK
100007f8:	b672      	cpsid	i
100007fa:	6813      	ldr	r3, [r2, #0]
100007fc:	2b00      	cmp	r3, #0
100007fe:	d0fc      	beq.n	100007fa <alarm_pool_alarm_callback+0x36>
10000800:	0022      	movs	r2, r4
10000802:	9407      	str	r4, [sp, #28]
10000804:	f3bf 8f5f 	dmb	sy
10000808:	6824      	ldr	r4, [r4, #0]
1000080a:	7b63      	ldrb	r3, [r4, #13]
1000080c:	4699      	mov	r9, r3
1000080e:	2b00      	cmp	r3, #0
10000810:	d067      	beq.n	100008e2 <alarm_pool_alarm_callback+0x11e>
10000812:	6892      	ldr	r2, [r2, #8]
10000814:	4b5c      	ldr	r3, [pc, #368]	; (10000988 <alarm_pool_alarm_callback+0x1c4>)
10000816:	4690      	mov	r8, r2
10000818:	444b      	add	r3, r9
1000081a:	011b      	lsls	r3, r3, #4
1000081c:	4498      	add	r8, r3
1000081e:	4643      	mov	r3, r8
10000820:	681a      	ldr	r2, [r3, #0]
10000822:	685b      	ldr	r3, [r3, #4]
10000824:	0010      	movs	r0, r2
10000826:	0019      	movs	r1, r3
10000828:	1b80      	subs	r0, r0, r6
1000082a:	41b9      	sbcs	r1, r7
1000082c:	2900      	cmp	r1, #0
1000082e:	dd5f      	ble.n	100008f0 <alarm_pool_alarm_callback+0x12c>
10000830:	980b      	ldr	r0, [sp, #44]	; 0x2c
10000832:	f000 fad9 	bl	10000de8 <hardware_alarm_set_target>
10000836:	2300      	movs	r3, #0
10000838:	2600      	movs	r6, #0
1000083a:	4698      	mov	r8, r3
1000083c:	2700      	movs	r7, #0
1000083e:	469a      	mov	sl, r3
10000840:	9c07      	ldr	r4, [sp, #28]
10000842:	6863      	ldr	r3, [r4, #4]
10000844:	f3bf 8f5f 	dmb	sy
10000848:	465a      	mov	r2, fp
1000084a:	601a      	str	r2, [r3, #0]
1000084c:	f385 8810 	msr	PRIMASK, r5
10000850:	4653      	mov	r3, sl
10000852:	2b00      	cmp	r3, #0
10000854:	d108      	bne.n	10000868 <alarm_pool_alarm_callback+0xa4>
10000856:	2800      	cmp	r0, #0
10000858:	d1c6      	bne.n	100007e8 <alarm_pool_alarm_callback+0x24>
1000085a:	b00d      	add	sp, #52	; 0x34
1000085c:	bc3c      	pop	{r2, r3, r4, r5}
1000085e:	4690      	mov	r8, r2
10000860:	4699      	mov	r9, r3
10000862:	46a2      	mov	sl, r4
10000864:	46ab      	mov	fp, r5
10000866:	bdf0      	pop	{r4, r5, r6, r7, pc}
10000868:	9b0a      	ldr	r3, [sp, #40]	; 0x28
1000086a:	4641      	mov	r1, r8
1000086c:	0218      	lsls	r0, r3, #8
1000086e:	464b      	mov	r3, r9
10000870:	4318      	orrs	r0, r3
10000872:	47d0      	blx	sl
10000874:	9008      	str	r0, [sp, #32]
10000876:	9109      	str	r1, [sp, #36]	; 0x24
10000878:	6862      	ldr	r2, [r4, #4]
1000087a:	f3ef 8510 	mrs	r5, PRIMASK
1000087e:	b672      	cpsid	i
10000880:	6813      	ldr	r3, [r2, #0]
10000882:	2b00      	cmp	r3, #0
10000884:	d0fc      	beq.n	10000880 <alarm_pool_alarm_callback+0xbc>
10000886:	9407      	str	r4, [sp, #28]
10000888:	f3bf 8f5f 	dmb	sy
1000088c:	9908      	ldr	r1, [sp, #32]
1000088e:	9a09      	ldr	r2, [sp, #36]	; 0x24
10000890:	2a00      	cmp	r2, #0
10000892:	db48      	blt.n	10000926 <alarm_pool_alarm_callback+0x162>
10000894:	4311      	orrs	r1, r2
10000896:	d003      	beq.n	100008a0 <alarm_pool_alarm_callback+0xdc>
10000898:	9b07      	ldr	r3, [sp, #28]
1000089a:	691b      	ldr	r3, [r3, #16]
1000089c:	2b00      	cmp	r3, #0
1000089e:	d15d      	bne.n	1000095c <alarm_pool_alarm_callback+0x198>
100008a0:	9b07      	ldr	r3, [sp, #28]
100008a2:	681b      	ldr	r3, [r3, #0]
100008a4:	7bda      	ldrb	r2, [r3, #15]
100008a6:	2a00      	cmp	r2, #0
100008a8:	d007      	beq.n	100008ba <alarm_pool_alarm_callback+0xf6>
100008aa:	0051      	lsls	r1, r2, #1
100008ac:	188a      	adds	r2, r1, r2
100008ae:	6819      	ldr	r1, [r3, #0]
100008b0:	468c      	mov	ip, r1
100008b2:	4649      	mov	r1, r9
100008b4:	4462      	add	r2, ip
100008b6:	3a03      	subs	r2, #3
100008b8:	7051      	strb	r1, [r2, #1]
100008ba:	464a      	mov	r2, r9
100008bc:	73da      	strb	r2, [r3, #15]
100008be:	464b      	mov	r3, r9
100008c0:	9a07      	ldr	r2, [sp, #28]
100008c2:	3b01      	subs	r3, #1
100008c4:	68d1      	ldr	r1, [r2, #12]
100008c6:	5cca      	ldrb	r2, [r1, r3]
100008c8:	3201      	adds	r2, #1
100008ca:	54ca      	strb	r2, [r1, r3]
100008cc:	465b      	mov	r3, fp
100008ce:	9a07      	ldr	r2, [sp, #28]
100008d0:	6113      	str	r3, [r2, #16]
100008d2:	6853      	ldr	r3, [r2, #4]
100008d4:	f3bf 8f5f 	dmb	sy
100008d8:	465a      	mov	r2, fp
100008da:	601a      	str	r2, [r3, #0]
100008dc:	f385 8810 	msr	PRIMASK, r5
100008e0:	e782      	b.n	100007e8 <alarm_pool_alarm_callback+0x24>
100008e2:	2300      	movs	r3, #0
100008e4:	2600      	movs	r6, #0
100008e6:	4698      	mov	r8, r3
100008e8:	2700      	movs	r7, #0
100008ea:	469a      	mov	sl, r3
100008ec:	2000      	movs	r0, #0
100008ee:	e7a7      	b.n	10000840 <alarm_pool_alarm_callback+0x7c>
100008f0:	2900      	cmp	r1, #0
100008f2:	d101      	bne.n	100008f8 <alarm_pool_alarm_callback+0x134>
100008f4:	2800      	cmp	r0, #0
100008f6:	d19b      	bne.n	10000830 <alarm_pool_alarm_callback+0x6c>
100008f8:	2100      	movs	r1, #0
100008fa:	0020      	movs	r0, r4
100008fc:	f000 fc4e 	bl	1000119c <ph_remove_head>
10000900:	4643      	mov	r3, r8
10000902:	681e      	ldr	r6, [r3, #0]
10000904:	685f      	ldr	r7, [r3, #4]
10000906:	689b      	ldr	r3, [r3, #8]
10000908:	9a07      	ldr	r2, [sp, #28]
1000090a:	469a      	mov	sl, r3
1000090c:	4643      	mov	r3, r8
1000090e:	68db      	ldr	r3, [r3, #12]
10000910:	4698      	mov	r8, r3
10000912:	68d3      	ldr	r3, [r2, #12]
10000914:	444b      	add	r3, r9
10000916:	3b01      	subs	r3, #1
10000918:	781b      	ldrb	r3, [r3, #0]
1000091a:	930a      	str	r3, [sp, #40]	; 0x28
1000091c:	021b      	lsls	r3, r3, #8
1000091e:	4303      	orrs	r3, r0
10000920:	6113      	str	r3, [r2, #16]
10000922:	2000      	movs	r0, #0
10000924:	e78c      	b.n	10000840 <alarm_pool_alarm_callback+0x7c>
10000926:	6923      	ldr	r3, [r4, #16]
10000928:	2b00      	cmp	r3, #0
1000092a:	d0b9      	beq.n	100008a0 <alarm_pool_alarm_callback+0xdc>
1000092c:	0033      	movs	r3, r6
1000092e:	003c      	movs	r4, r7
10000930:	1a5b      	subs	r3, r3, r1
10000932:	4194      	sbcs	r4, r2
10000934:	001a      	movs	r2, r3
10000936:	0023      	movs	r3, r4
10000938:	42a7      	cmp	r7, r4
1000093a:	d819      	bhi.n	10000970 <alarm_pool_alarm_callback+0x1ac>
1000093c:	429f      	cmp	r7, r3
1000093e:	d01b      	beq.n	10000978 <alarm_pool_alarm_callback+0x1b4>
10000940:	4659      	mov	r1, fp
10000942:	9104      	str	r1, [sp, #16]
10000944:	2101      	movs	r1, #1
10000946:	9103      	str	r1, [sp, #12]
10000948:	4649      	mov	r1, r9
1000094a:	9102      	str	r1, [sp, #8]
1000094c:	4641      	mov	r1, r8
1000094e:	9101      	str	r1, [sp, #4]
10000950:	4651      	mov	r1, sl
10000952:	9807      	ldr	r0, [sp, #28]
10000954:	9100      	str	r1, [sp, #0]
10000956:	f7ff feb1 	bl	100006bc <add_alarm_under_lock>
1000095a:	e7b7      	b.n	100008cc <alarm_pool_alarm_callback+0x108>
1000095c:	f000 f9f4 	bl	10000d48 <time_us_64>
10000960:	9a08      	ldr	r2, [sp, #32]
10000962:	9b09      	ldr	r3, [sp, #36]	; 0x24
10000964:	0006      	movs	r6, r0
10000966:	000f      	movs	r7, r1
10000968:	1992      	adds	r2, r2, r6
1000096a:	417b      	adcs	r3, r7
1000096c:	4299      	cmp	r1, r3
1000096e:	d9e5      	bls.n	1000093c <alarm_pool_alarm_callback+0x178>
10000970:	2201      	movs	r2, #1
10000972:	4252      	negs	r2, r2
10000974:	17d3      	asrs	r3, r2, #31
10000976:	e7e3      	b.n	10000940 <alarm_pool_alarm_callback+0x17c>
10000978:	4296      	cmp	r6, r2
1000097a:	d9e1      	bls.n	10000940 <alarm_pool_alarm_callback+0x17c>
1000097c:	2201      	movs	r2, #1
1000097e:	4252      	negs	r2, r2
10000980:	17d3      	asrs	r3, r2, #31
10000982:	e7dd      	b.n	10000940 <alarm_pool_alarm_callback+0x17c>
10000984:	20001904 	.word	0x20001904
10000988:	0fffffff 	.word	0x0fffffff

1000098c <alarm_pool_init_default>:
1000098c:	b510      	push	{r4, lr}
1000098e:	4c12      	ldr	r4, [pc, #72]	; (100009d8 <alarm_pool_init_default+0x4c>)
10000990:	6863      	ldr	r3, [r4, #4]
10000992:	2b00      	cmp	r3, #0
10000994:	d004      	beq.n	100009a0 <alarm_pool_init_default+0x14>
10000996:	210a      	movs	r1, #10
10000998:	4810      	ldr	r0, [pc, #64]	; (100009dc <alarm_pool_init_default+0x50>)
1000099a:	f000 fab7 	bl	10000f0c <lock_init>
1000099e:	bd10      	pop	{r4, pc}
100009a0:	0023      	movs	r3, r4
100009a2:	4a0f      	ldr	r2, [pc, #60]	; (100009e0 <alarm_pool_init_default+0x54>)
100009a4:	2110      	movs	r1, #16
100009a6:	6820      	ldr	r0, [r4, #0]
100009a8:	f000 fb16 	bl	10000fd8 <ph_post_alloc_init>
100009ac:	2003      	movs	r0, #3
100009ae:	f000 f9bf 	bl	10000d30 <hardware_alarm_claim>
100009b2:	2003      	movs	r0, #3
100009b4:	f000 fa8a 	bl	10000ecc <hardware_alarm_cancel>
100009b8:	2003      	movs	r0, #3
100009ba:	490a      	ldr	r1, [pc, #40]	; (100009e4 <alarm_pool_init_default+0x58>)
100009bc:	f000 f9ce 	bl	10000d5c <hardware_alarm_set_callback>
100009c0:	f7ff fd9a 	bl	100004f8 <next_striped_spin_lock_num>
100009c4:	4b08      	ldr	r3, [pc, #32]	; (100009e8 <alarm_pool_init_default+0x5c>)
100009c6:	469c      	mov	ip, r3
100009c8:	2303      	movs	r3, #3
100009ca:	4460      	add	r0, ip
100009cc:	7523      	strb	r3, [r4, #20]
100009ce:	4b07      	ldr	r3, [pc, #28]	; (100009ec <alarm_pool_init_default+0x60>)
100009d0:	0080      	lsls	r0, r0, #2
100009d2:	6060      	str	r0, [r4, #4]
100009d4:	60dc      	str	r4, [r3, #12]
100009d6:	e7de      	b.n	10000996 <alarm_pool_init_default+0xa>
100009d8:	200003f4 	.word	0x200003f4
100009dc:	2000191c 	.word	0x2000191c
100009e0:	10000531 	.word	0x10000531
100009e4:	100007c5 	.word	0x100007c5
100009e8:	34000040 	.word	0x34000040
100009ec:	20001904 	.word	0x20001904

100009f0 <alarm_pool_get_default>:
100009f0:	4800      	ldr	r0, [pc, #0]	; (100009f4 <alarm_pool_get_default+0x4>)
100009f2:	4770      	bx	lr
100009f4:	200003f4 	.word	0x200003f4

100009f8 <alarm_pool_add_alarm_at>:
100009f8:	b5f0      	push	{r4, r5, r6, r7, lr}
100009fa:	4657      	mov	r7, sl
100009fc:	4645      	mov	r5, r8
100009fe:	46de      	mov	lr, fp
10000a00:	464e      	mov	r6, r9
10000a02:	b5e0      	push	{r5, r6, r7, lr}
10000a04:	b085      	sub	sp, #20
10000a06:	9301      	str	r3, [sp, #4]
10000a08:	ab10      	add	r3, sp, #64	; 0x40
10000a0a:	781b      	ldrb	r3, [r3, #0]
10000a0c:	2700      	movs	r7, #0
10000a0e:	9303      	str	r3, [sp, #12]
10000a10:	2300      	movs	r3, #0
10000a12:	4680      	mov	r8, r0
10000a14:	469a      	mov	sl, r3
10000a16:	9200      	str	r2, [sp, #0]
10000a18:	4643      	mov	r3, r8
10000a1a:	685a      	ldr	r2, [r3, #4]
10000a1c:	f3ef 8910 	mrs	r9, PRIMASK
10000a20:	b672      	cpsid	i
10000a22:	6813      	ldr	r3, [r2, #0]
10000a24:	2b00      	cmp	r3, #0
10000a26:	d0fc      	beq.n	10000a22 <alarm_pool_add_alarm_at+0x2a>
10000a28:	f3bf 8f5f 	dmb	sy
10000a2c:	4643      	mov	r3, r8
10000a2e:	681d      	ldr	r5, [r3, #0]
10000a30:	7bac      	ldrb	r4, [r5, #14]
10000a32:	2c00      	cmp	r4, #0
10000a34:	d04f      	beq.n	10000ad6 <alarm_pool_add_alarm_at+0xde>
10000a36:	0066      	lsls	r6, r4, #1
10000a38:	682b      	ldr	r3, [r5, #0]
10000a3a:	1936      	adds	r6, r6, r4
10000a3c:	3e03      	subs	r6, #3
10000a3e:	199b      	adds	r3, r3, r6
10000a40:	785a      	ldrb	r2, [r3, #1]
10000a42:	73aa      	strb	r2, [r5, #14]
10000a44:	2a00      	cmp	r2, #0
10000a46:	d100      	bne.n	10000a4a <alarm_pool_add_alarm_at+0x52>
10000a48:	73ea      	strb	r2, [r5, #15]
10000a4a:	4642      	mov	r2, r8
10000a4c:	709f      	strb	r7, [r3, #2]
10000a4e:	705f      	strb	r7, [r3, #1]
10000a50:	701f      	strb	r7, [r3, #0]
10000a52:	6892      	ldr	r2, [r2, #8]
10000a54:	4b52      	ldr	r3, [pc, #328]	; (10000ba0 <alarm_pool_add_alarm_at+0x1a8>)
10000a56:	4694      	mov	ip, r2
10000a58:	9900      	ldr	r1, [sp, #0]
10000a5a:	9a01      	ldr	r2, [sp, #4]
10000a5c:	18e3      	adds	r3, r4, r3
10000a5e:	011b      	lsls	r3, r3, #4
10000a60:	4463      	add	r3, ip
10000a62:	6019      	str	r1, [r3, #0]
10000a64:	605a      	str	r2, [r3, #4]
10000a66:	9a0e      	ldr	r2, [sp, #56]	; 0x38
10000a68:	609a      	str	r2, [r3, #8]
10000a6a:	9a0f      	ldr	r2, [sp, #60]	; 0x3c
10000a6c:	60da      	str	r2, [r3, #12]
10000a6e:	682b      	ldr	r3, [r5, #0]
10000a70:	199b      	adds	r3, r3, r6
10000a72:	709f      	strb	r7, [r3, #2]
10000a74:	705f      	strb	r7, [r3, #1]
10000a76:	701f      	strb	r7, [r3, #0]
10000a78:	7b6b      	ldrb	r3, [r5, #13]
10000a7a:	469b      	mov	fp, r3
10000a7c:	2b00      	cmp	r3, #0
10000a7e:	d046      	beq.n	10000b0e <alarm_pool_add_alarm_at+0x116>
10000a80:	0022      	movs	r2, r4
10000a82:	0019      	movs	r1, r3
10000a84:	68a8      	ldr	r0, [r5, #8]
10000a86:	686b      	ldr	r3, [r5, #4]
10000a88:	4798      	blx	r3
10000a8a:	682a      	ldr	r2, [r5, #0]
10000a8c:	2800      	cmp	r0, #0
10000a8e:	d031      	beq.n	10000af4 <alarm_pool_add_alarm_at+0xfc>
10000a90:	465b      	mov	r3, fp
10000a92:	4658      	mov	r0, fp
10000a94:	005b      	lsls	r3, r3, #1
10000a96:	445b      	add	r3, fp
10000a98:	1996      	adds	r6, r2, r6
10000a9a:	3b03      	subs	r3, #3
10000a9c:	70b0      	strb	r0, [r6, #2]
10000a9e:	18d1      	adds	r1, r2, r3
10000aa0:	5cd3      	ldrb	r3, [r2, r3]
10000aa2:	2b00      	cmp	r3, #0
10000aa4:	d000      	beq.n	10000aa8 <alarm_pool_add_alarm_at+0xb0>
10000aa6:	7073      	strb	r3, [r6, #1]
10000aa8:	465b      	mov	r3, fp
10000aaa:	700c      	strb	r4, [r1, #0]
10000aac:	736b      	strb	r3, [r5, #13]
10000aae:	455c      	cmp	r4, fp
10000ab0:	d02e      	beq.n	10000b10 <alarm_pool_add_alarm_at+0x118>
10000ab2:	4643      	mov	r3, r8
10000ab4:	68db      	ldr	r3, [r3, #12]
10000ab6:	191b      	adds	r3, r3, r4
10000ab8:	3b01      	subs	r3, #1
10000aba:	7818      	ldrb	r0, [r3, #0]
10000abc:	4643      	mov	r3, r8
10000abe:	685b      	ldr	r3, [r3, #4]
10000ac0:	f3bf 8f5f 	dmb	sy
10000ac4:	601f      	str	r7, [r3, #0]
10000ac6:	f389 8810 	msr	PRIMASK, r9
10000aca:	4653      	mov	r3, sl
10000acc:	2b00      	cmp	r3, #0
10000ace:	d12e      	bne.n	10000b2e <alarm_pool_add_alarm_at+0x136>
10000ad0:	0200      	lsls	r0, r0, #8
10000ad2:	4320      	orrs	r0, r4
10000ad4:	e007      	b.n	10000ae6 <alarm_pool_add_alarm_at+0xee>
10000ad6:	685b      	ldr	r3, [r3, #4]
10000ad8:	f3bf 8f5f 	dmb	sy
10000adc:	601c      	str	r4, [r3, #0]
10000ade:	f389 8810 	msr	PRIMASK, r9
10000ae2:	2001      	movs	r0, #1
10000ae4:	4240      	negs	r0, r0
10000ae6:	b005      	add	sp, #20
10000ae8:	bc3c      	pop	{r2, r3, r4, r5}
10000aea:	4690      	mov	r8, r2
10000aec:	4699      	mov	r9, r3
10000aee:	46a2      	mov	sl, r4
10000af0:	46ab      	mov	fp, r5
10000af2:	bdf0      	pop	{r4, r5, r6, r7, pc}
10000af4:	465b      	mov	r3, fp
10000af6:	005b      	lsls	r3, r3, #1
10000af8:	445b      	add	r3, fp
10000afa:	3b03      	subs	r3, #3
10000afc:	18d3      	adds	r3, r2, r3
10000afe:	709c      	strb	r4, [r3, #2]
10000b00:	1991      	adds	r1, r2, r6
10000b02:	5d92      	ldrb	r2, [r2, r6]
10000b04:	2a00      	cmp	r2, #0
10000b06:	d000      	beq.n	10000b0a <alarm_pool_add_alarm_at+0x112>
10000b08:	705a      	strb	r2, [r3, #1]
10000b0a:	465b      	mov	r3, fp
10000b0c:	700b      	strb	r3, [r1, #0]
10000b0e:	736c      	strb	r4, [r5, #13]
10000b10:	4643      	mov	r3, r8
10000b12:	7d18      	ldrb	r0, [r3, #20]
10000b14:	9a00      	ldr	r2, [sp, #0]
10000b16:	9b01      	ldr	r3, [sp, #4]
10000b18:	f000 f966 	bl	10000de8 <hardware_alarm_set_target>
10000b1c:	4682      	mov	sl, r0
10000b1e:	2800      	cmp	r0, #0
10000b20:	d0c7      	beq.n	10000ab2 <alarm_pool_add_alarm_at+0xba>
10000b22:	4643      	mov	r3, r8
10000b24:	0021      	movs	r1, r4
10000b26:	6818      	ldr	r0, [r3, #0]
10000b28:	f000 fbd6 	bl	100012d8 <ph_remove_and_free_node>
10000b2c:	e7c1      	b.n	10000ab2 <alarm_pool_add_alarm_at+0xba>
10000b2e:	9b03      	ldr	r3, [sp, #12]
10000b30:	2b00      	cmp	r3, #0
10000b32:	d032      	beq.n	10000b9a <alarm_pool_add_alarm_at+0x1a2>
10000b34:	9b0e      	ldr	r3, [sp, #56]	; 0x38
10000b36:	2000      	movs	r0, #0
10000b38:	990f      	ldr	r1, [sp, #60]	; 0x3c
10000b3a:	4798      	blx	r3
10000b3c:	0003      	movs	r3, r0
10000b3e:	0004      	movs	r4, r0
10000b40:	000d      	movs	r5, r1
10000b42:	430b      	orrs	r3, r1
10000b44:	d029      	beq.n	10000b9a <alarm_pool_add_alarm_at+0x1a2>
10000b46:	2900      	cmp	r1, #0
10000b48:	da0d      	bge.n	10000b66 <alarm_pool_add_alarm_at+0x16e>
10000b4a:	9800      	ldr	r0, [sp, #0]
10000b4c:	9901      	ldr	r1, [sp, #4]
10000b4e:	0002      	movs	r2, r0
10000b50:	000b      	movs	r3, r1
10000b52:	1b12      	subs	r2, r2, r4
10000b54:	41ab      	sbcs	r3, r5
10000b56:	4299      	cmp	r1, r3
10000b58:	d815      	bhi.n	10000b86 <alarm_pool_add_alarm_at+0x18e>
10000b5a:	d01a      	beq.n	10000b92 <alarm_pool_add_alarm_at+0x19a>
10000b5c:	9200      	str	r2, [sp, #0]
10000b5e:	9301      	str	r3, [sp, #4]
10000b60:	9b03      	ldr	r3, [sp, #12]
10000b62:	469a      	mov	sl, r3
10000b64:	e758      	b.n	10000a18 <alarm_pool_add_alarm_at+0x20>
10000b66:	f000 f8ef 	bl	10000d48 <time_us_64>
10000b6a:	0002      	movs	r2, r0
10000b6c:	000b      	movs	r3, r1
10000b6e:	18a4      	adds	r4, r4, r2
10000b70:	415d      	adcs	r5, r3
10000b72:	0020      	movs	r0, r4
10000b74:	0029      	movs	r1, r5
10000b76:	9000      	str	r0, [sp, #0]
10000b78:	9101      	str	r1, [sp, #4]
10000b7a:	42ab      	cmp	r3, r5
10000b7c:	d803      	bhi.n	10000b86 <alarm_pool_add_alarm_at+0x18e>
10000b7e:	d1ef      	bne.n	10000b60 <alarm_pool_add_alarm_at+0x168>
10000b80:	9900      	ldr	r1, [sp, #0]
10000b82:	428a      	cmp	r2, r1
10000b84:	d9ec      	bls.n	10000b60 <alarm_pool_add_alarm_at+0x168>
10000b86:	2301      	movs	r3, #1
10000b88:	425b      	negs	r3, r3
10000b8a:	17dc      	asrs	r4, r3, #31
10000b8c:	9300      	str	r3, [sp, #0]
10000b8e:	9401      	str	r4, [sp, #4]
10000b90:	e7e6      	b.n	10000b60 <alarm_pool_add_alarm_at+0x168>
10000b92:	9900      	ldr	r1, [sp, #0]
10000b94:	4291      	cmp	r1, r2
10000b96:	d9e1      	bls.n	10000b5c <alarm_pool_add_alarm_at+0x164>
10000b98:	e7f5      	b.n	10000b86 <alarm_pool_add_alarm_at+0x18e>
10000b9a:	2000      	movs	r0, #0
10000b9c:	e7a3      	b.n	10000ae6 <alarm_pool_add_alarm_at+0xee>
10000b9e:	46c0      	nop			; (mov r8, r8)
10000ba0:	0fffffff 	.word	0x0fffffff

10000ba4 <best_effort_wfe_or_timeout>:
10000ba4:	b5f8      	push	{r3, r4, r5, r6, r7, lr}
10000ba6:	46ce      	mov	lr, r9
10000ba8:	4647      	mov	r7, r8
10000baa:	b580      	push	{r7, lr}
10000bac:	0006      	movs	r6, r0
10000bae:	000c      	movs	r4, r1
10000bb0:	f7ff fcf0 	bl	10000594 <alarm_pool_add_alarm_at.constprop.0>
10000bb4:	2800      	cmp	r0, #0
10000bb6:	dc0c      	bgt.n	10000bd2 <best_effort_wfe_or_timeout+0x2e>
10000bb8:	4b2d      	ldr	r3, [pc, #180]	; (10000c70 <best_effort_wfe_or_timeout+0xcc>)
10000bba:	2000      	movs	r0, #0
10000bbc:	6a59      	ldr	r1, [r3, #36]	; 0x24
10000bbe:	428c      	cmp	r4, r1
10000bc0:	d803      	bhi.n	10000bca <best_effort_wfe_or_timeout+0x26>
10000bc2:	6a9b      	ldr	r3, [r3, #40]	; 0x28
10000bc4:	3001      	adds	r0, #1
10000bc6:	42b3      	cmp	r3, r6
10000bc8:	d345      	bcc.n	10000c56 <best_effort_wfe_or_timeout+0xb2>
10000bca:	bc0c      	pop	{r2, r3}
10000bcc:	4690      	mov	r8, r2
10000bce:	4699      	mov	r9, r3
10000bd0:	bdf8      	pop	{r3, r4, r5, r6, r7, pc}
10000bd2:	bf20      	wfe
10000bd4:	4d27      	ldr	r5, [pc, #156]	; (10000c74 <best_effort_wfe_or_timeout+0xd0>)
10000bd6:	686a      	ldr	r2, [r5, #4]
10000bd8:	f3ef 8710 	mrs	r7, PRIMASK
10000bdc:	b672      	cpsid	i
10000bde:	6813      	ldr	r3, [r2, #0]
10000be0:	2b00      	cmp	r3, #0
10000be2:	d0fc      	beq.n	10000bde <best_effort_wfe_or_timeout+0x3a>
10000be4:	f3bf 8f5f 	dmb	sy
10000be8:	682b      	ldr	r3, [r5, #0]
10000bea:	b2c1      	uxtb	r1, r0
10000bec:	469c      	mov	ip, r3
10000bee:	7b5b      	ldrb	r3, [r3, #13]
10000bf0:	428b      	cmp	r3, r1
10000bf2:	d035      	beq.n	10000c60 <best_effort_wfe_or_timeout+0xbc>
10000bf4:	23ff      	movs	r3, #255	; 0xff
10000bf6:	4003      	ands	r3, r0
10000bf8:	005a      	lsls	r2, r3, #1
10000bfa:	4691      	mov	r9, r2
10000bfc:	4662      	mov	r2, ip
10000bfe:	6812      	ldr	r2, [r2, #0]
10000c00:	4499      	add	r9, r3
10000c02:	4690      	mov	r8, r2
10000c04:	464a      	mov	r2, r9
10000c06:	4442      	add	r2, r8
10000c08:	3a03      	subs	r2, #3
10000c0a:	7892      	ldrb	r2, [r2, #2]
10000c0c:	2a00      	cmp	r2, #0
10000c0e:	d01d      	beq.n	10000c4c <best_effort_wfe_or_timeout+0xa8>
10000c10:	68ea      	ldr	r2, [r5, #12]
10000c12:	0a00      	lsrs	r0, r0, #8
10000c14:	4690      	mov	r8, r2
10000c16:	4443      	add	r3, r8
10000c18:	3b01      	subs	r3, #1
10000c1a:	781b      	ldrb	r3, [r3, #0]
10000c1c:	b2c0      	uxtb	r0, r0
10000c1e:	4283      	cmp	r3, r0
10000c20:	d021      	beq.n	10000c66 <best_effort_wfe_or_timeout+0xc2>
10000c22:	686b      	ldr	r3, [r5, #4]
10000c24:	f3bf 8f5f 	dmb	sy
10000c28:	2200      	movs	r2, #0
10000c2a:	601a      	str	r2, [r3, #0]
10000c2c:	f387 8810 	msr	PRIMASK, r7
10000c30:	4a0f      	ldr	r2, [pc, #60]	; (10000c70 <best_effort_wfe_or_timeout+0xcc>)
10000c32:	2000      	movs	r0, #0
10000c34:	6a53      	ldr	r3, [r2, #36]	; 0x24
10000c36:	429c      	cmp	r4, r3
10000c38:	d8c7      	bhi.n	10000bca <best_effort_wfe_or_timeout+0x26>
10000c3a:	6a92      	ldr	r2, [r2, #40]	; 0x28
10000c3c:	3001      	adds	r0, #1
10000c3e:	42b2      	cmp	r2, r6
10000c40:	d2c3      	bcs.n	10000bca <best_effort_wfe_or_timeout+0x26>
10000c42:	1ae4      	subs	r4, r4, r3
10000c44:	1e60      	subs	r0, r4, #1
10000c46:	4184      	sbcs	r4, r0
10000c48:	b2e0      	uxtb	r0, r4
10000c4a:	e7be      	b.n	10000bca <best_effort_wfe_or_timeout+0x26>
10000c4c:	692b      	ldr	r3, [r5, #16]
10000c4e:	4298      	cmp	r0, r3
10000c50:	d1e7      	bne.n	10000c22 <best_effort_wfe_or_timeout+0x7e>
10000c52:	612a      	str	r2, [r5, #16]
10000c54:	e7e5      	b.n	10000c22 <best_effort_wfe_or_timeout+0x7e>
10000c56:	1a64      	subs	r4, r4, r1
10000c58:	1e60      	subs	r0, r4, #1
10000c5a:	4184      	sbcs	r4, r0
10000c5c:	b2e0      	uxtb	r0, r4
10000c5e:	e7b4      	b.n	10000bca <best_effort_wfe_or_timeout+0x26>
10000c60:	23ff      	movs	r3, #255	; 0xff
10000c62:	4003      	ands	r3, r0
10000c64:	e7d4      	b.n	10000c10 <best_effort_wfe_or_timeout+0x6c>
10000c66:	4660      	mov	r0, ip
10000c68:	f000 fb36 	bl	100012d8 <ph_remove_and_free_node>
10000c6c:	e7d9      	b.n	10000c22 <best_effort_wfe_or_timeout+0x7e>
10000c6e:	46c0      	nop			; (mov r8, r8)
10000c70:	40054000 	.word	0x40054000
10000c74:	200003f4 	.word	0x200003f4

10000c78 <hardware_alarm_irq_handler>:
10000c78:	b5f0      	push	{r4, r5, r6, r7, lr}
10000c7a:	46d6      	mov	lr, sl
10000c7c:	464f      	mov	r7, r9
10000c7e:	4646      	mov	r6, r8
10000c80:	b5c0      	push	{r6, r7, lr}
10000c82:	f3ef 8305 	mrs	r3, IPSR
10000c86:	223f      	movs	r2, #63	; 0x3f
10000c88:	4013      	ands	r3, r2
10000c8a:	0018      	movs	r0, r3
10000c8c:	3810      	subs	r0, #16
10000c8e:	f3ef 8c10 	mrs	ip, PRIMASK
10000c92:	b672      	cpsid	i
10000c94:	4d20      	ldr	r5, [pc, #128]	; (10000d18 <hardware_alarm_irq_handler+0xa0>)
10000c96:	682a      	ldr	r2, [r5, #0]
10000c98:	2a00      	cmp	r2, #0
10000c9a:	d0fc      	beq.n	10000c96 <hardware_alarm_irq_handler+0x1e>
10000c9c:	f3bf 8f5f 	dmb	sy
10000ca0:	2201      	movs	r2, #1
10000ca2:	0011      	movs	r1, r2
10000ca4:	4081      	lsls	r1, r0
10000ca6:	4c1d      	ldr	r4, [pc, #116]	; (10000d1c <hardware_alarm_irq_handler+0xa4>)
10000ca8:	4688      	mov	r8, r1
10000caa:	6361      	str	r1, [r4, #52]	; 0x34
10000cac:	491c      	ldr	r1, [pc, #112]	; (10000d20 <hardware_alarm_irq_handler+0xa8>)
10000cae:	0017      	movs	r7, r2
10000cb0:	780e      	ldrb	r6, [r1, #0]
10000cb2:	468a      	mov	sl, r1
10000cb4:	0031      	movs	r1, r6
10000cb6:	40c1      	lsrs	r1, r0
10000cb8:	400f      	ands	r7, r1
10000cba:	420a      	tst	r2, r1
10000cbc:	d015      	beq.n	10000cea <hardware_alarm_irq_handler+0x72>
10000cbe:	4919      	ldr	r1, [pc, #100]	; (10000d24 <hardware_alarm_irq_handler+0xac>)
10000cc0:	0082      	lsls	r2, r0, #2
10000cc2:	6a64      	ldr	r4, [r4, #36]	; 0x24
10000cc4:	5851      	ldr	r1, [r2, r1]
10000cc6:	428c      	cmp	r4, r1
10000cc8:	d319      	bcc.n	10000cfe <hardware_alarm_irq_handler+0x86>
10000cca:	4b17      	ldr	r3, [pc, #92]	; (10000d28 <hardware_alarm_irq_handler+0xb0>)
10000ccc:	58d2      	ldr	r2, [r2, r3]
10000cce:	4643      	mov	r3, r8
10000cd0:	439e      	bics	r6, r3
10000cd2:	4653      	mov	r3, sl
10000cd4:	701e      	strb	r6, [r3, #0]
10000cd6:	f3bf 8f5f 	dmb	sy
10000cda:	2300      	movs	r3, #0
10000cdc:	602b      	str	r3, [r5, #0]
10000cde:	f38c 8810 	msr	PRIMASK, ip
10000ce2:	2a00      	cmp	r2, #0
10000ce4:	d006      	beq.n	10000cf4 <hardware_alarm_irq_handler+0x7c>
10000ce6:	4790      	blx	r2
10000ce8:	e004      	b.n	10000cf4 <hardware_alarm_irq_handler+0x7c>
10000cea:	f3bf 8f5f 	dmb	sy
10000cee:	602f      	str	r7, [r5, #0]
10000cf0:	f38c 8810 	msr	PRIMASK, ip
10000cf4:	bc1c      	pop	{r2, r3, r4}
10000cf6:	4690      	mov	r8, r2
10000cf8:	4699      	mov	r9, r3
10000cfa:	46a2      	mov	sl, r4
10000cfc:	bdf0      	pop	{r4, r5, r6, r7, pc}
10000cfe:	4a0b      	ldr	r2, [pc, #44]	; (10000d2c <hardware_alarm_irq_handler+0xb4>)
10000d00:	009b      	lsls	r3, r3, #2
10000d02:	4690      	mov	r8, r2
10000d04:	4443      	add	r3, r8
10000d06:	681a      	ldr	r2, [r3, #0]
10000d08:	601a      	str	r2, [r3, #0]
10000d0a:	f3bf 8f5f 	dmb	sy
10000d0e:	2300      	movs	r3, #0
10000d10:	602b      	str	r3, [r5, #0]
10000d12:	f38c 8810 	msr	PRIMASK, ip
10000d16:	e7ed      	b.n	10000cf4 <hardware_alarm_irq_handler+0x7c>
10000d18:	d0000128 	.word	0xd0000128
10000d1c:	40054000 	.word	0x40054000
10000d20:	20001956 	.word	0x20001956
10000d24:	20001928 	.word	0x20001928
10000d28:	20001348 	.word	0x20001348
10000d2c:	40053fd0 	.word	0x40053fd0

10000d30 <hardware_alarm_claim>:
10000d30:	b510      	push	{r4, lr}
10000d32:	0001      	movs	r1, r0
10000d34:	4a02      	ldr	r2, [pc, #8]	; (10000d40 <hardware_alarm_claim+0x10>)
10000d36:	4803      	ldr	r0, [pc, #12]	; (10000d44 <hardware_alarm_claim+0x14>)
10000d38:	f7ff fb56 	bl	100003e8 <hw_claim_or_assert>
10000d3c:	bd10      	pop	{r4, pc}
10000d3e:	46c0      	nop			; (mov r8, r8)
10000d40:	10007f3c 	.word	0x10007f3c
10000d44:	20001953 	.word	0x20001953

10000d48 <time_us_64>:
10000d48:	4b03      	ldr	r3, [pc, #12]	; (10000d58 <time_us_64+0x10>)
10000d4a:	6a59      	ldr	r1, [r3, #36]	; 0x24
10000d4c:	000a      	movs	r2, r1
10000d4e:	6a98      	ldr	r0, [r3, #40]	; 0x28
10000d50:	6a59      	ldr	r1, [r3, #36]	; 0x24
10000d52:	428a      	cmp	r2, r1
10000d54:	d1fa      	bne.n	10000d4c <time_us_64+0x4>
10000d56:	4770      	bx	lr
10000d58:	40054000 	.word	0x40054000

10000d5c <hardware_alarm_set_callback>:
10000d5c:	b570      	push	{r4, r5, r6, lr}
10000d5e:	0004      	movs	r4, r0
10000d60:	000d      	movs	r5, r1
10000d62:	f3ef 8610 	mrs	r6, PRIMASK
10000d66:	b672      	cpsid	i
10000d68:	4a1a      	ldr	r2, [pc, #104]	; (10000dd4 <hardware_alarm_set_callback+0x78>)
10000d6a:	6813      	ldr	r3, [r2, #0]
10000d6c:	2b00      	cmp	r3, #0
10000d6e:	d0fc      	beq.n	10000d6a <hardware_alarm_set_callback+0xe>
10000d70:	f3bf 8f5f 	dmb	sy
10000d74:	2d00      	cmp	r5, #0
10000d76:	d01b      	beq.n	10000db0 <hardware_alarm_set_callback+0x54>
10000d78:	0020      	movs	r0, r4
10000d7a:	f000 fd1b 	bl	100017b4 <irq_get_vtable_handler>
10000d7e:	4916      	ldr	r1, [pc, #88]	; (10000dd8 <hardware_alarm_set_callback+0x7c>)
10000d80:	4281      	cmp	r1, r0
10000d82:	d00a      	beq.n	10000d9a <hardware_alarm_set_callback+0x3e>
10000d84:	0020      	movs	r0, r4
10000d86:	f000 fd1d 	bl	100017c4 <irq_set_exclusive_handler>
10000d8a:	2101      	movs	r1, #1
10000d8c:	0020      	movs	r0, r4
10000d8e:	f000 fcf7 	bl	10001780 <irq_set_enabled>
10000d92:	2301      	movs	r3, #1
10000d94:	40a3      	lsls	r3, r4
10000d96:	4a11      	ldr	r2, [pc, #68]	; (10000ddc <hardware_alarm_set_callback+0x80>)
10000d98:	6013      	str	r3, [r2, #0]
10000d9a:	4b11      	ldr	r3, [pc, #68]	; (10000de0 <hardware_alarm_set_callback+0x84>)
10000d9c:	00a4      	lsls	r4, r4, #2
10000d9e:	50e5      	str	r5, [r4, r3]
10000da0:	f3bf 8f5f 	dmb	sy
10000da4:	2200      	movs	r2, #0
10000da6:	4b0b      	ldr	r3, [pc, #44]	; (10000dd4 <hardware_alarm_set_callback+0x78>)
10000da8:	601a      	str	r2, [r3, #0]
10000daa:	f386 8810 	msr	PRIMASK, r6
10000dae:	bd70      	pop	{r4, r5, r6, pc}
10000db0:	4b0b      	ldr	r3, [pc, #44]	; (10000de0 <hardware_alarm_set_callback+0x84>)
10000db2:	00a2      	lsls	r2, r4, #2
10000db4:	50d5      	str	r5, [r2, r3]
10000db6:	2201      	movs	r2, #1
10000db8:	40a2      	lsls	r2, r4
10000dba:	490a      	ldr	r1, [pc, #40]	; (10000de4 <hardware_alarm_set_callback+0x88>)
10000dbc:	0020      	movs	r0, r4
10000dbe:	780b      	ldrb	r3, [r1, #0]
10000dc0:	4393      	bics	r3, r2
10000dc2:	700b      	strb	r3, [r1, #0]
10000dc4:	4904      	ldr	r1, [pc, #16]	; (10000dd8 <hardware_alarm_set_callback+0x7c>)
10000dc6:	f000 fd27 	bl	10001818 <irq_remove_handler>
10000dca:	2100      	movs	r1, #0
10000dcc:	0020      	movs	r0, r4
10000dce:	f000 fcd7 	bl	10001780 <irq_set_enabled>
10000dd2:	e7e5      	b.n	10000da0 <hardware_alarm_set_callback+0x44>
10000dd4:	d0000128 	.word	0xd0000128
10000dd8:	10000c79 	.word	0x10000c79
10000ddc:	40056038 	.word	0x40056038
10000de0:	20001348 	.word	0x20001348
10000de4:	20001956 	.word	0x20001956

10000de8 <hardware_alarm_set_target>:
10000de8:	b5f0      	push	{r4, r5, r6, r7, lr}
10000dea:	464f      	mov	r7, r9
10000dec:	46d6      	mov	lr, sl
10000dee:	4646      	mov	r6, r8
10000df0:	b5c0      	push	{r6, r7, lr}
10000df2:	0007      	movs	r7, r0
10000df4:	4c30      	ldr	r4, [pc, #192]	; (10000eb8 <hardware_alarm_set_target+0xd0>)
10000df6:	6a61      	ldr	r1, [r4, #36]	; 0x24
10000df8:	000d      	movs	r5, r1
10000dfa:	6aa6      	ldr	r6, [r4, #40]	; 0x28
10000dfc:	6a61      	ldr	r1, [r4, #36]	; 0x24
10000dfe:	42a9      	cmp	r1, r5
10000e00:	d1fa      	bne.n	10000df8 <hardware_alarm_set_target+0x10>
10000e02:	428b      	cmp	r3, r1
10000e04:	d808      	bhi.n	10000e18 <hardware_alarm_set_target+0x30>
10000e06:	d005      	beq.n	10000e14 <hardware_alarm_set_target+0x2c>
10000e08:	2001      	movs	r0, #1
10000e0a:	bc1c      	pop	{r2, r3, r4}
10000e0c:	4690      	mov	r8, r2
10000e0e:	4699      	mov	r9, r3
10000e10:	46a2      	mov	sl, r4
10000e12:	bdf0      	pop	{r4, r5, r6, r7, pc}
10000e14:	42b2      	cmp	r2, r6
10000e16:	d9f7      	bls.n	10000e08 <hardware_alarm_set_target+0x20>
10000e18:	f3ef 8910 	mrs	r9, PRIMASK
10000e1c:	b672      	cpsid	i
10000e1e:	4827      	ldr	r0, [pc, #156]	; (10000ebc <hardware_alarm_set_target+0xd4>)
10000e20:	6801      	ldr	r1, [r0, #0]
10000e22:	2900      	cmp	r1, #0
10000e24:	d0fc      	beq.n	10000e20 <hardware_alarm_set_target+0x38>
10000e26:	f3bf 8f5f 	dmb	sy
10000e2a:	2501      	movs	r5, #1
10000e2c:	4924      	ldr	r1, [pc, #144]	; (10000ec0 <hardware_alarm_set_target+0xd8>)
10000e2e:	40bd      	lsls	r5, r7
10000e30:	468c      	mov	ip, r1
10000e32:	7809      	ldrb	r1, [r1, #0]
10000e34:	4c20      	ldr	r4, [pc, #128]	; (10000eb8 <hardware_alarm_set_target+0xd0>)
10000e36:	000e      	movs	r6, r1
10000e38:	432e      	orrs	r6, r5
10000e3a:	4688      	mov	r8, r1
10000e3c:	b2f1      	uxtb	r1, r6
10000e3e:	468a      	mov	sl, r1
10000e40:	4661      	mov	r1, ip
10000e42:	4650      	mov	r0, sl
10000e44:	7008      	strb	r0, [r1, #0]
10000e46:	1d39      	adds	r1, r7, #4
10000e48:	481e      	ldr	r0, [pc, #120]	; (10000ec4 <hardware_alarm_set_target+0xdc>)
10000e4a:	0089      	lsls	r1, r1, #2
10000e4c:	6365      	str	r5, [r4, #52]	; 0x34
10000e4e:	510a      	str	r2, [r1, r4]
10000e50:	00b9      	lsls	r1, r7, #2
10000e52:	500b      	str	r3, [r1, r0]
10000e54:	6a21      	ldr	r1, [r4, #32]
10000e56:	2000      	movs	r0, #0
10000e58:	4229      	tst	r1, r5
10000e5a:	d019      	beq.n	10000e90 <hardware_alarm_set_target+0xa8>
10000e5c:	6a61      	ldr	r1, [r4, #36]	; 0x24
10000e5e:	0008      	movs	r0, r1
10000e60:	6aa6      	ldr	r6, [r4, #40]	; 0x28
10000e62:	6a61      	ldr	r1, [r4, #36]	; 0x24
10000e64:	4281      	cmp	r1, r0
10000e66:	d1fa      	bne.n	10000e5e <hardware_alarm_set_target+0x76>
10000e68:	428b      	cmp	r3, r1
10000e6a:	d819      	bhi.n	10000ea0 <hardware_alarm_set_target+0xb8>
10000e6c:	d101      	bne.n	10000e72 <hardware_alarm_set_target+0x8a>
10000e6e:	42b2      	cmp	r2, r6
10000e70:	d816      	bhi.n	10000ea0 <hardware_alarm_set_target+0xb8>
10000e72:	45c2      	cmp	sl, r8
10000e74:	d01d      	beq.n	10000eb2 <hardware_alarm_set_target+0xca>
10000e76:	4b10      	ldr	r3, [pc, #64]	; (10000eb8 <hardware_alarm_set_target+0xd0>)
10000e78:	201f      	movs	r0, #31
10000e7a:	621d      	str	r5, [r3, #32]
10000e7c:	635d      	str	r5, [r3, #52]	; 0x34
10000e7e:	2301      	movs	r3, #1
10000e80:	4007      	ands	r7, r0
10000e82:	40bb      	lsls	r3, r7
10000e84:	4a10      	ldr	r2, [pc, #64]	; (10000ec8 <hardware_alarm_set_target+0xe0>)
10000e86:	381e      	subs	r0, #30
10000e88:	6013      	str	r3, [r2, #0]
10000e8a:	4663      	mov	r3, ip
10000e8c:	4642      	mov	r2, r8
10000e8e:	701a      	strb	r2, [r3, #0]
10000e90:	f3bf 8f5f 	dmb	sy
10000e94:	2200      	movs	r2, #0
10000e96:	4b09      	ldr	r3, [pc, #36]	; (10000ebc <hardware_alarm_set_target+0xd4>)
10000e98:	601a      	str	r2, [r3, #0]
10000e9a:	f389 8810 	msr	PRIMASK, r9
10000e9e:	e7b4      	b.n	10000e0a <hardware_alarm_set_target+0x22>
10000ea0:	2000      	movs	r0, #0
10000ea2:	f3bf 8f5f 	dmb	sy
10000ea6:	2200      	movs	r2, #0
10000ea8:	4b04      	ldr	r3, [pc, #16]	; (10000ebc <hardware_alarm_set_target+0xd4>)
10000eaa:	601a      	str	r2, [r3, #0]
10000eac:	f389 8810 	msr	PRIMASK, r9
10000eb0:	e7ab      	b.n	10000e0a <hardware_alarm_set_target+0x22>
10000eb2:	2001      	movs	r0, #1
10000eb4:	e7ec      	b.n	10000e90 <hardware_alarm_set_target+0xa8>
10000eb6:	46c0      	nop			; (mov r8, r8)
10000eb8:	40054000 	.word	0x40054000
10000ebc:	d0000128 	.word	0xd0000128
10000ec0:	20001956 	.word	0x20001956
10000ec4:	20001928 	.word	0x20001928
10000ec8:	e000e280 	.word	0xe000e280

10000ecc <hardware_alarm_cancel>:
10000ecc:	b510      	push	{r4, lr}
10000ece:	f3ef 8410 	mrs	r4, PRIMASK
10000ed2:	b672      	cpsid	i
10000ed4:	490a      	ldr	r1, [pc, #40]	; (10000f00 <hardware_alarm_cancel+0x34>)
10000ed6:	680b      	ldr	r3, [r1, #0]
10000ed8:	2b00      	cmp	r3, #0
10000eda:	d0fc      	beq.n	10000ed6 <hardware_alarm_cancel+0xa>
10000edc:	f3bf 8f5f 	dmb	sy
10000ee0:	2301      	movs	r3, #1
10000ee2:	4083      	lsls	r3, r0
10000ee4:	4a07      	ldr	r2, [pc, #28]	; (10000f04 <hardware_alarm_cancel+0x38>)
10000ee6:	4808      	ldr	r0, [pc, #32]	; (10000f08 <hardware_alarm_cancel+0x3c>)
10000ee8:	6213      	str	r3, [r2, #32]
10000eea:	7802      	ldrb	r2, [r0, #0]
10000eec:	439a      	bics	r2, r3
10000eee:	7002      	strb	r2, [r0, #0]
10000ef0:	f3bf 8f5f 	dmb	sy
10000ef4:	2300      	movs	r3, #0
10000ef6:	600b      	str	r3, [r1, #0]
10000ef8:	f384 8810 	msr	PRIMASK, r4
10000efc:	bd10      	pop	{r4, pc}
10000efe:	46c0      	nop			; (mov r8, r8)
10000f00:	d0000128 	.word	0xd0000128
10000f04:	40054000 	.word	0x40054000
10000f08:	20001956 	.word	0x20001956

10000f0c <lock_init>:
10000f0c:	4b02      	ldr	r3, [pc, #8]	; (10000f18 <lock_init+0xc>)
10000f0e:	469c      	mov	ip, r3
10000f10:	4461      	add	r1, ip
10000f12:	0089      	lsls	r1, r1, #2
10000f14:	6001      	str	r1, [r0, #0]
10000f16:	4770      	bx	lr
10000f18:	34000040 	.word	0x34000040

10000f1c <mutex_init>:
10000f1c:	b510      	push	{r4, lr}
10000f1e:	0004      	movs	r4, r0
10000f20:	f7ff faea 	bl	100004f8 <next_striped_spin_lock_num>
10000f24:	0001      	movs	r1, r0
10000f26:	0020      	movs	r0, r4
10000f28:	f7ff fff0 	bl	10000f0c <lock_init>
10000f2c:	23ff      	movs	r3, #255	; 0xff
10000f2e:	80a3      	strh	r3, [r4, #4]
10000f30:	f3bf 8f5f 	dmb	sy
10000f34:	bd10      	pop	{r4, pc}
10000f36:	46c0      	nop			; (mov r8, r8)

10000f38 <recursive_mutex_init>:
10000f38:	b510      	push	{r4, lr}
10000f3a:	0004      	movs	r4, r0
10000f3c:	f7ff fadc 	bl	100004f8 <next_striped_spin_lock_num>
10000f40:	0001      	movs	r1, r0
10000f42:	0020      	movs	r0, r4
10000f44:	f7ff ffe2 	bl	10000f0c <lock_init>
10000f48:	2301      	movs	r3, #1
10000f4a:	425b      	negs	r3, r3
10000f4c:	80a3      	strh	r3, [r4, #4]
10000f4e:	f3bf 8f5f 	dmb	sy
10000f52:	bd10      	pop	{r4, pc}

10000f54 <critical_section_init>:
10000f54:	b510      	push	{r4, lr}
10000f56:	0004      	movs	r4, r0
10000f58:	2001      	movs	r0, #1
10000f5a:	f7ff fad9 	bl	10000510 <spin_lock_claim_unused>
10000f5e:	4b03      	ldr	r3, [pc, #12]	; (10000f6c <critical_section_init+0x18>)
10000f60:	18c3      	adds	r3, r0, r3
10000f62:	009b      	lsls	r3, r3, #2
10000f64:	6023      	str	r3, [r4, #0]
10000f66:	f3bf 8f5f 	dmb	sy
10000f6a:	bd10      	pop	{r4, pc}
10000f6c:	34000040 	.word	0x34000040

10000f70 <ph_merge_nodes>:
10000f70:	b570      	push	{r4, r5, r6, lr}
10000f72:	0005      	movs	r5, r0
10000f74:	000e      	movs	r6, r1
10000f76:	0014      	movs	r4, r2
10000f78:	2900      	cmp	r1, #0
10000f7a:	d024      	beq.n	10000fc6 <ph_merge_nodes+0x56>
10000f7c:	2a00      	cmp	r2, #0
10000f7e:	d024      	beq.n	10000fca <ph_merge_nodes+0x5a>
10000f80:	6880      	ldr	r0, [r0, #8]
10000f82:	686b      	ldr	r3, [r5, #4]
10000f84:	4798      	blx	r3
10000f86:	6829      	ldr	r1, [r5, #0]
10000f88:	2800      	cmp	r0, #0
10000f8a:	d00e      	beq.n	10000faa <ph_merge_nodes+0x3a>
10000f8c:	0063      	lsls	r3, r4, #1
10000f8e:	191b      	adds	r3, r3, r4
10000f90:	0072      	lsls	r2, r6, #1
10000f92:	3b03      	subs	r3, #3
10000f94:	1992      	adds	r2, r2, r6
10000f96:	18cb      	adds	r3, r1, r3
10000f98:	3a03      	subs	r2, #3
10000f9a:	709e      	strb	r6, [r3, #2]
10000f9c:	1888      	adds	r0, r1, r2
10000f9e:	5c8a      	ldrb	r2, [r1, r2]
10000fa0:	2a00      	cmp	r2, #0
10000fa2:	d114      	bne.n	10000fce <ph_merge_nodes+0x5e>
10000fa4:	7004      	strb	r4, [r0, #0]
10000fa6:	0030      	movs	r0, r6
10000fa8:	e00e      	b.n	10000fc8 <ph_merge_nodes+0x58>
10000faa:	0073      	lsls	r3, r6, #1
10000fac:	199b      	adds	r3, r3, r6
10000fae:	0062      	lsls	r2, r4, #1
10000fb0:	3b03      	subs	r3, #3
10000fb2:	1912      	adds	r2, r2, r4
10000fb4:	18cb      	adds	r3, r1, r3
10000fb6:	3a03      	subs	r2, #3
10000fb8:	709c      	strb	r4, [r3, #2]
10000fba:	1888      	adds	r0, r1, r2
10000fbc:	5c8a      	ldrb	r2, [r1, r2]
10000fbe:	2a00      	cmp	r2, #0
10000fc0:	d000      	beq.n	10000fc4 <ph_merge_nodes+0x54>
10000fc2:	705a      	strb	r2, [r3, #1]
10000fc4:	7006      	strb	r6, [r0, #0]
10000fc6:	0020      	movs	r0, r4
10000fc8:	bd70      	pop	{r4, r5, r6, pc}
10000fca:	0008      	movs	r0, r1
10000fcc:	e7fc      	b.n	10000fc8 <ph_merge_nodes+0x58>
10000fce:	705a      	strb	r2, [r3, #1]
10000fd0:	7004      	strb	r4, [r0, #0]
10000fd2:	0030      	movs	r0, r6
10000fd4:	e7f8      	b.n	10000fc8 <ph_merge_nodes+0x58>
10000fd6:	46c0      	nop			; (mov r8, r8)

10000fd8 <ph_post_alloc_init>:
10000fd8:	b530      	push	{r4, r5, lr}
10000fda:	6083      	str	r3, [r0, #8]
10000fdc:	2300      	movs	r3, #0
10000fde:	b2cc      	uxtb	r4, r1
10000fe0:	7343      	strb	r3, [r0, #13]
10000fe2:	3301      	adds	r3, #1
10000fe4:	7304      	strb	r4, [r0, #12]
10000fe6:	6042      	str	r2, [r0, #4]
10000fe8:	7383      	strb	r3, [r0, #14]
10000fea:	73c4      	strb	r4, [r0, #15]
10000fec:	000d      	movs	r5, r1
10000fee:	6800      	ldr	r0, [r0, #0]
10000ff0:	2c01      	cmp	r4, #1
10000ff2:	d906      	bls.n	10001002 <ph_post_alloc_init+0x2a>
10000ff4:	1c42      	adds	r2, r0, #1
10000ff6:	3301      	adds	r3, #1
10000ff8:	b2db      	uxtb	r3, r3
10000ffa:	7013      	strb	r3, [r2, #0]
10000ffc:	3203      	adds	r2, #3
10000ffe:	429c      	cmp	r4, r3
10001000:	d1f9      	bne.n	10000ff6 <ph_post_alloc_init+0x1e>
10001002:	21ff      	movs	r1, #255	; 0xff
10001004:	4029      	ands	r1, r5
10001006:	004b      	lsls	r3, r1, #1
10001008:	1859      	adds	r1, r3, r1
1000100a:	2300      	movs	r3, #0
1000100c:	1840      	adds	r0, r0, r1
1000100e:	3803      	subs	r0, #3
10001010:	7043      	strb	r3, [r0, #1]
10001012:	bd30      	pop	{r4, r5, pc}

10001014 <ph_merge_two_pass>:
10001014:	b5f8      	push	{r3, r4, r5, r6, r7, lr}
10001016:	46ce      	mov	lr, r9
10001018:	4647      	mov	r7, r8
1000101a:	0006      	movs	r6, r0
1000101c:	000c      	movs	r4, r1
1000101e:	b580      	push	{r7, lr}
10001020:	2900      	cmp	r1, #0
10001022:	d007      	beq.n	10001034 <ph_merge_two_pass+0x20>
10001024:	004d      	lsls	r5, r1, #1
10001026:	6803      	ldr	r3, [r0, #0]
10001028:	186d      	adds	r5, r5, r1
1000102a:	3d03      	subs	r5, #3
1000102c:	195a      	adds	r2, r3, r5
1000102e:	7857      	ldrb	r7, [r2, #1]
10001030:	2f00      	cmp	r7, #0
10001032:	d104      	bne.n	1000103e <ph_merge_two_pass+0x2a>
10001034:	0020      	movs	r0, r4
10001036:	bc0c      	pop	{r2, r3}
10001038:	4690      	mov	r8, r2
1000103a:	4699      	mov	r9, r3
1000103c:	bdf8      	pop	{r3, r4, r5, r6, r7, pc}
1000103e:	0079      	lsls	r1, r7, #1
10001040:	19c9      	adds	r1, r1, r7
10001042:	3903      	subs	r1, #3
10001044:	4688      	mov	r8, r1
10001046:	4443      	add	r3, r8
10001048:	7859      	ldrb	r1, [r3, #1]
1000104a:	4689      	mov	r9, r1
1000104c:	2100      	movs	r1, #0
1000104e:	7059      	strb	r1, [r3, #1]
10001050:	7051      	strb	r1, [r2, #1]
10001052:	6873      	ldr	r3, [r6, #4]
10001054:	003a      	movs	r2, r7
10001056:	0021      	movs	r1, r4
10001058:	6880      	ldr	r0, [r0, #8]
1000105a:	4798      	blx	r3
1000105c:	6833      	ldr	r3, [r6, #0]
1000105e:	2800      	cmp	r0, #0
10001060:	d014      	beq.n	1000108c <ph_merge_two_pass+0x78>
10001062:	4642      	mov	r2, r8
10001064:	189a      	adds	r2, r3, r2
10001066:	7094      	strb	r4, [r2, #2]
10001068:	1959      	adds	r1, r3, r5
1000106a:	5d5b      	ldrb	r3, [r3, r5]
1000106c:	2b00      	cmp	r3, #0
1000106e:	d000      	beq.n	10001072 <ph_merge_two_pass+0x5e>
10001070:	7053      	strb	r3, [r2, #1]
10001072:	700f      	strb	r7, [r1, #0]
10001074:	0027      	movs	r7, r4
10001076:	4649      	mov	r1, r9
10001078:	0030      	movs	r0, r6
1000107a:	f7ff ffcb 	bl	10001014 <ph_merge_two_pass>
1000107e:	0039      	movs	r1, r7
10001080:	0002      	movs	r2, r0
10001082:	0030      	movs	r0, r6
10001084:	f7ff ff74 	bl	10000f70 <ph_merge_nodes>
10001088:	0004      	movs	r4, r0
1000108a:	e7d3      	b.n	10001034 <ph_merge_two_pass+0x20>
1000108c:	4642      	mov	r2, r8
1000108e:	4641      	mov	r1, r8
10001090:	195d      	adds	r5, r3, r5
10001092:	70af      	strb	r7, [r5, #2]
10001094:	189a      	adds	r2, r3, r2
10001096:	5c5b      	ldrb	r3, [r3, r1]
10001098:	2b00      	cmp	r3, #0
1000109a:	d000      	beq.n	1000109e <ph_merge_two_pass+0x8a>
1000109c:	706b      	strb	r3, [r5, #1]
1000109e:	7014      	strb	r4, [r2, #0]
100010a0:	e7e9      	b.n	10001076 <ph_merge_two_pass+0x62>
100010a2:	46c0      	nop			; (mov r8, r8)

100010a4 <ph_remove_any_head>:
100010a4:	b5f0      	push	{r4, r5, r6, r7, lr}
100010a6:	4657      	mov	r7, sl
100010a8:	4645      	mov	r5, r8
100010aa:	46de      	mov	lr, fp
100010ac:	464e      	mov	r6, r9
100010ae:	b5e0      	push	{r5, r6, r7, lr}
100010b0:	000d      	movs	r5, r1
100010b2:	006b      	lsls	r3, r5, #1
100010b4:	6801      	ldr	r1, [r0, #0]
100010b6:	195b      	adds	r3, r3, r5
100010b8:	1edf      	subs	r7, r3, #3
100010ba:	0004      	movs	r4, r0
100010bc:	5dc8      	ldrb	r0, [r1, r7]
100010be:	b083      	sub	sp, #12
100010c0:	9201      	str	r2, [sp, #4]
100010c2:	19ca      	adds	r2, r1, r7
100010c4:	2800      	cmp	r0, #0
100010c6:	d04c      	beq.n	10001162 <ph_remove_any_head+0xbe>
100010c8:	0043      	lsls	r3, r0, #1
100010ca:	181b      	adds	r3, r3, r0
100010cc:	3b03      	subs	r3, #3
100010ce:	18cb      	adds	r3, r1, r3
100010d0:	785e      	ldrb	r6, [r3, #1]
100010d2:	46b4      	mov	ip, r6
100010d4:	2e00      	cmp	r6, #0
100010d6:	d116      	bne.n	10001106 <ph_remove_any_head+0x62>
100010d8:	9e01      	ldr	r6, [sp, #4]
100010da:	2e00      	cmp	r6, #0
100010dc:	d03e      	beq.n	1000115c <ph_remove_any_head+0xb8>
100010de:	7be6      	ldrb	r6, [r4, #15]
100010e0:	2e00      	cmp	r6, #0
100010e2:	d004      	beq.n	100010ee <ph_remove_any_head+0x4a>
100010e4:	0073      	lsls	r3, r6, #1
100010e6:	199b      	adds	r3, r3, r6
100010e8:	18cb      	adds	r3, r1, r3
100010ea:	3b03      	subs	r3, #3
100010ec:	705d      	strb	r5, [r3, #1]
100010ee:	73e5      	strb	r5, [r4, #15]
100010f0:	2800      	cmp	r0, #0
100010f2:	d12f      	bne.n	10001154 <ph_remove_any_head+0xb0>
100010f4:	2300      	movs	r3, #0
100010f6:	7053      	strb	r3, [r2, #1]
100010f8:	b003      	add	sp, #12
100010fa:	bc3c      	pop	{r2, r3, r4, r5}
100010fc:	4690      	mov	r8, r2
100010fe:	4699      	mov	r9, r3
10001100:	46a2      	mov	sl, r4
10001102:	46ab      	mov	fp, r5
10001104:	bdf0      	pop	{r4, r5, r6, r7, pc}
10001106:	0072      	lsls	r2, r6, #1
10001108:	4462      	add	r2, ip
1000110a:	3a03      	subs	r2, #3
1000110c:	1889      	adds	r1, r1, r2
1000110e:	784a      	ldrb	r2, [r1, #1]
10001110:	4690      	mov	r8, r2
10001112:	2200      	movs	r2, #0
10001114:	704a      	strb	r2, [r1, #1]
10001116:	4691      	mov	r9, r2
10001118:	705a      	strb	r2, [r3, #1]
1000111a:	0001      	movs	r1, r0
1000111c:	0032      	movs	r2, r6
1000111e:	0020      	movs	r0, r4
10001120:	f7ff ff26 	bl	10000f70 <ph_merge_nodes>
10001124:	4643      	mov	r3, r8
10001126:	4682      	mov	sl, r0
10001128:	2b00      	cmp	r3, #0
1000112a:	d007      	beq.n	1000113c <ph_remove_any_head+0x98>
1000112c:	005b      	lsls	r3, r3, #1
1000112e:	6821      	ldr	r1, [r4, #0]
10001130:	4443      	add	r3, r8
10001132:	3b03      	subs	r3, #3
10001134:	18cb      	adds	r3, r1, r3
10001136:	785a      	ldrb	r2, [r3, #1]
10001138:	2a00      	cmp	r2, #0
1000113a:	d116      	bne.n	1000116a <ph_remove_any_head+0xc6>
1000113c:	4642      	mov	r2, r8
1000113e:	4651      	mov	r1, sl
10001140:	0020      	movs	r0, r4
10001142:	f7ff ff15 	bl	10000f70 <ph_merge_nodes>
10001146:	6821      	ldr	r1, [r4, #0]
10001148:	9b01      	ldr	r3, [sp, #4]
1000114a:	19ca      	adds	r2, r1, r7
1000114c:	2b00      	cmp	r3, #0
1000114e:	d1c6      	bne.n	100010de <ph_remove_any_head+0x3a>
10001150:	2800      	cmp	r0, #0
10001152:	d0cf      	beq.n	100010f4 <ph_remove_any_head+0x50>
10001154:	0043      	lsls	r3, r0, #1
10001156:	181b      	adds	r3, r3, r0
10001158:	3b03      	subs	r3, #3
1000115a:	18cb      	adds	r3, r1, r3
1000115c:	2100      	movs	r1, #0
1000115e:	7099      	strb	r1, [r3, #2]
10001160:	e7c8      	b.n	100010f4 <ph_remove_any_head+0x50>
10001162:	9b01      	ldr	r3, [sp, #4]
10001164:	2b00      	cmp	r3, #0
10001166:	d1ba      	bne.n	100010de <ph_remove_any_head+0x3a>
10001168:	e7c4      	b.n	100010f4 <ph_remove_any_head+0x50>
1000116a:	0050      	lsls	r0, r2, #1
1000116c:	1880      	adds	r0, r0, r2
1000116e:	3803      	subs	r0, #3
10001170:	1809      	adds	r1, r1, r0
10001172:	7848      	ldrb	r0, [r1, #1]
10001174:	4683      	mov	fp, r0
10001176:	4648      	mov	r0, r9
10001178:	7048      	strb	r0, [r1, #1]
1000117a:	7058      	strb	r0, [r3, #1]
1000117c:	4641      	mov	r1, r8
1000117e:	0020      	movs	r0, r4
10001180:	f7ff fef6 	bl	10000f70 <ph_merge_nodes>
10001184:	4659      	mov	r1, fp
10001186:	4680      	mov	r8, r0
10001188:	0020      	movs	r0, r4
1000118a:	f7ff ff43 	bl	10001014 <ph_merge_two_pass>
1000118e:	4641      	mov	r1, r8
10001190:	0002      	movs	r2, r0
10001192:	0020      	movs	r0, r4
10001194:	f7ff feec 	bl	10000f70 <ph_merge_nodes>
10001198:	4680      	mov	r8, r0
1000119a:	e7cf      	b.n	1000113c <ph_remove_any_head+0x98>

1000119c <ph_remove_head>:
1000119c:	b5f0      	push	{r4, r5, r6, r7, lr}
1000119e:	464e      	mov	r6, r9
100011a0:	4645      	mov	r5, r8
100011a2:	46de      	mov	lr, fp
100011a4:	4657      	mov	r7, sl
100011a6:	b5e0      	push	{r5, r6, r7, lr}
100011a8:	7b46      	ldrb	r6, [r0, #13]
100011aa:	0004      	movs	r4, r0
100011ac:	0075      	lsls	r5, r6, #1
100011ae:	6800      	ldr	r0, [r0, #0]
100011b0:	19ad      	adds	r5, r5, r6
100011b2:	3d03      	subs	r5, #3
100011b4:	b083      	sub	sp, #12
100011b6:	9101      	str	r1, [sp, #4]
100011b8:	5d41      	ldrb	r1, [r0, r5]
100011ba:	1942      	adds	r2, r0, r5
100011bc:	2900      	cmp	r1, #0
100011be:	d04e      	beq.n	1000125e <ph_remove_head+0xc2>
100011c0:	004b      	lsls	r3, r1, #1
100011c2:	185b      	adds	r3, r3, r1
100011c4:	3b03      	subs	r3, #3
100011c6:	18c3      	adds	r3, r0, r3
100011c8:	785f      	ldrb	r7, [r3, #1]
100011ca:	46bc      	mov	ip, r7
100011cc:	2f00      	cmp	r7, #0
100011ce:	d118      	bne.n	10001202 <ph_remove_head+0x66>
100011d0:	9d01      	ldr	r5, [sp, #4]
100011d2:	2d00      	cmp	r5, #0
100011d4:	d040      	beq.n	10001258 <ph_remove_head+0xbc>
100011d6:	7be5      	ldrb	r5, [r4, #15]
100011d8:	2d00      	cmp	r5, #0
100011da:	d004      	beq.n	100011e6 <ph_remove_head+0x4a>
100011dc:	006b      	lsls	r3, r5, #1
100011de:	195b      	adds	r3, r3, r5
100011e0:	18c3      	adds	r3, r0, r3
100011e2:	3b03      	subs	r3, #3
100011e4:	705e      	strb	r6, [r3, #1]
100011e6:	73e6      	strb	r6, [r4, #15]
100011e8:	2900      	cmp	r1, #0
100011ea:	d131      	bne.n	10001250 <ph_remove_head+0xb4>
100011ec:	2300      	movs	r3, #0
100011ee:	0030      	movs	r0, r6
100011f0:	7053      	strb	r3, [r2, #1]
100011f2:	7361      	strb	r1, [r4, #13]
100011f4:	b003      	add	sp, #12
100011f6:	bc3c      	pop	{r2, r3, r4, r5}
100011f8:	4690      	mov	r8, r2
100011fa:	4699      	mov	r9, r3
100011fc:	46a2      	mov	sl, r4
100011fe:	46ab      	mov	fp, r5
10001200:	bdf0      	pop	{r4, r5, r6, r7, pc}
10001202:	007a      	lsls	r2, r7, #1
10001204:	4462      	add	r2, ip
10001206:	3a03      	subs	r2, #3
10001208:	1880      	adds	r0, r0, r2
1000120a:	7842      	ldrb	r2, [r0, #1]
1000120c:	4693      	mov	fp, r2
1000120e:	2200      	movs	r2, #0
10001210:	7042      	strb	r2, [r0, #1]
10001212:	4691      	mov	r9, r2
10001214:	705a      	strb	r2, [r3, #1]
10001216:	0020      	movs	r0, r4
10001218:	003a      	movs	r2, r7
1000121a:	f7ff fea9 	bl	10000f70 <ph_merge_nodes>
1000121e:	465b      	mov	r3, fp
10001220:	4680      	mov	r8, r0
10001222:	2b00      	cmp	r3, #0
10001224:	d007      	beq.n	10001236 <ph_remove_head+0x9a>
10001226:	005b      	lsls	r3, r3, #1
10001228:	6821      	ldr	r1, [r4, #0]
1000122a:	445b      	add	r3, fp
1000122c:	3b03      	subs	r3, #3
1000122e:	18cb      	adds	r3, r1, r3
10001230:	785a      	ldrb	r2, [r3, #1]
10001232:	2a00      	cmp	r2, #0
10001234:	d117      	bne.n	10001266 <ph_remove_head+0xca>
10001236:	465a      	mov	r2, fp
10001238:	4641      	mov	r1, r8
1000123a:	0020      	movs	r0, r4
1000123c:	f7ff fe98 	bl	10000f70 <ph_merge_nodes>
10001240:	9b01      	ldr	r3, [sp, #4]
10001242:	0001      	movs	r1, r0
10001244:	6820      	ldr	r0, [r4, #0]
10001246:	1942      	adds	r2, r0, r5
10001248:	2b00      	cmp	r3, #0
1000124a:	d1c4      	bne.n	100011d6 <ph_remove_head+0x3a>
1000124c:	2900      	cmp	r1, #0
1000124e:	d0cd      	beq.n	100011ec <ph_remove_head+0x50>
10001250:	004b      	lsls	r3, r1, #1
10001252:	185b      	adds	r3, r3, r1
10001254:	3b03      	subs	r3, #3
10001256:	18c3      	adds	r3, r0, r3
10001258:	2000      	movs	r0, #0
1000125a:	7098      	strb	r0, [r3, #2]
1000125c:	e7c6      	b.n	100011ec <ph_remove_head+0x50>
1000125e:	9b01      	ldr	r3, [sp, #4]
10001260:	2b00      	cmp	r3, #0
10001262:	d1b8      	bne.n	100011d6 <ph_remove_head+0x3a>
10001264:	e7c2      	b.n	100011ec <ph_remove_head+0x50>
10001266:	0050      	lsls	r0, r2, #1
10001268:	1880      	adds	r0, r0, r2
1000126a:	3803      	subs	r0, #3
1000126c:	1809      	adds	r1, r1, r0
1000126e:	7848      	ldrb	r0, [r1, #1]
10001270:	4682      	mov	sl, r0
10001272:	4648      	mov	r0, r9
10001274:	7048      	strb	r0, [r1, #1]
10001276:	7058      	strb	r0, [r3, #1]
10001278:	4659      	mov	r1, fp
1000127a:	0020      	movs	r0, r4
1000127c:	f7ff fe78 	bl	10000f70 <ph_merge_nodes>
10001280:	4653      	mov	r3, sl
10001282:	4683      	mov	fp, r0
10001284:	2b00      	cmp	r3, #0
10001286:	d007      	beq.n	10001298 <ph_remove_head+0xfc>
10001288:	005b      	lsls	r3, r3, #1
1000128a:	6821      	ldr	r1, [r4, #0]
1000128c:	4453      	add	r3, sl
1000128e:	3b03      	subs	r3, #3
10001290:	18cb      	adds	r3, r1, r3
10001292:	785a      	ldrb	r2, [r3, #1]
10001294:	2a00      	cmp	r2, #0
10001296:	d106      	bne.n	100012a6 <ph_remove_head+0x10a>
10001298:	4659      	mov	r1, fp
1000129a:	4652      	mov	r2, sl
1000129c:	0020      	movs	r0, r4
1000129e:	f7ff fe67 	bl	10000f70 <ph_merge_nodes>
100012a2:	4683      	mov	fp, r0
100012a4:	e7c7      	b.n	10001236 <ph_remove_head+0x9a>
100012a6:	0050      	lsls	r0, r2, #1
100012a8:	1880      	adds	r0, r0, r2
100012aa:	3803      	subs	r0, #3
100012ac:	1809      	adds	r1, r1, r0
100012ae:	4648      	mov	r0, r9
100012b0:	784f      	ldrb	r7, [r1, #1]
100012b2:	7048      	strb	r0, [r1, #1]
100012b4:	7058      	strb	r0, [r3, #1]
100012b6:	4651      	mov	r1, sl
100012b8:	0020      	movs	r0, r4
100012ba:	f7ff fe59 	bl	10000f70 <ph_merge_nodes>
100012be:	0039      	movs	r1, r7
100012c0:	4681      	mov	r9, r0
100012c2:	0020      	movs	r0, r4
100012c4:	f7ff fea6 	bl	10001014 <ph_merge_two_pass>
100012c8:	4649      	mov	r1, r9
100012ca:	0002      	movs	r2, r0
100012cc:	0020      	movs	r0, r4
100012ce:	f7ff fe4f 	bl	10000f70 <ph_merge_nodes>
100012d2:	4682      	mov	sl, r0
100012d4:	e7e0      	b.n	10001298 <ph_remove_head+0xfc>
100012d6:	46c0      	nop			; (mov r8, r8)

100012d8 <ph_remove_and_free_node>:
100012d8:	b570      	push	{r4, r5, r6, lr}
100012da:	0004      	movs	r4, r0
100012dc:	2900      	cmp	r1, #0
100012de:	d02c      	beq.n	1000133a <ph_remove_and_free_node+0x62>
100012e0:	7b43      	ldrb	r3, [r0, #13]
100012e2:	428b      	cmp	r3, r1
100012e4:	d02e      	beq.n	10001344 <ph_remove_and_free_node+0x6c>
100012e6:	6805      	ldr	r5, [r0, #0]
100012e8:	0048      	lsls	r0, r1, #1
100012ea:	1840      	adds	r0, r0, r1
100012ec:	3803      	subs	r0, #3
100012ee:	1828      	adds	r0, r5, r0
100012f0:	7882      	ldrb	r2, [r0, #2]
100012f2:	2a00      	cmp	r2, #0
100012f4:	d021      	beq.n	1000133a <ph_remove_and_free_node+0x62>
100012f6:	0053      	lsls	r3, r2, #1
100012f8:	189b      	adds	r3, r3, r2
100012fa:	3b03      	subs	r3, #3
100012fc:	5cea      	ldrb	r2, [r5, r3]
100012fe:	18ee      	adds	r6, r5, r3
10001300:	428a      	cmp	r2, r1
10001302:	d102      	bne.n	1000130a <ph_remove_and_free_node+0x32>
10001304:	e01b      	b.n	1000133e <ph_remove_and_free_node+0x66>
10001306:	2a00      	cmp	r2, #0
10001308:	d008      	beq.n	1000131c <ph_remove_and_free_node+0x44>
1000130a:	0053      	lsls	r3, r2, #1
1000130c:	189b      	adds	r3, r3, r2
1000130e:	3b03      	subs	r3, #3
10001310:	18eb      	adds	r3, r5, r3
10001312:	785a      	ldrb	r2, [r3, #1]
10001314:	428a      	cmp	r2, r1
10001316:	d1f6      	bne.n	10001306 <ph_remove_and_free_node+0x2e>
10001318:	7842      	ldrb	r2, [r0, #1]
1000131a:	705a      	strb	r2, [r3, #1]
1000131c:	2300      	movs	r3, #0
1000131e:	2201      	movs	r2, #1
10001320:	7083      	strb	r3, [r0, #2]
10001322:	7043      	strb	r3, [r0, #1]
10001324:	0020      	movs	r0, r4
10001326:	f7ff febd 	bl	100010a4 <ph_remove_any_head>
1000132a:	7b61      	ldrb	r1, [r4, #13]
1000132c:	0002      	movs	r2, r0
1000132e:	0020      	movs	r0, r4
10001330:	f7ff fe1e 	bl	10000f70 <ph_merge_nodes>
10001334:	7360      	strb	r0, [r4, #13]
10001336:	2001      	movs	r0, #1
10001338:	e000      	b.n	1000133c <ph_remove_and_free_node+0x64>
1000133a:	2000      	movs	r0, #0
1000133c:	bd70      	pop	{r4, r5, r6, pc}
1000133e:	7843      	ldrb	r3, [r0, #1]
10001340:	7033      	strb	r3, [r6, #0]
10001342:	e7eb      	b.n	1000131c <ph_remove_and_free_node+0x44>
10001344:	2201      	movs	r2, #1
10001346:	0019      	movs	r1, r3
10001348:	f7ff feac 	bl	100010a4 <ph_remove_any_head>
1000134c:	7360      	strb	r0, [r4, #13]
1000134e:	2001      	movs	r0, #1
10001350:	e7f4      	b.n	1000133c <ph_remove_and_free_node+0x64>
10001352:	46c0      	nop			; (mov r8, r8)

10001354 <runtime_init>:
10001354:	4b2f      	ldr	r3, [pc, #188]	; (10001414 <runtime_init+0xc0>)
10001356:	4a30      	ldr	r2, [pc, #192]	; (10001418 <runtime_init+0xc4>)
10001358:	b570      	push	{r4, r5, r6, lr}
1000135a:	601a      	str	r2, [r3, #0]
1000135c:	4a2f      	ldr	r2, [pc, #188]	; (1000141c <runtime_init+0xc8>)
1000135e:	4b30      	ldr	r3, [pc, #192]	; (10001420 <runtime_init+0xcc>)
10001360:	4930      	ldr	r1, [pc, #192]	; (10001424 <runtime_init+0xd0>)
10001362:	601a      	str	r2, [r3, #0]
10001364:	0010      	movs	r0, r2
10001366:	688b      	ldr	r3, [r1, #8]
10001368:	4398      	bics	r0, r3
1000136a:	d1fb      	bne.n	10001364 <runtime_init+0x10>
1000136c:	4c2e      	ldr	r4, [pc, #184]	; (10001428 <runtime_init+0xd4>)
1000136e:	4b2f      	ldr	r3, [pc, #188]	; (1000142c <runtime_init+0xd8>)
10001370:	429c      	cmp	r4, r3
10001372:	d209      	bcs.n	10001388 <runtime_init+0x34>
10001374:	3b01      	subs	r3, #1
10001376:	1b1d      	subs	r5, r3, r4
10001378:	08ad      	lsrs	r5, r5, #2
1000137a:	3501      	adds	r5, #1
1000137c:	00ad      	lsls	r5, r5, #2
1000137e:	192d      	adds	r5, r5, r4
10001380:	cc08      	ldmia	r4!, {r3}
10001382:	4798      	blx	r3
10001384:	42ac      	cmp	r4, r5
10001386:	d1fb      	bne.n	10001380 <runtime_init+0x2c>
10001388:	f000 f89c 	bl	100014c4 <clocks_init>
1000138c:	4a28      	ldr	r2, [pc, #160]	; (10001430 <runtime_init+0xdc>)
1000138e:	4b24      	ldr	r3, [pc, #144]	; (10001420 <runtime_init+0xcc>)
10001390:	601a      	str	r2, [r3, #0]
10001392:	4a24      	ldr	r2, [pc, #144]	; (10001424 <runtime_init+0xd0>)
10001394:	6893      	ldr	r3, [r2, #8]
10001396:	01db      	lsls	r3, r3, #7
10001398:	3380      	adds	r3, #128	; 0x80
1000139a:	d1fb      	bne.n	10001394 <runtime_init+0x40>
1000139c:	2240      	movs	r2, #64	; 0x40
1000139e:	4b25      	ldr	r3, [pc, #148]	; (10001434 <runtime_init+0xe0>)
100013a0:	4c25      	ldr	r4, [pc, #148]	; (10001438 <runtime_init+0xe4>)
100013a2:	679a      	str	r2, [r3, #120]	; 0x78
100013a4:	675a      	str	r2, [r3, #116]	; 0x74
100013a6:	671a      	str	r2, [r3, #112]	; 0x70
100013a8:	66da      	str	r2, [r3, #108]	; 0x6c
100013aa:	4b24      	ldr	r3, [pc, #144]	; (1000143c <runtime_init+0xe8>)
100013ac:	429c      	cmp	r4, r3
100013ae:	d214      	bcs.n	100013da <runtime_init+0x86>
100013b0:	3b01      	subs	r3, #1
100013b2:	1b1d      	subs	r5, r3, r4
100013b4:	08ed      	lsrs	r5, r5, #3
100013b6:	3501      	adds	r5, #1
100013b8:	00ed      	lsls	r5, r5, #3
100013ba:	192d      	adds	r5, r5, r4
100013bc:	e004      	b.n	100013c8 <runtime_init+0x74>
100013be:	3408      	adds	r4, #8
100013c0:	f7ff fdba 	bl	10000f38 <recursive_mutex_init>
100013c4:	42ac      	cmp	r4, r5
100013c6:	d008      	beq.n	100013da <runtime_init+0x86>
100013c8:	7963      	ldrb	r3, [r4, #5]
100013ca:	0020      	movs	r0, r4
100013cc:	2b00      	cmp	r3, #0
100013ce:	d1f6      	bne.n	100013be <runtime_init+0x6a>
100013d0:	3408      	adds	r4, #8
100013d2:	f7ff fda3 	bl	10000f1c <mutex_init>
100013d6:	42ac      	cmp	r4, r5
100013d8:	d1f6      	bne.n	100013c8 <runtime_init+0x74>
100013da:	4c19      	ldr	r4, [pc, #100]	; (10001440 <runtime_init+0xec>)
100013dc:	4d19      	ldr	r5, [pc, #100]	; (10001444 <runtime_init+0xf0>)
100013de:	68a1      	ldr	r1, [r4, #8]
100013e0:	22c0      	movs	r2, #192	; 0xc0
100013e2:	0028      	movs	r0, r5
100013e4:	f000 fd94 	bl	10001f10 <__wrap___aeabi_memcpy>
100013e8:	60a5      	str	r5, [r4, #8]
100013ea:	f7ff f877 	bl	100004dc <spin_locks_reset>
100013ee:	f000 fb4b 	bl	10001a88 <irq_init_priorities>
100013f2:	f7ff facb 	bl	1000098c <alarm_pool_init_default>
100013f6:	4c14      	ldr	r4, [pc, #80]	; (10001448 <runtime_init+0xf4>)
100013f8:	4b14      	ldr	r3, [pc, #80]	; (1000144c <runtime_init+0xf8>)
100013fa:	429c      	cmp	r4, r3
100013fc:	d209      	bcs.n	10001412 <runtime_init+0xbe>
100013fe:	3b01      	subs	r3, #1
10001400:	1b1d      	subs	r5, r3, r4
10001402:	08ad      	lsrs	r5, r5, #2
10001404:	3501      	adds	r5, #1
10001406:	00ad      	lsls	r5, r5, #2
10001408:	192d      	adds	r5, r5, r4
1000140a:	cc08      	ldmia	r4!, {r3}
1000140c:	4798      	blx	r3
1000140e:	42a5      	cmp	r5, r4
10001410:	d1fb      	bne.n	1000140a <runtime_init+0xb6>
10001412:	bd70      	pop	{r4, r5, r6, pc}
10001414:	4000e000 	.word	0x4000e000
10001418:	fefbcdbf 	.word	0xfefbcdbf
1000141c:	003c7ffe 	.word	0x003c7ffe
10001420:	4000f000 	.word	0x4000f000
10001424:	4000c000 	.word	0x4000c000
10001428:	20000d20 	.word	0x20000d20
1000142c:	20000d30 	.word	0x20000d30
10001430:	01ffffff 	.word	0x01ffffff
10001434:	4001f000 	.word	0x4001f000
10001438:	20000d18 	.word	0x20000d18
1000143c:	20000d20 	.word	0x20000d20
10001440:	e000ed00 	.word	0xe000ed00
10001444:	20000000 	.word	0x20000000
10001448:	20000d30 	.word	0x20000d30
1000144c:	20000d38 	.word	0x20000d38

10001450 <_sbrk>:
10001450:	4a09      	ldr	r2, [pc, #36]	; (10001478 <_sbrk+0x28>)
10001452:	0003      	movs	r3, r0
10001454:	6810      	ldr	r0, [r2, #0]
10001456:	2800      	cmp	r0, #0
10001458:	d005      	beq.n	10001466 <_sbrk+0x16>
1000145a:	4908      	ldr	r1, [pc, #32]	; (1000147c <_sbrk+0x2c>)
1000145c:	18c3      	adds	r3, r0, r3
1000145e:	428b      	cmp	r3, r1
10001460:	d807      	bhi.n	10001472 <_sbrk+0x22>
10001462:	6013      	str	r3, [r2, #0]
10001464:	4770      	bx	lr
10001466:	4806      	ldr	r0, [pc, #24]	; (10001480 <_sbrk+0x30>)
10001468:	4904      	ldr	r1, [pc, #16]	; (1000147c <_sbrk+0x2c>)
1000146a:	18c3      	adds	r3, r0, r3
1000146c:	6010      	str	r0, [r2, #0]
1000146e:	428b      	cmp	r3, r1
10001470:	d9f7      	bls.n	10001462 <_sbrk+0x12>
10001472:	2001      	movs	r0, #1
10001474:	4240      	negs	r0, r0
10001476:	e7f5      	b.n	10001464 <_sbrk+0x14>
10001478:	200014f4 	.word	0x200014f4
1000147c:	20040000 	.word	0x20040000
10001480:	20001c70 	.word	0x20001c70

10001484 <exit>:
10001484:	be00      	bkpt	0x0000
10001486:	e7fd      	b.n	10001484 <exit>

10001488 <panic>:
10001488:	b40f      	push	{r0, r1, r2, r3}
1000148a:	b500      	push	{lr}
1000148c:	4808      	ldr	r0, [pc, #32]	; (100014b0 <panic+0x28>)
1000148e:	b083      	sub	sp, #12
10001490:	f000 fe14 	bl	100020bc <__wrap_puts>
10001494:	9b04      	ldr	r3, [sp, #16]
10001496:	2b00      	cmp	r3, #0
10001498:	d007      	beq.n	100014aa <panic+0x22>
1000149a:	a905      	add	r1, sp, #20
1000149c:	0018      	movs	r0, r3
1000149e:	9101      	str	r1, [sp, #4]
100014a0:	f000 fbd0 	bl	10001c44 <weak_raw_vprintf>
100014a4:	4803      	ldr	r0, [pc, #12]	; (100014b4 <panic+0x2c>)
100014a6:	f000 fe09 	bl	100020bc <__wrap_puts>
100014aa:	be00      	bkpt	0x0000
100014ac:	e7fd      	b.n	100014aa <panic+0x22>
100014ae:	46c0      	nop			; (mov r8, r8)
100014b0:	10007f60 	.word	0x10007f60
100014b4:	10007f70 	.word	0x10007f70

100014b8 <hard_assertion_failure>:
100014b8:	b510      	push	{r4, lr}
100014ba:	4801      	ldr	r0, [pc, #4]	; (100014c0 <hard_assertion_failure+0x8>)
100014bc:	f7ff ffe4 	bl	10001488 <panic>
100014c0:	10007f74 	.word	0x10007f74

100014c4 <clocks_init>:
100014c4:	b530      	push	{r4, r5, lr}
100014c6:	200c      	movs	r0, #12
100014c8:	b083      	sub	sp, #12
100014ca:	f000 fb4b 	bl	10001b64 <watchdog_start_tick>
100014ce:	f7fe fffd 	bl	100004cc <running_on_fpga>
100014d2:	2800      	cmp	r0, #0
100014d4:	d00e      	beq.n	100014f4 <clocks_init+0x30>
100014d6:	4b94      	ldr	r3, [pc, #592]	; (10001728 <clocks_init+0x264>)
100014d8:	4a94      	ldr	r2, [pc, #592]	; (1000172c <clocks_init+0x268>)
100014da:	601a      	str	r2, [r3, #0]
100014dc:	605a      	str	r2, [r3, #4]
100014de:	609a      	str	r2, [r3, #8]
100014e0:	60da      	str	r2, [r3, #12]
100014e2:	611a      	str	r2, [r3, #16]
100014e4:	615a      	str	r2, [r3, #20]
100014e6:	619a      	str	r2, [r3, #24]
100014e8:	61da      	str	r2, [r3, #28]
100014ea:	621a      	str	r2, [r3, #32]
100014ec:	4a90      	ldr	r2, [pc, #576]	; (10001730 <clocks_init+0x26c>)
100014ee:	625a      	str	r2, [r3, #36]	; 0x24
100014f0:	b003      	add	sp, #12
100014f2:	bd30      	pop	{r4, r5, pc}
100014f4:	4c8f      	ldr	r4, [pc, #572]	; (10001734 <clocks_init+0x270>)
100014f6:	67a0      	str	r0, [r4, #120]	; 0x78
100014f8:	f000 fb88 	bl	10001c0c <xosc_init>
100014fc:	2201      	movs	r2, #1
100014fe:	4b8e      	ldr	r3, [pc, #568]	; (10001738 <clocks_init+0x274>)
10001500:	601a      	str	r2, [r3, #0]
10001502:	6c63      	ldr	r3, [r4, #68]	; 0x44
10001504:	2b01      	cmp	r3, #1
10001506:	d1fc      	bne.n	10001502 <clocks_init+0x3e>
10001508:	2203      	movs	r2, #3
1000150a:	4b8c      	ldr	r3, [pc, #560]	; (1000173c <clocks_init+0x278>)
1000150c:	601a      	str	r2, [r3, #0]
1000150e:	4a89      	ldr	r2, [pc, #548]	; (10001734 <clocks_init+0x270>)
10001510:	6b93      	ldr	r3, [r2, #56]	; 0x38
10001512:	2b01      	cmp	r3, #1
10001514:	d1fc      	bne.n	10001510 <clocks_init+0x4c>
10001516:	2402      	movs	r4, #2
10001518:	2101      	movs	r1, #1
1000151a:	4a89      	ldr	r2, [pc, #548]	; (10001740 <clocks_init+0x27c>)
1000151c:	4889      	ldr	r0, [pc, #548]	; (10001744 <clocks_init+0x280>)
1000151e:	3305      	adds	r3, #5
10001520:	9400      	str	r4, [sp, #0]
10001522:	f000 facd 	bl	10001ac0 <pll_init>
10001526:	2305      	movs	r3, #5
10001528:	4a87      	ldr	r2, [pc, #540]	; (10001748 <clocks_init+0x284>)
1000152a:	2101      	movs	r1, #1
1000152c:	4887      	ldr	r0, [pc, #540]	; (1000174c <clocks_init+0x288>)
1000152e:	9400      	str	r4, [sp, #0]
10001530:	f000 fac6 	bl	10001ac0 <pll_init>
10001534:	4b86      	ldr	r3, [pc, #536]	; (10001750 <clocks_init+0x28c>)
10001536:	685a      	ldr	r2, [r3, #4]
10001538:	2aff      	cmp	r2, #255	; 0xff
1000153a:	d802      	bhi.n	10001542 <clocks_init+0x7e>
1000153c:	2280      	movs	r2, #128	; 0x80
1000153e:	0052      	lsls	r2, r2, #1
10001540:	605a      	str	r2, [r3, #4]
10001542:	2280      	movs	r2, #128	; 0x80
10001544:	4c78      	ldr	r4, [pc, #480]	; (10001728 <clocks_init+0x264>)
10001546:	4b7d      	ldr	r3, [pc, #500]	; (1000173c <clocks_init+0x278>)
10001548:	6921      	ldr	r1, [r4, #16]
1000154a:	0112      	lsls	r2, r2, #4
1000154c:	4d80      	ldr	r5, [pc, #512]	; (10001750 <clocks_init+0x28c>)
1000154e:	601a      	str	r2, [r3, #0]
10001550:	2900      	cmp	r1, #0
10001552:	d005      	beq.n	10001560 <clocks_init+0x9c>
10001554:	6960      	ldr	r0, [r4, #20]
10001556:	f000 fbc3 	bl	10001ce0 <__wrap___aeabi_uidiv>
1000155a:	3001      	adds	r0, #1
1000155c:	3801      	subs	r0, #1
1000155e:	d1fd      	bne.n	1000155c <clocks_init+0x98>
10001560:	21e0      	movs	r1, #224	; 0xe0
10001562:	4b7b      	ldr	r3, [pc, #492]	; (10001750 <clocks_init+0x28c>)
10001564:	2002      	movs	r0, #2
10001566:	681a      	ldr	r2, [r3, #0]
10001568:	4011      	ands	r1, r2
1000156a:	2280      	movs	r2, #128	; 0x80
1000156c:	0152      	lsls	r2, r2, #5
1000156e:	432a      	orrs	r2, r5
10001570:	6011      	str	r1, [r2, #0]
10001572:	6819      	ldr	r1, [r3, #0]
10001574:	4048      	eors	r0, r1
10001576:	2103      	movs	r1, #3
10001578:	4001      	ands	r1, r0
1000157a:	6011      	str	r1, [r2, #0]
1000157c:	2104      	movs	r1, #4
1000157e:	689a      	ldr	r2, [r3, #8]
10001580:	4211      	tst	r1, r2
10001582:	d0fc      	beq.n	1000157e <clocks_init+0xba>
10001584:	2280      	movs	r2, #128	; 0x80
10001586:	2180      	movs	r1, #128	; 0x80
10001588:	0192      	lsls	r2, r2, #6
1000158a:	432a      	orrs	r2, r5
1000158c:	0109      	lsls	r1, r1, #4
1000158e:	6011      	str	r1, [r2, #0]
10001590:	2280      	movs	r2, #128	; 0x80
10001592:	0052      	lsls	r2, r2, #1
10001594:	605a      	str	r2, [r3, #4]
10001596:	4b6f      	ldr	r3, [pc, #444]	; (10001754 <clocks_init+0x290>)
10001598:	6123      	str	r3, [r4, #16]
1000159a:	4b6f      	ldr	r3, [pc, #444]	; (10001758 <clocks_init+0x294>)
1000159c:	6859      	ldr	r1, [r3, #4]
1000159e:	29ff      	cmp	r1, #255	; 0xff
100015a0:	d800      	bhi.n	100015a4 <clocks_init+0xe0>
100015a2:	605a      	str	r2, [r3, #4]
100015a4:	2203      	movs	r2, #3
100015a6:	486c      	ldr	r0, [pc, #432]	; (10001758 <clocks_init+0x294>)
100015a8:	4b63      	ldr	r3, [pc, #396]	; (10001738 <clocks_init+0x274>)
100015aa:	2101      	movs	r1, #1
100015ac:	601a      	str	r2, [r3, #0]
100015ae:	0002      	movs	r2, r0
100015b0:	6893      	ldr	r3, [r2, #8]
100015b2:	4219      	tst	r1, r3
100015b4:	d0fc      	beq.n	100015b0 <clocks_init+0xec>
100015b6:	25e0      	movs	r5, #224	; 0xe0
100015b8:	6813      	ldr	r3, [r2, #0]
100015ba:	401d      	ands	r5, r3
100015bc:	2380      	movs	r3, #128	; 0x80
100015be:	015b      	lsls	r3, r3, #5
100015c0:	4303      	orrs	r3, r0
100015c2:	601d      	str	r5, [r3, #0]
100015c4:	6812      	ldr	r2, [r2, #0]
100015c6:	404a      	eors	r2, r1
100015c8:	2103      	movs	r1, #3
100015ca:	4011      	ands	r1, r2
100015cc:	6019      	str	r1, [r3, #0]
100015ce:	2102      	movs	r1, #2
100015d0:	4a61      	ldr	r2, [pc, #388]	; (10001758 <clocks_init+0x294>)
100015d2:	6893      	ldr	r3, [r2, #8]
100015d4:	4219      	tst	r1, r3
100015d6:	d0fc      	beq.n	100015d2 <clocks_init+0x10e>
100015d8:	2380      	movs	r3, #128	; 0x80
100015da:	2180      	movs	r1, #128	; 0x80
100015dc:	019b      	lsls	r3, r3, #6
100015de:	4303      	orrs	r3, r0
100015e0:	0109      	lsls	r1, r1, #4
100015e2:	6019      	str	r1, [r3, #0]
100015e4:	2180      	movs	r1, #128	; 0x80
100015e6:	4b5d      	ldr	r3, [pc, #372]	; (1000175c <clocks_init+0x298>)
100015e8:	0049      	lsls	r1, r1, #1
100015ea:	6051      	str	r1, [r2, #4]
100015ec:	6163      	str	r3, [r4, #20]
100015ee:	4b5c      	ldr	r3, [pc, #368]	; (10001760 <clocks_init+0x29c>)
100015f0:	685a      	ldr	r2, [r3, #4]
100015f2:	2aff      	cmp	r2, #255	; 0xff
100015f4:	d800      	bhi.n	100015f8 <clocks_init+0x134>
100015f6:	6059      	str	r1, [r3, #4]
100015f8:	2280      	movs	r2, #128	; 0x80
100015fa:	4b5a      	ldr	r3, [pc, #360]	; (10001764 <clocks_init+0x2a0>)
100015fc:	69e1      	ldr	r1, [r4, #28]
100015fe:	0112      	lsls	r2, r2, #4
10001600:	4d57      	ldr	r5, [pc, #348]	; (10001760 <clocks_init+0x29c>)
10001602:	601a      	str	r2, [r3, #0]
10001604:	2900      	cmp	r1, #0
10001606:	d005      	beq.n	10001614 <clocks_init+0x150>
10001608:	6960      	ldr	r0, [r4, #20]
1000160a:	f000 fb69 	bl	10001ce0 <__wrap___aeabi_uidiv>
1000160e:	3001      	adds	r0, #1
10001610:	3801      	subs	r0, #1
10001612:	d1fd      	bne.n	10001610 <clocks_init+0x14c>
10001614:	22e0      	movs	r2, #224	; 0xe0
10001616:	4952      	ldr	r1, [pc, #328]	; (10001760 <clocks_init+0x29c>)
10001618:	680b      	ldr	r3, [r1, #0]
1000161a:	401a      	ands	r2, r3
1000161c:	2380      	movs	r3, #128	; 0x80
1000161e:	015b      	lsls	r3, r3, #5
10001620:	432b      	orrs	r3, r5
10001622:	601a      	str	r2, [r3, #0]
10001624:	2380      	movs	r3, #128	; 0x80
10001626:	2280      	movs	r2, #128	; 0x80
10001628:	019b      	lsls	r3, r3, #6
1000162a:	432b      	orrs	r3, r5
1000162c:	0112      	lsls	r2, r2, #4
1000162e:	601a      	str	r2, [r3, #0]
10001630:	2280      	movs	r2, #128	; 0x80
10001632:	4b3e      	ldr	r3, [pc, #248]	; (1000172c <clocks_init+0x268>)
10001634:	0052      	lsls	r2, r2, #1
10001636:	604a      	str	r2, [r1, #4]
10001638:	61e3      	str	r3, [r4, #28]
1000163a:	4b4b      	ldr	r3, [pc, #300]	; (10001768 <clocks_init+0x2a4>)
1000163c:	6859      	ldr	r1, [r3, #4]
1000163e:	29ff      	cmp	r1, #255	; 0xff
10001640:	d800      	bhi.n	10001644 <clocks_init+0x180>
10001642:	605a      	str	r2, [r3, #4]
10001644:	2280      	movs	r2, #128	; 0x80
10001646:	4b49      	ldr	r3, [pc, #292]	; (1000176c <clocks_init+0x2a8>)
10001648:	6a21      	ldr	r1, [r4, #32]
1000164a:	0112      	lsls	r2, r2, #4
1000164c:	4d46      	ldr	r5, [pc, #280]	; (10001768 <clocks_init+0x2a4>)
1000164e:	601a      	str	r2, [r3, #0]
10001650:	2900      	cmp	r1, #0
10001652:	d005      	beq.n	10001660 <clocks_init+0x19c>
10001654:	6960      	ldr	r0, [r4, #20]
10001656:	f000 fb43 	bl	10001ce0 <__wrap___aeabi_uidiv>
1000165a:	3001      	adds	r0, #1
1000165c:	3801      	subs	r0, #1
1000165e:	d1fd      	bne.n	1000165c <clocks_init+0x198>
10001660:	22e0      	movs	r2, #224	; 0xe0
10001662:	4941      	ldr	r1, [pc, #260]	; (10001768 <clocks_init+0x2a4>)
10001664:	680b      	ldr	r3, [r1, #0]
10001666:	401a      	ands	r2, r3
10001668:	2380      	movs	r3, #128	; 0x80
1000166a:	015b      	lsls	r3, r3, #5
1000166c:	432b      	orrs	r3, r5
1000166e:	601a      	str	r2, [r3, #0]
10001670:	2380      	movs	r3, #128	; 0x80
10001672:	2280      	movs	r2, #128	; 0x80
10001674:	019b      	lsls	r3, r3, #6
10001676:	432b      	orrs	r3, r5
10001678:	0112      	lsls	r2, r2, #4
1000167a:	601a      	str	r2, [r3, #0]
1000167c:	2380      	movs	r3, #128	; 0x80
1000167e:	2280      	movs	r2, #128	; 0x80
10001680:	005b      	lsls	r3, r3, #1
10001682:	604b      	str	r3, [r1, #4]
10001684:	4b29      	ldr	r3, [pc, #164]	; (1000172c <clocks_init+0x268>)
10001686:	02d2      	lsls	r2, r2, #11
10001688:	6223      	str	r3, [r4, #32]
1000168a:	4b39      	ldr	r3, [pc, #228]	; (10001770 <clocks_init+0x2ac>)
1000168c:	6859      	ldr	r1, [r3, #4]
1000168e:	4291      	cmp	r1, r2
10001690:	d200      	bcs.n	10001694 <clocks_init+0x1d0>
10001692:	605a      	str	r2, [r3, #4]
10001694:	2280      	movs	r2, #128	; 0x80
10001696:	4b37      	ldr	r3, [pc, #220]	; (10001774 <clocks_init+0x2b0>)
10001698:	6a61      	ldr	r1, [r4, #36]	; 0x24
1000169a:	0112      	lsls	r2, r2, #4
1000169c:	4d34      	ldr	r5, [pc, #208]	; (10001770 <clocks_init+0x2ac>)
1000169e:	601a      	str	r2, [r3, #0]
100016a0:	2900      	cmp	r1, #0
100016a2:	d005      	beq.n	100016b0 <clocks_init+0x1ec>
100016a4:	6960      	ldr	r0, [r4, #20]
100016a6:	f000 fb1b 	bl	10001ce0 <__wrap___aeabi_uidiv>
100016aa:	3001      	adds	r0, #1
100016ac:	3801      	subs	r0, #1
100016ae:	d1fd      	bne.n	100016ac <clocks_init+0x1e8>
100016b0:	22e0      	movs	r2, #224	; 0xe0
100016b2:	492f      	ldr	r1, [pc, #188]	; (10001770 <clocks_init+0x2ac>)
100016b4:	680b      	ldr	r3, [r1, #0]
100016b6:	401a      	ands	r2, r3
100016b8:	2380      	movs	r3, #128	; 0x80
100016ba:	015b      	lsls	r3, r3, #5
100016bc:	432b      	orrs	r3, r5
100016be:	601a      	str	r2, [r3, #0]
100016c0:	2380      	movs	r3, #128	; 0x80
100016c2:	2280      	movs	r2, #128	; 0x80
100016c4:	019b      	lsls	r3, r3, #6
100016c6:	432b      	orrs	r3, r5
100016c8:	0112      	lsls	r2, r2, #4
100016ca:	601a      	str	r2, [r3, #0]
100016cc:	2380      	movs	r3, #128	; 0x80
100016ce:	02db      	lsls	r3, r3, #11
100016d0:	604b      	str	r3, [r1, #4]
100016d2:	4b17      	ldr	r3, [pc, #92]	; (10001730 <clocks_init+0x26c>)
100016d4:	6263      	str	r3, [r4, #36]	; 0x24
100016d6:	4b28      	ldr	r3, [pc, #160]	; (10001778 <clocks_init+0x2b4>)
100016d8:	685a      	ldr	r2, [r3, #4]
100016da:	2aff      	cmp	r2, #255	; 0xff
100016dc:	d802      	bhi.n	100016e4 <clocks_init+0x220>
100016de:	2280      	movs	r2, #128	; 0x80
100016e0:	0052      	lsls	r2, r2, #1
100016e2:	605a      	str	r2, [r3, #4]
100016e4:	2280      	movs	r2, #128	; 0x80
100016e6:	4b25      	ldr	r3, [pc, #148]	; (1000177c <clocks_init+0x2b8>)
100016e8:	69a1      	ldr	r1, [r4, #24]
100016ea:	0112      	lsls	r2, r2, #4
100016ec:	4d22      	ldr	r5, [pc, #136]	; (10001778 <clocks_init+0x2b4>)
100016ee:	601a      	str	r2, [r3, #0]
100016f0:	2900      	cmp	r1, #0
100016f2:	d005      	beq.n	10001700 <clocks_init+0x23c>
100016f4:	6960      	ldr	r0, [r4, #20]
100016f6:	f000 faf3 	bl	10001ce0 <__wrap___aeabi_uidiv>
100016fa:	3001      	adds	r0, #1
100016fc:	3801      	subs	r0, #1
100016fe:	d1fd      	bne.n	100016fc <clocks_init+0x238>
10001700:	22e0      	movs	r2, #224	; 0xe0
10001702:	491d      	ldr	r1, [pc, #116]	; (10001778 <clocks_init+0x2b4>)
10001704:	680b      	ldr	r3, [r1, #0]
10001706:	401a      	ands	r2, r3
10001708:	2380      	movs	r3, #128	; 0x80
1000170a:	015b      	lsls	r3, r3, #5
1000170c:	432b      	orrs	r3, r5
1000170e:	601a      	str	r2, [r3, #0]
10001710:	2380      	movs	r3, #128	; 0x80
10001712:	2280      	movs	r2, #128	; 0x80
10001714:	019b      	lsls	r3, r3, #6
10001716:	432b      	orrs	r3, r5
10001718:	0112      	lsls	r2, r2, #4
1000171a:	601a      	str	r2, [r3, #0]
1000171c:	2380      	movs	r3, #128	; 0x80
1000171e:	005b      	lsls	r3, r3, #1
10001720:	604b      	str	r3, [r1, #4]
10001722:	4b0e      	ldr	r3, [pc, #56]	; (1000175c <clocks_init+0x298>)
10001724:	61a3      	str	r3, [r4, #24]
10001726:	e6e3      	b.n	100014f0 <clocks_init+0x2c>
10001728:	2000145c 	.word	0x2000145c
1000172c:	02dc6c00 	.word	0x02dc6c00
10001730:	0000b71b 	.word	0x0000b71b
10001734:	40008000 	.word	0x40008000
10001738:	4000b03c 	.word	0x4000b03c
1000173c:	4000b030 	.word	0x4000b030
10001740:	59682f00 	.word	0x59682f00
10001744:	40028000 	.word	0x40028000
10001748:	1c9c3800 	.word	0x1c9c3800
1000174c:	4002c000 	.word	0x4002c000
10001750:	40008030 	.word	0x40008030
10001754:	00b71b00 	.word	0x00b71b00
10001758:	4000803c 	.word	0x4000803c
1000175c:	07735940 	.word	0x07735940
10001760:	40008054 	.word	0x40008054
10001764:	4000b054 	.word	0x4000b054
10001768:	40008060 	.word	0x40008060
1000176c:	4000b060 	.word	0x4000b060
10001770:	4000806c 	.word	0x4000806c
10001774:	4000b06c 	.word	0x4000b06c
10001778:	40008048 	.word	0x40008048
1000177c:	4000b048 	.word	0x4000b048

10001780 <irq_set_enabled>:
10001780:	2301      	movs	r3, #1
10001782:	4083      	lsls	r3, r0
10001784:	2900      	cmp	r1, #0
10001786:	d004      	beq.n	10001792 <irq_set_enabled+0x12>
10001788:	4a03      	ldr	r2, [pc, #12]	; (10001798 <irq_set_enabled+0x18>)
1000178a:	6013      	str	r3, [r2, #0]
1000178c:	4a03      	ldr	r2, [pc, #12]	; (1000179c <irq_set_enabled+0x1c>)
1000178e:	6013      	str	r3, [r2, #0]
10001790:	4770      	bx	lr
10001792:	4a03      	ldr	r2, [pc, #12]	; (100017a0 <irq_set_enabled+0x20>)
10001794:	6013      	str	r3, [r2, #0]
10001796:	e7fb      	b.n	10001790 <irq_set_enabled+0x10>
10001798:	e000e280 	.word	0xe000e280
1000179c:	e000e100 	.word	0xe000e100
100017a0:	e000e180 	.word	0xe000e180

100017a4 <irq_set_pending>:
100017a4:	2301      	movs	r3, #1
100017a6:	4083      	lsls	r3, r0
100017a8:	4a01      	ldr	r2, [pc, #4]	; (100017b0 <irq_set_pending+0xc>)
100017aa:	6013      	str	r3, [r2, #0]
100017ac:	4770      	bx	lr
100017ae:	46c0      	nop			; (mov r8, r8)
100017b0:	e000e200 	.word	0xe000e200

100017b4 <irq_get_vtable_handler>:
100017b4:	4b02      	ldr	r3, [pc, #8]	; (100017c0 <irq_get_vtable_handler+0xc>)
100017b6:	3010      	adds	r0, #16
100017b8:	689b      	ldr	r3, [r3, #8]
100017ba:	0080      	lsls	r0, r0, #2
100017bc:	58c0      	ldr	r0, [r0, r3]
100017be:	4770      	bx	lr
100017c0:	e000ed00 	.word	0xe000ed00

100017c4 <irq_set_exclusive_handler>:
100017c4:	b570      	push	{r4, r5, r6, lr}
100017c6:	000d      	movs	r5, r1
100017c8:	f3ef 8610 	mrs	r6, PRIMASK
100017cc:	b672      	cpsid	i
100017ce:	4a0f      	ldr	r2, [pc, #60]	; (1000180c <irq_set_exclusive_handler+0x48>)
100017d0:	6813      	ldr	r3, [r2, #0]
100017d2:	2b00      	cmp	r3, #0
100017d4:	d0fc      	beq.n	100017d0 <irq_set_exclusive_handler+0xc>
100017d6:	f3bf 8f5f 	dmb	sy
100017da:	4b0d      	ldr	r3, [pc, #52]	; (10001810 <irq_set_exclusive_handler+0x4c>)
100017dc:	3010      	adds	r0, #16
100017de:	689b      	ldr	r3, [r3, #8]
100017e0:	0084      	lsls	r4, r0, #2
100017e2:	591b      	ldr	r3, [r3, r4]
100017e4:	4a0b      	ldr	r2, [pc, #44]	; (10001814 <irq_set_exclusive_handler+0x50>)
100017e6:	4293      	cmp	r3, r2
100017e8:	d003      	beq.n	100017f2 <irq_set_exclusive_handler+0x2e>
100017ea:	429d      	cmp	r5, r3
100017ec:	d001      	beq.n	100017f2 <irq_set_exclusive_handler+0x2e>
100017ee:	f7ff fe63 	bl	100014b8 <hard_assertion_failure>
100017f2:	4b07      	ldr	r3, [pc, #28]	; (10001810 <irq_set_exclusive_handler+0x4c>)
100017f4:	689b      	ldr	r3, [r3, #8]
100017f6:	511d      	str	r5, [r3, r4]
100017f8:	f3bf 8f5f 	dmb	sy
100017fc:	f3bf 8f5f 	dmb	sy
10001800:	2200      	movs	r2, #0
10001802:	4b02      	ldr	r3, [pc, #8]	; (1000180c <irq_set_exclusive_handler+0x48>)
10001804:	601a      	str	r2, [r3, #0]
10001806:	f386 8810 	msr	PRIMASK, r6
1000180a:	bd70      	pop	{r4, r5, r6, pc}
1000180c:	d0000124 	.word	0xd0000124
10001810:	e000ed00 	.word	0xe000ed00
10001814:	100001cd 	.word	0x100001cd

10001818 <irq_remove_handler>:
10001818:	b5f0      	push	{r4, r5, r6, r7, lr}
1000181a:	46de      	mov	lr, fp
1000181c:	4657      	mov	r7, sl
1000181e:	464e      	mov	r6, r9
10001820:	4645      	mov	r5, r8
10001822:	b5e0      	push	{r5, r6, r7, lr}
10001824:	000c      	movs	r4, r1
10001826:	b083      	sub	sp, #12
10001828:	f3ef 8a10 	mrs	sl, PRIMASK
1000182c:	b672      	cpsid	i
1000182e:	4a5b      	ldr	r2, [pc, #364]	; (1000199c <irq_remove_handler+0x184>)
10001830:	6813      	ldr	r3, [r2, #0]
10001832:	2b00      	cmp	r3, #0
10001834:	d0fc      	beq.n	10001830 <irq_remove_handler+0x18>
10001836:	f3bf 8f5f 	dmb	sy
1000183a:	2210      	movs	r2, #16
1000183c:	4691      	mov	r9, r2
1000183e:	4481      	add	r9, r0
10001840:	464a      	mov	r2, r9
10001842:	4b57      	ldr	r3, [pc, #348]	; (100019a0 <irq_remove_handler+0x188>)
10001844:	0096      	lsls	r6, r2, #2
10001846:	689b      	ldr	r3, [r3, #8]
10001848:	599d      	ldr	r5, [r3, r6]
1000184a:	4b56      	ldr	r3, [pc, #344]	; (100019a4 <irq_remove_handler+0x18c>)
1000184c:	4698      	mov	r8, r3
1000184e:	429d      	cmp	r5, r3
10001850:	d005      	beq.n	1000185e <irq_remove_handler+0x46>
10001852:	42a5      	cmp	r5, r4
10001854:	d016      	beq.n	10001884 <irq_remove_handler+0x6c>
10001856:	4f54      	ldr	r7, [pc, #336]	; (100019a8 <irq_remove_handler+0x190>)
10001858:	1beb      	subs	r3, r5, r7
1000185a:	2b2f      	cmp	r3, #47	; 0x2f
1000185c:	d914      	bls.n	10001888 <irq_remove_handler+0x70>
1000185e:	4b50      	ldr	r3, [pc, #320]	; (100019a0 <irq_remove_handler+0x188>)
10001860:	689b      	ldr	r3, [r3, #8]
10001862:	519d      	str	r5, [r3, r6]
10001864:	f3bf 8f5f 	dmb	sy
10001868:	f3bf 8f5f 	dmb	sy
1000186c:	2200      	movs	r2, #0
1000186e:	4b4b      	ldr	r3, [pc, #300]	; (1000199c <irq_remove_handler+0x184>)
10001870:	601a      	str	r2, [r3, #0]
10001872:	f38a 8810 	msr	PRIMASK, sl
10001876:	b003      	add	sp, #12
10001878:	bc3c      	pop	{r2, r3, r4, r5}
1000187a:	4690      	mov	r8, r2
1000187c:	4699      	mov	r9, r3
1000187e:	46a2      	mov	sl, r4
10001880:	46ab      	mov	fp, r5
10001882:	bdf0      	pop	{r4, r5, r6, r7, pc}
10001884:	001d      	movs	r5, r3
10001886:	e7ea      	b.n	1000185e <irq_remove_handler+0x46>
10001888:	2301      	movs	r3, #1
1000188a:	4083      	lsls	r3, r0
1000188c:	469b      	mov	fp, r3
1000188e:	465a      	mov	r2, fp
10001890:	4b46      	ldr	r3, [pc, #280]	; (100019ac <irq_remove_handler+0x194>)
10001892:	681b      	ldr	r3, [r3, #0]
10001894:	401a      	ands	r2, r3
10001896:	9200      	str	r2, [sp, #0]
10001898:	465a      	mov	r2, fp
1000189a:	4b45      	ldr	r3, [pc, #276]	; (100019b0 <irq_remove_handler+0x198>)
1000189c:	601a      	str	r2, [r3, #0]
1000189e:	f3bf 8f5f 	dmb	sy
100018a2:	f7fe fce0 	bl	10000266 <__get_current_exception>
100018a6:	9001      	str	r0, [sp, #4]
100018a8:	2800      	cmp	r0, #0
100018aa:	d003      	beq.n	100018b4 <irq_remove_handler+0x9c>
100018ac:	4581      	cmp	r9, r0
100018ae:	d001      	beq.n	100018b4 <irq_remove_handler+0x9c>
100018b0:	f7ff fe02 	bl	100014b8 <hard_assertion_failure>
100018b4:	2301      	movs	r3, #1
100018b6:	002a      	movs	r2, r5
100018b8:	439a      	bics	r2, r3
100018ba:	0013      	movs	r3, r2
100018bc:	1bdb      	subs	r3, r3, r7
100018be:	415b      	adcs	r3, r3
100018c0:	4942      	ldr	r1, [pc, #264]	; (100019cc <irq_remove_handler+0x1b4>)
100018c2:	4359      	muls	r1, r3
100018c4:	0d09      	lsrs	r1, r1, #20
100018c6:	6893      	ldr	r3, [r2, #8]
100018c8:	429c      	cmp	r4, r3
100018ca:	d108      	bne.n	100018de <irq_remove_handler+0xc6>
100018cc:	e05b      	b.n	10001986 <irq_remove_handler+0x16e>
100018ce:	0043      	lsls	r3, r0, #1
100018d0:	181b      	adds	r3, r3, r0
100018d2:	009b      	lsls	r3, r3, #2
100018d4:	18fb      	adds	r3, r7, r3
100018d6:	6898      	ldr	r0, [r3, #8]
100018d8:	42a0      	cmp	r0, r4
100018da:	d011      	beq.n	10001900 <irq_remove_handler+0xe8>
100018dc:	001a      	movs	r2, r3
100018de:	2006      	movs	r0, #6
100018e0:	5610      	ldrsb	r0, [r2, r0]
100018e2:	2800      	cmp	r0, #0
100018e4:	daf3      	bge.n	100018ce <irq_remove_handler+0xb6>
100018e6:	9b00      	ldr	r3, [sp, #0]
100018e8:	2b00      	cmp	r3, #0
100018ea:	d005      	beq.n	100018f8 <irq_remove_handler+0xe0>
100018ec:	465a      	mov	r2, fp
100018ee:	4b31      	ldr	r3, [pc, #196]	; (100019b4 <irq_remove_handler+0x19c>)
100018f0:	601a      	str	r2, [r3, #0]
100018f2:	4b2e      	ldr	r3, [pc, #184]	; (100019ac <irq_remove_handler+0x194>)
100018f4:	601a      	str	r2, [r3, #0]
100018f6:	e7b2      	b.n	1000185e <irq_remove_handler+0x46>
100018f8:	465a      	mov	r2, fp
100018fa:	4b2d      	ldr	r3, [pc, #180]	; (100019b0 <irq_remove_handler+0x198>)
100018fc:	601a      	str	r2, [r3, #0]
100018fe:	e7ae      	b.n	1000185e <irq_remove_handler+0x46>
10001900:	2006      	movs	r0, #6
10001902:	5618      	ldrsb	r0, [r3, r0]
10001904:	2800      	cmp	r0, #0
10001906:	db22      	blt.n	1000194e <irq_remove_handler+0x136>
10001908:	0042      	lsls	r2, r0, #1
1000190a:	1811      	adds	r1, r2, r0
1000190c:	0089      	lsls	r1, r1, #2
1000190e:	187c      	adds	r4, r7, r1
10001910:	4688      	mov	r8, r1
10001912:	68a1      	ldr	r1, [r4, #8]
10001914:	6099      	str	r1, [r3, #8]
10001916:	79e1      	ldrb	r1, [r4, #7]
10001918:	71d9      	strb	r1, [r3, #7]
1000191a:	2106      	movs	r1, #6
1000191c:	5661      	ldrsb	r1, [r4, r1]
1000191e:	7199      	strb	r1, [r3, #6]
10001920:	79a1      	ldrb	r1, [r4, #6]
10001922:	297f      	cmp	r1, #127	; 0x7f
10001924:	d81f      	bhi.n	10001966 <irq_remove_handler+0x14e>
10001926:	88a4      	ldrh	r4, [r4, #4]
10001928:	1af9      	subs	r1, r7, r3
1000192a:	0564      	lsls	r4, r4, #21
1000192c:	1524      	asrs	r4, r4, #20
1000192e:	4444      	add	r4, r8
10001930:	1909      	adds	r1, r1, r4
10001932:	24e0      	movs	r4, #224	; 0xe0
10001934:	0509      	lsls	r1, r1, #20
10001936:	0d49      	lsrs	r1, r1, #21
10001938:	0224      	lsls	r4, r4, #8
1000193a:	4321      	orrs	r1, r4
1000193c:	8099      	strh	r1, [r3, #4]
1000193e:	1812      	adds	r2, r2, r0
10001940:	4b1d      	ldr	r3, [pc, #116]	; (100019b8 <irq_remove_handler+0x1a0>)
10001942:	0092      	lsls	r2, r2, #2
10001944:	18bf      	adds	r7, r7, r2
10001946:	781a      	ldrb	r2, [r3, #0]
10001948:	7018      	strb	r0, [r3, #0]
1000194a:	71ba      	strb	r2, [r7, #6]
1000194c:	e7cb      	b.n	100018e6 <irq_remove_handler+0xce>
1000194e:	9801      	ldr	r0, [sp, #4]
10001950:	2800      	cmp	r0, #0
10001952:	d10b      	bne.n	1000196c <irq_remove_handler+0x154>
10001954:	30ff      	adds	r0, #255	; 0xff
10001956:	7190      	strb	r0, [r2, #6]
10001958:	4818      	ldr	r0, [pc, #96]	; (100019bc <irq_remove_handler+0x1a4>)
1000195a:	8090      	strh	r0, [r2, #4]
1000195c:	4a16      	ldr	r2, [pc, #88]	; (100019b8 <irq_remove_handler+0x1a0>)
1000195e:	7810      	ldrb	r0, [r2, #0]
10001960:	7011      	strb	r1, [r2, #0]
10001962:	7198      	strb	r0, [r3, #6]
10001964:	e7bf      	b.n	100018e6 <irq_remove_handler+0xce>
10001966:	21bd      	movs	r1, #189	; 0xbd
10001968:	0209      	lsls	r1, r1, #8
1000196a:	e7e7      	b.n	1000193c <irq_remove_handler+0x124>
1000196c:	4a14      	ldr	r2, [pc, #80]	; (100019c0 <irq_remove_handler+0x1a8>)
1000196e:	4915      	ldr	r1, [pc, #84]	; (100019c4 <irq_remove_handler+0x1ac>)
10001970:	1ad2      	subs	r2, r2, r3
10001972:	3a08      	subs	r2, #8
10001974:	0250      	lsls	r0, r2, #9
10001976:	0d40      	lsrs	r0, r0, #21
10001978:	4301      	orrs	r1, r0
1000197a:	8099      	strh	r1, [r3, #4]
1000197c:	4912      	ldr	r1, [pc, #72]	; (100019c8 <irq_remove_handler+0x1b0>)
1000197e:	0852      	lsrs	r2, r2, #1
10001980:	430a      	orrs	r2, r1
10001982:	80da      	strh	r2, [r3, #6]
10001984:	e7af      	b.n	100018e6 <irq_remove_handler+0xce>
10001986:	2006      	movs	r0, #6
10001988:	5610      	ldrsb	r0, [r2, r0]
1000198a:	0013      	movs	r3, r2
1000198c:	2800      	cmp	r0, #0
1000198e:	dabb      	bge.n	10001908 <irq_remove_handler+0xf0>
10001990:	9a01      	ldr	r2, [sp, #4]
10001992:	2a00      	cmp	r2, #0
10001994:	d1ea      	bne.n	1000196c <irq_remove_handler+0x154>
10001996:	4645      	mov	r5, r8
10001998:	e7e0      	b.n	1000195c <irq_remove_handler+0x144>
1000199a:	46c0      	nop			; (mov r8, r8)
1000199c:	d0000124 	.word	0xd0000124
100019a0:	e000ed00 	.word	0xe000ed00
100019a4:	100001cd 	.word	0x100001cd
100019a8:	2000041c 	.word	0x2000041c
100019ac:	e000e100 	.word	0xe000e100
100019b0:	e000e180 	.word	0xe000e180
100019b4:	e000e280 	.word	0xe000e280
100019b8:	20001954 	.word	0x20001954
100019bc:	ffffbd00 	.word	0xffffbd00
100019c0:	20000456 	.word	0x20000456
100019c4:	fffff000 	.word	0xfffff000
100019c8:	fffff800 	.word	0xfffff800
100019cc:	0000aaaa 	.word	0x0000aaaa

100019d0 <irq_add_tail_to_free_list>:
100019d0:	b5f8      	push	{r3, r4, r5, r6, r7, lr}
100019d2:	2501      	movs	r5, #1
100019d4:	0004      	movs	r4, r0
100019d6:	4305      	orrs	r5, r0
100019d8:	f7fe fc45 	bl	10000266 <__get_current_exception>
100019dc:	0002      	movs	r2, r0
100019de:	f3ef 8610 	mrs	r6, PRIMASK
100019e2:	b672      	cpsid	i
100019e4:	4921      	ldr	r1, [pc, #132]	; (10001a6c <irq_add_tail_to_free_list+0x9c>)
100019e6:	680b      	ldr	r3, [r1, #0]
100019e8:	2b00      	cmp	r3, #0
100019ea:	d0fc      	beq.n	100019e6 <irq_add_tail_to_free_list+0x16>
100019ec:	f3bf 8f5f 	dmb	sy
100019f0:	491f      	ldr	r1, [pc, #124]	; (10001a70 <irq_add_tail_to_free_list+0xa0>)
100019f2:	0020      	movs	r0, r4
100019f4:	1a40      	subs	r0, r0, r1
100019f6:	4140      	adcs	r0, r0
100019f8:	4b22      	ldr	r3, [pc, #136]	; (10001a84 <irq_add_tail_to_free_list+0xb4>)
100019fa:	4343      	muls	r3, r0
100019fc:	0d1b      	lsrs	r3, r3, #20
100019fe:	481d      	ldr	r0, [pc, #116]	; (10001a74 <irq_add_tail_to_free_list+0xa4>)
10001a00:	0092      	lsls	r2, r2, #2
10001a02:	6887      	ldr	r7, [r0, #8]
10001a04:	b25b      	sxtb	r3, r3
10001a06:	58bf      	ldr	r7, [r7, r2]
10001a08:	42af      	cmp	r7, r5
10001a0a:	d01c      	beq.n	10001a46 <irq_add_tail_to_free_list+0x76>
10001a0c:	2206      	movs	r2, #6
10001a0e:	568a      	ldrsb	r2, [r1, r2]
10001a10:	429a      	cmp	r2, r3
10001a12:	d01c      	beq.n	10001a4e <irq_add_tail_to_free_list+0x7e>
10001a14:	2212      	movs	r2, #18
10001a16:	568a      	ldrsb	r2, [r1, r2]
10001a18:	429a      	cmp	r2, r3
10001a1a:	d022      	beq.n	10001a62 <irq_add_tail_to_free_list+0x92>
10001a1c:	221e      	movs	r2, #30
10001a1e:	568a      	ldrsb	r2, [r1, r2]
10001a20:	429a      	cmp	r2, r3
10001a22:	d020      	beq.n	10001a66 <irq_add_tail_to_free_list+0x96>
10001a24:	222a      	movs	r2, #42	; 0x2a
10001a26:	568a      	ldrsb	r2, [r1, r2]
10001a28:	2003      	movs	r0, #3
10001a2a:	429a      	cmp	r2, r3
10001a2c:	d010      	beq.n	10001a50 <irq_add_tail_to_free_list+0x80>
10001a2e:	4a12      	ldr	r2, [pc, #72]	; (10001a78 <irq_add_tail_to_free_list+0xa8>)
10001a30:	7811      	ldrb	r1, [r2, #0]
10001a32:	7013      	strb	r3, [r2, #0]
10001a34:	71a1      	strb	r1, [r4, #6]
10001a36:	f3bf 8f5f 	dmb	sy
10001a3a:	2200      	movs	r2, #0
10001a3c:	4b0b      	ldr	r3, [pc, #44]	; (10001a6c <irq_add_tail_to_free_list+0x9c>)
10001a3e:	601a      	str	r2, [r3, #0]
10001a40:	f386 8810 	msr	PRIMASK, r6
10001a44:	bdf8      	pop	{r3, r4, r5, r6, r7, pc}
10001a46:	6881      	ldr	r1, [r0, #8]
10001a48:	480c      	ldr	r0, [pc, #48]	; (10001a7c <irq_add_tail_to_free_list+0xac>)
10001a4a:	5088      	str	r0, [r1, r2]
10001a4c:	e7ef      	b.n	10001a2e <irq_add_tail_to_free_list+0x5e>
10001a4e:	2000      	movs	r0, #0
10001a50:	0042      	lsls	r2, r0, #1
10001a52:	1812      	adds	r2, r2, r0
10001a54:	0092      	lsls	r2, r2, #2
10001a56:	1889      	adds	r1, r1, r2
10001a58:	22ff      	movs	r2, #255	; 0xff
10001a5a:	718a      	strb	r2, [r1, #6]
10001a5c:	4a08      	ldr	r2, [pc, #32]	; (10001a80 <irq_add_tail_to_free_list+0xb0>)
10001a5e:	808a      	strh	r2, [r1, #4]
10001a60:	e7e5      	b.n	10001a2e <irq_add_tail_to_free_list+0x5e>
10001a62:	2001      	movs	r0, #1
10001a64:	e7f4      	b.n	10001a50 <irq_add_tail_to_free_list+0x80>
10001a66:	2002      	movs	r0, #2
10001a68:	e7f2      	b.n	10001a50 <irq_add_tail_to_free_list+0x80>
10001a6a:	46c0      	nop			; (mov r8, r8)
10001a6c:	d0000124 	.word	0xd0000124
10001a70:	2000041c 	.word	0x2000041c
10001a74:	e000ed00 	.word	0xe000ed00
10001a78:	20001954 	.word	0x20001954
10001a7c:	100001cd 	.word	0x100001cd
10001a80:	ffffbd00 	.word	0xffffbd00
10001a84:	0000aaaa 	.word	0x0000aaaa

10001a88 <irq_init_priorities>:
10001a88:	b5f0      	push	{r4, r5, r6, r7, lr}
10001a8a:	2200      	movs	r2, #0
10001a8c:	2403      	movs	r4, #3
10001a8e:	27ff      	movs	r7, #255	; 0xff
10001a90:	2680      	movs	r6, #128	; 0x80
10001a92:	0020      	movs	r0, r4
10001a94:	003d      	movs	r5, r7
10001a96:	4b09      	ldr	r3, [pc, #36]	; (10001abc <irq_init_priorities+0x34>)
10001a98:	0011      	movs	r1, r2
10001a9a:	469c      	mov	ip, r3
10001a9c:	4010      	ands	r0, r2
10001a9e:	00c0      	lsls	r0, r0, #3
10001aa0:	4085      	lsls	r5, r0
10001aa2:	43a1      	bics	r1, r4
10001aa4:	4461      	add	r1, ip
10001aa6:	680b      	ldr	r3, [r1, #0]
10001aa8:	3201      	adds	r2, #1
10001aaa:	43ab      	bics	r3, r5
10001aac:	0035      	movs	r5, r6
10001aae:	4085      	lsls	r5, r0
10001ab0:	432b      	orrs	r3, r5
10001ab2:	600b      	str	r3, [r1, #0]
10001ab4:	2a20      	cmp	r2, #32
10001ab6:	d1ec      	bne.n	10001a92 <irq_init_priorities+0xa>
10001ab8:	bdf0      	pop	{r4, r5, r6, r7, pc}
10001aba:	46c0      	nop			; (mov r8, r8)
10001abc:	e000e400 	.word	0xe000e400

10001ac0 <pll_init>:
10001ac0:	b5f8      	push	{r3, r4, r5, r6, r7, lr}
10001ac2:	0004      	movs	r4, r0
10001ac4:	200c      	movs	r0, #12
10001ac6:	0017      	movs	r7, r2
10001ac8:	001d      	movs	r5, r3
10001aca:	000e      	movs	r6, r1
10001acc:	f000 f908 	bl	10001ce0 <__wrap___aeabi_uidiv>
10001ad0:	0141      	lsls	r1, r0, #5
10001ad2:	1a09      	subs	r1, r1, r0
10001ad4:	018b      	lsls	r3, r1, #6
10001ad6:	1a59      	subs	r1, r3, r1
10001ad8:	00c9      	lsls	r1, r1, #3
10001ada:	1809      	adds	r1, r1, r0
10001adc:	0189      	lsls	r1, r1, #6
10001ade:	0038      	movs	r0, r7
10001ae0:	f000 f8fe 	bl	10001ce0 <__wrap___aeabi_uidiv>
10001ae4:	9a06      	ldr	r2, [sp, #24]
10001ae6:	042b      	lsls	r3, r5, #16
10001ae8:	0312      	lsls	r2, r2, #12
10001aea:	4313      	orrs	r3, r2
10001aec:	6822      	ldr	r2, [r4, #0]
10001aee:	2a00      	cmp	r2, #0
10001af0:	db21      	blt.n	10001b36 <pll_init+0x76>
10001af2:	4a18      	ldr	r2, [pc, #96]	; (10001b54 <pll_init+0x94>)
10001af4:	18a2      	adds	r2, r4, r2
10001af6:	4251      	negs	r1, r2
10001af8:	414a      	adcs	r2, r1
10001afa:	2180      	movs	r1, #128	; 0x80
10001afc:	0149      	lsls	r1, r1, #5
10001afe:	468c      	mov	ip, r1
10001b00:	4252      	negs	r2, r2
10001b02:	400a      	ands	r2, r1
10001b04:	4914      	ldr	r1, [pc, #80]	; (10001b58 <pll_init+0x98>)
10001b06:	4462      	add	r2, ip
10001b08:	600a      	str	r2, [r1, #0]
10001b0a:	4914      	ldr	r1, [pc, #80]	; (10001b5c <pll_init+0x9c>)
10001b0c:	600a      	str	r2, [r1, #0]
10001b0e:	4914      	ldr	r1, [pc, #80]	; (10001b60 <pll_init+0xa0>)
10001b10:	0017      	movs	r7, r2
10001b12:	688d      	ldr	r5, [r1, #8]
10001b14:	43af      	bics	r7, r5
10001b16:	d1fb      	bne.n	10001b10 <pll_init+0x50>
10001b18:	21c0      	movs	r1, #192	; 0xc0
10001b1a:	1d22      	adds	r2, r4, #4
10001b1c:	0189      	lsls	r1, r1, #6
10001b1e:	4311      	orrs	r1, r2
10001b20:	2221      	movs	r2, #33	; 0x21
10001b22:	6026      	str	r6, [r4, #0]
10001b24:	60a0      	str	r0, [r4, #8]
10001b26:	600a      	str	r2, [r1, #0]
10001b28:	6822      	ldr	r2, [r4, #0]
10001b2a:	2a00      	cmp	r2, #0
10001b2c:	dafc      	bge.n	10001b28 <pll_init+0x68>
10001b2e:	60e3      	str	r3, [r4, #12]
10001b30:	2308      	movs	r3, #8
10001b32:	600b      	str	r3, [r1, #0]
10001b34:	bdf8      	pop	{r3, r4, r5, r6, r7, pc}
10001b36:	223f      	movs	r2, #63	; 0x3f
10001b38:	6821      	ldr	r1, [r4, #0]
10001b3a:	400a      	ands	r2, r1
10001b3c:	42b2      	cmp	r2, r6
10001b3e:	d1d8      	bne.n	10001af2 <pll_init+0x32>
10001b40:	68a2      	ldr	r2, [r4, #8]
10001b42:	0512      	lsls	r2, r2, #20
10001b44:	0d12      	lsrs	r2, r2, #20
10001b46:	4282      	cmp	r2, r0
10001b48:	d1d3      	bne.n	10001af2 <pll_init+0x32>
10001b4a:	68e2      	ldr	r2, [r4, #12]
10001b4c:	2b00      	cmp	r3, #0
10001b4e:	d1d0      	bne.n	10001af2 <pll_init+0x32>
10001b50:	e7f0      	b.n	10001b34 <pll_init+0x74>
10001b52:	46c0      	nop			; (mov r8, r8)
10001b54:	bffd4000 	.word	0xbffd4000
10001b58:	4000e000 	.word	0x4000e000
10001b5c:	4000f000 	.word	0x4000f000
10001b60:	4000c000 	.word	0x4000c000

10001b64 <watchdog_start_tick>:
10001b64:	2380      	movs	r3, #128	; 0x80
10001b66:	4a02      	ldr	r2, [pc, #8]	; (10001b70 <watchdog_start_tick+0xc>)
10001b68:	009b      	lsls	r3, r3, #2
10001b6a:	4303      	orrs	r3, r0
10001b6c:	62d3      	str	r3, [r2, #44]	; 0x2c
10001b6e:	4770      	bx	lr
10001b70:	40058000 	.word	0x40058000

10001b74 <watchdog_reboot>:
10001b74:	b510      	push	{r4, lr}
10001b76:	0014      	movs	r4, r2
10001b78:	2280      	movs	r2, #128	; 0x80
10001b7a:	4b1a      	ldr	r3, [pc, #104]	; (10001be4 <watchdog_reboot+0x70>)
10001b7c:	05d2      	lsls	r2, r2, #23
10001b7e:	601a      	str	r2, [r3, #0]
10001b80:	2800      	cmp	r0, #0
10001b82:	d02c      	beq.n	10001bde <watchdog_reboot+0x6a>
10001b84:	2301      	movs	r3, #1
10001b86:	4a18      	ldr	r2, [pc, #96]	; (10001be8 <watchdog_reboot+0x74>)
10001b88:	4318      	orrs	r0, r3
10001b8a:	4b18      	ldr	r3, [pc, #96]	; (10001bec <watchdog_reboot+0x78>)
10001b8c:	61da      	str	r2, [r3, #28]
10001b8e:	4a18      	ldr	r2, [pc, #96]	; (10001bf0 <watchdog_reboot+0x7c>)
10001b90:	4042      	eors	r2, r0
10001b92:	621a      	str	r2, [r3, #32]
10001b94:	6259      	str	r1, [r3, #36]	; 0x24
10001b96:	6298      	str	r0, [r3, #40]	; 0x28
10001b98:	2280      	movs	r2, #128	; 0x80
10001b9a:	4b12      	ldr	r3, [pc, #72]	; (10001be4 <watchdog_reboot+0x70>)
10001b9c:	05d2      	lsls	r2, r2, #23
10001b9e:	601a      	str	r2, [r3, #0]
10001ba0:	4914      	ldr	r1, [pc, #80]	; (10001bf4 <watchdog_reboot+0x80>)
10001ba2:	4a15      	ldr	r2, [pc, #84]	; (10001bf8 <watchdog_reboot+0x84>)
10001ba4:	6011      	str	r1, [r2, #0]
10001ba6:	22e0      	movs	r2, #224	; 0xe0
10001ba8:	04d2      	lsls	r2, r2, #19
10001baa:	601a      	str	r2, [r3, #0]
10001bac:	2c00      	cmp	r4, #0
10001bae:	d012      	beq.n	10001bd6 <watchdog_reboot+0x62>
10001bb0:	2380      	movs	r3, #128	; 0x80
10001bb2:	0162      	lsls	r2, r4, #5
10001bb4:	1b12      	subs	r2, r2, r4
10001bb6:	0092      	lsls	r2, r2, #2
10001bb8:	1912      	adds	r2, r2, r4
10001bba:	0112      	lsls	r2, r2, #4
10001bbc:	045b      	lsls	r3, r3, #17
10001bbe:	429a      	cmp	r2, r3
10001bc0:	d300      	bcc.n	10001bc4 <watchdog_reboot+0x50>
10001bc2:	4a0e      	ldr	r2, [pc, #56]	; (10001bfc <watchdog_reboot+0x88>)
10001bc4:	4b0e      	ldr	r3, [pc, #56]	; (10001c00 <watchdog_reboot+0x8c>)
10001bc6:	601a      	str	r2, [r3, #0]
10001bc8:	4b08      	ldr	r3, [pc, #32]	; (10001bec <watchdog_reboot+0x78>)
10001bca:	605a      	str	r2, [r3, #4]
10001bcc:	2280      	movs	r2, #128	; 0x80
10001bce:	4b0d      	ldr	r3, [pc, #52]	; (10001c04 <watchdog_reboot+0x90>)
10001bd0:	05d2      	lsls	r2, r2, #23
10001bd2:	601a      	str	r2, [r3, #0]
10001bd4:	bd10      	pop	{r4, pc}
10001bd6:	4a0c      	ldr	r2, [pc, #48]	; (10001c08 <watchdog_reboot+0x94>)
10001bd8:	4b09      	ldr	r3, [pc, #36]	; (10001c00 <watchdog_reboot+0x8c>)
10001bda:	601a      	str	r2, [r3, #0]
10001bdc:	e7f4      	b.n	10001bc8 <watchdog_reboot+0x54>
10001bde:	4b03      	ldr	r3, [pc, #12]	; (10001bec <watchdog_reboot+0x78>)
10001be0:	61d8      	str	r0, [r3, #28]
10001be2:	e7d9      	b.n	10001b98 <watchdog_reboot+0x24>
10001be4:	4005b000 	.word	0x4005b000
10001be8:	b007c0d3 	.word	0xb007c0d3
10001bec:	40058000 	.word	0x40058000
10001bf0:	4ff83f2d 	.word	0x4ff83f2d
10001bf4:	0001fffc 	.word	0x0001fffc
10001bf8:	40012008 	.word	0x40012008
10001bfc:	00ffffff 	.word	0x00ffffff
10001c00:	200018fc 	.word	0x200018fc
10001c04:	4005a000 	.word	0x4005a000
10001c08:	000186a0 	.word	0x000186a0

10001c0c <xosc_init>:
10001c0c:	23aa      	movs	r3, #170	; 0xaa
10001c0e:	4a06      	ldr	r2, [pc, #24]	; (10001c28 <xosc_init+0x1c>)
10001c10:	011b      	lsls	r3, r3, #4
10001c12:	6013      	str	r3, [r2, #0]
10001c14:	232f      	movs	r3, #47	; 0x2f
10001c16:	4905      	ldr	r1, [pc, #20]	; (10001c2c <xosc_init+0x20>)
10001c18:	60d3      	str	r3, [r2, #12]
10001c1a:	4b05      	ldr	r3, [pc, #20]	; (10001c30 <xosc_init+0x24>)
10001c1c:	6019      	str	r1, [r3, #0]
10001c1e:	6853      	ldr	r3, [r2, #4]
10001c20:	2b00      	cmp	r3, #0
10001c22:	dafc      	bge.n	10001c1e <xosc_init+0x12>
10001c24:	4770      	bx	lr
10001c26:	46c0      	nop			; (mov r8, r8)
10001c28:	40024000 	.word	0x40024000
10001c2c:	00fab000 	.word	0x00fab000
10001c30:	40026000 	.word	0x40026000

10001c34 <_out_char>:
10001c34:	b510      	push	{r4, lr}
10001c36:	2800      	cmp	r0, #0
10001c38:	d100      	bne.n	10001c3c <_out_char+0x8>
10001c3a:	bd10      	pop	{r4, pc}
10001c3c:	f000 fa30 	bl	100020a0 <__wrap_putchar>
10001c40:	e7fb      	b.n	10001c3a <_out_char+0x6>
10001c42:	46c0      	nop			; (mov r8, r8)

10001c44 <weak_raw_vprintf>:
10001c44:	b510      	push	{r4, lr}
10001c46:	4a09      	ldr	r2, [pc, #36]	; (10001c6c <weak_raw_vprintf+0x28>)
10001c48:	0003      	movs	r3, r0
10001c4a:	6814      	ldr	r4, [r2, #0]
10001c4c:	b084      	sub	sp, #16
10001c4e:	2c00      	cmp	r4, #0
10001c50:	d008      	beq.n	10001c64 <weak_raw_vprintf+0x20>
10001c52:	2201      	movs	r2, #1
10001c54:	9100      	str	r1, [sp, #0]
10001c56:	4806      	ldr	r0, [pc, #24]	; (10001c70 <weak_raw_vprintf+0x2c>)
10001c58:	4252      	negs	r2, r2
10001c5a:	a903      	add	r1, sp, #12
10001c5c:	47a0      	blx	r4
10001c5e:	2001      	movs	r0, #1
10001c60:	b004      	add	sp, #16
10001c62:	bd10      	pop	{r4, pc}
10001c64:	f000 fa2a 	bl	100020bc <__wrap_puts>
10001c68:	2000      	movs	r0, #0
10001c6a:	e7f9      	b.n	10001c60 <weak_raw_vprintf+0x1c>
10001c6c:	200018f8 	.word	0x200018f8
10001c70:	10001c35 	.word	0x10001c35

10001c74 <__aeabi_bits_init>:
10001c74:	4801      	ldr	r0, [pc, #4]	; (10001c7c <__aeabi_bits_init+0x8>)
10001c76:	2104      	movs	r1, #4
10001c78:	4b01      	ldr	r3, [pc, #4]	; (10001c80 <__aeabi_bits_init+0xc>)
10001c7a:	4718      	bx	r3
10001c7c:	20000470 	.word	0x20000470
10001c80:	10001ca5 	.word	0x10001ca5

10001c84 <rom_func_lookup>:
10001c84:	2314      	movs	r3, #20
10001c86:	b510      	push	{r4, lr}
10001c88:	0001      	movs	r1, r0
10001c8a:	8818      	ldrh	r0, [r3, #0]
10001c8c:	3304      	adds	r3, #4
10001c8e:	881b      	ldrh	r3, [r3, #0]
10001c90:	4798      	blx	r3
10001c92:	bd10      	pop	{r4, pc}

10001c94 <rom_data_lookup>:
10001c94:	2316      	movs	r3, #22
10001c96:	b510      	push	{r4, lr}
10001c98:	0001      	movs	r1, r0
10001c9a:	8818      	ldrh	r0, [r3, #0]
10001c9c:	3302      	adds	r3, #2
10001c9e:	881b      	ldrh	r3, [r3, #0]
10001ca0:	4798      	blx	r3
10001ca2:	bd10      	pop	{r4, pc}

10001ca4 <rom_funcs_lookup>:
10001ca4:	b5f0      	push	{r4, r5, r6, r7, lr}
10001ca6:	46c6      	mov	lr, r8
10001ca8:	b500      	push	{lr}
10001caa:	2900      	cmp	r1, #0
10001cac:	d016      	beq.n	10001cdc <rom_funcs_lookup+0x38>
10001cae:	2314      	movs	r3, #20
10001cb0:	0004      	movs	r4, r0
10001cb2:	2501      	movs	r5, #1
10001cb4:	4698      	mov	r8, r3
10001cb6:	2718      	movs	r7, #24
10001cb8:	0089      	lsls	r1, r1, #2
10001cba:	1846      	adds	r6, r0, r1
10001cbc:	4643      	mov	r3, r8
10001cbe:	6821      	ldr	r1, [r4, #0]
10001cc0:	8818      	ldrh	r0, [r3, #0]
10001cc2:	883b      	ldrh	r3, [r7, #0]
10001cc4:	4798      	blx	r3
10001cc6:	c401      	stmia	r4!, {r0}
10001cc8:	1e43      	subs	r3, r0, #1
10001cca:	4198      	sbcs	r0, r3
10001ccc:	4240      	negs	r0, r0
10001cce:	4005      	ands	r5, r0
10001cd0:	42a6      	cmp	r6, r4
10001cd2:	d1f3      	bne.n	10001cbc <rom_funcs_lookup+0x18>
10001cd4:	0028      	movs	r0, r5
10001cd6:	bc04      	pop	{r2}
10001cd8:	4690      	mov	r8, r2
10001cda:	bdf0      	pop	{r4, r5, r6, r7, pc}
10001cdc:	2501      	movs	r5, #1
10001cde:	e7f9      	b.n	10001cd4 <rom_funcs_lookup+0x30>

10001ce0 <__wrap___aeabi_uidiv>:
10001ce0:	4a11      	ldr	r2, [pc, #68]	; (10001d28 <divmod_u32u32_savestate+0x18>)
10001ce2:	6f93      	ldr	r3, [r2, #120]	; 0x78
10001ce4:	089b      	lsrs	r3, r3, #2
10001ce6:	d213      	bcs.n	10001d10 <divmod_u32u32_savestate>

10001ce8 <divmod_u32u32_unsafe>:
10001ce8:	6610      	str	r0, [r2, #96]	; 0x60
10001cea:	6651      	str	r1, [r2, #100]	; 0x64
10001cec:	2900      	cmp	r1, #0
10001cee:	d005      	beq.n	10001cfc <divmod_u32u32_unsafe+0x14>
10001cf0:	e7ff      	b.n	10001cf2 <divmod_u32u32_unsafe+0xa>
10001cf2:	e7ff      	b.n	10001cf4 <divmod_u32u32_unsafe+0xc>
10001cf4:	e7ff      	b.n	10001cf6 <divmod_u32u32_unsafe+0xe>
10001cf6:	6f51      	ldr	r1, [r2, #116]	; 0x74
10001cf8:	6f10      	ldr	r0, [r2, #112]	; 0x70
10001cfa:	4770      	bx	lr
10001cfc:	b504      	push	{r2, lr}
10001cfe:	2800      	cmp	r0, #0
10001d00:	d001      	beq.n	10001d06 <divmod_u32u32_unsafe+0x1e>
10001d02:	2000      	movs	r0, #0
10001d04:	43c0      	mvns	r0, r0
10001d06:	f006 f8c7 	bl	10007e98 <____aeabi_idiv0_veneer>
10001d0a:	2100      	movs	r1, #0
10001d0c:	bd04      	pop	{r2, pc}
10001d0e:	46c0      	nop			; (mov r8, r8)

10001d10 <divmod_u32u32_savestate>:
10001d10:	b5f0      	push	{r4, r5, r6, r7, lr}
10001d12:	6e14      	ldr	r4, [r2, #96]	; 0x60
10001d14:	6e55      	ldr	r5, [r2, #100]	; 0x64
10001d16:	6f57      	ldr	r7, [r2, #116]	; 0x74
10001d18:	6f16      	ldr	r6, [r2, #112]	; 0x70
10001d1a:	f7ff ffe5 	bl	10001ce8 <divmod_u32u32_unsafe>
10001d1e:	6614      	str	r4, [r2, #96]	; 0x60
10001d20:	6655      	str	r5, [r2, #100]	; 0x64
10001d22:	6757      	str	r7, [r2, #116]	; 0x74
10001d24:	6716      	str	r6, [r2, #112]	; 0x70
10001d26:	bdf0      	pop	{r4, r5, r6, r7, pc}
10001d28:	d0000000 	.word	0xd0000000

10001d2c <__aeabi_double_init>:
10001d2c:	2313      	movs	r3, #19
10001d2e:	b570      	push	{r4, r5, r6, lr}
10001d30:	781d      	ldrb	r5, [r3, #0]
10001d32:	2d01      	cmp	r5, #1
10001d34:	d010      	beq.n	10001d58 <__aeabi_double_init+0x2c>
10001d36:	dd0b      	ble.n	10001d50 <__aeabi_double_init+0x24>
10001d38:	4824      	ldr	r0, [pc, #144]	; (10001dcc <__aeabi_double_init+0xa0>)
10001d3a:	f7ff ffab 	bl	10001c94 <rom_data_lookup>
10001d3e:	4c24      	ldr	r4, [pc, #144]	; (10001dd0 <__aeabi_double_init+0xa4>)
10001d40:	0001      	movs	r1, r0
10001d42:	2280      	movs	r2, #128	; 0x80
10001d44:	0020      	movs	r0, r4
10001d46:	f000 f8e3 	bl	10001f10 <__wrap___aeabi_memcpy>
10001d4a:	2d02      	cmp	r5, #2
10001d4c:	d001      	beq.n	10001d52 <__aeabi_double_init+0x26>
10001d4e:	bd70      	pop	{r4, r5, r6, pc}
10001d50:	4c1f      	ldr	r4, [pc, #124]	; (10001dd0 <__aeabi_double_init+0xa4>)
10001d52:	4a20      	ldr	r2, [pc, #128]	; (10001dd4 <__aeabi_double_init+0xa8>)
10001d54:	64a2      	str	r2, [r4, #72]	; 0x48
10001d56:	e7fa      	b.n	10001d4e <__aeabi_double_init+0x22>
10001d58:	002e      	movs	r6, r5
10001d5a:	4c1d      	ldr	r4, [pc, #116]	; (10001dd0 <__aeabi_double_init+0xa4>)
10001d5c:	4a1d      	ldr	r2, [pc, #116]	; (10001dd4 <__aeabi_double_init+0xa8>)
10001d5e:	08a3      	lsrs	r3, r4, #2
10001d60:	425b      	negs	r3, r3
10001d62:	401e      	ands	r6, r3
10001d64:	421d      	tst	r5, r3
10001d66:	d02f      	beq.n	10001dc8 <__aeabi_double_init+0x9c>
10001d68:	0033      	movs	r3, r6
10001d6a:	6022      	str	r2, [r4, #0]
10001d6c:	2020      	movs	r0, #32
10001d6e:	00b1      	lsls	r1, r6, #2
10001d70:	1861      	adds	r1, r4, r1
10001d72:	1b80      	subs	r0, r0, r6
10001d74:	600a      	str	r2, [r1, #0]
10001d76:	604a      	str	r2, [r1, #4]
10001d78:	608a      	str	r2, [r1, #8]
10001d7a:	60ca      	str	r2, [r1, #12]
10001d7c:	610a      	str	r2, [r1, #16]
10001d7e:	614a      	str	r2, [r1, #20]
10001d80:	618a      	str	r2, [r1, #24]
10001d82:	61ca      	str	r2, [r1, #28]
10001d84:	620a      	str	r2, [r1, #32]
10001d86:	624a      	str	r2, [r1, #36]	; 0x24
10001d88:	628a      	str	r2, [r1, #40]	; 0x28
10001d8a:	62ca      	str	r2, [r1, #44]	; 0x2c
10001d8c:	630a      	str	r2, [r1, #48]	; 0x30
10001d8e:	634a      	str	r2, [r1, #52]	; 0x34
10001d90:	638a      	str	r2, [r1, #56]	; 0x38
10001d92:	63ca      	str	r2, [r1, #60]	; 0x3c
10001d94:	640a      	str	r2, [r1, #64]	; 0x40
10001d96:	644a      	str	r2, [r1, #68]	; 0x44
10001d98:	648a      	str	r2, [r1, #72]	; 0x48
10001d9a:	64ca      	str	r2, [r1, #76]	; 0x4c
10001d9c:	650a      	str	r2, [r1, #80]	; 0x50
10001d9e:	654a      	str	r2, [r1, #84]	; 0x54
10001da0:	658a      	str	r2, [r1, #88]	; 0x58
10001da2:	65ca      	str	r2, [r1, #92]	; 0x5c
10001da4:	660a      	str	r2, [r1, #96]	; 0x60
10001da6:	664a      	str	r2, [r1, #100]	; 0x64
10001da8:	668a      	str	r2, [r1, #104]	; 0x68
10001daa:	66ca      	str	r2, [r1, #108]	; 0x6c
10001dac:	670a      	str	r2, [r1, #112]	; 0x70
10001dae:	674a      	str	r2, [r1, #116]	; 0x74
10001db0:	0840      	lsrs	r0, r0, #1
10001db2:	2810      	cmp	r0, #16
10001db4:	d103      	bne.n	10001dbe <__aeabi_double_init+0x92>
10001db6:	678a      	str	r2, [r1, #120]	; 0x78
10001db8:	67ca      	str	r2, [r1, #124]	; 0x7c
10001dba:	64a2      	str	r2, [r4, #72]	; 0x48
10001dbc:	e7c7      	b.n	10001d4e <__aeabi_double_init+0x22>
10001dbe:	331e      	adds	r3, #30
10001dc0:	009b      	lsls	r3, r3, #2
10001dc2:	50e2      	str	r2, [r4, r3]
10001dc4:	64a2      	str	r2, [r4, #72]	; 0x48
10001dc6:	e7c2      	b.n	10001d4e <__aeabi_double_init+0x22>
10001dc8:	2300      	movs	r3, #0
10001dca:	e7cf      	b.n	10001d6c <__aeabi_double_init+0x40>
10001dcc:	00004453 	.word	0x00004453
10001dd0:	20001958 	.word	0x20001958
10001dd4:	10001dd9 	.word	0x10001dd9

10001dd8 <double_table_shim_on_use_helper>:
10001dd8:	b507      	push	{r0, r1, r2, lr}
10001dda:	4660      	mov	r0, ip
10001ddc:	8801      	ldrh	r1, [r0, #0]
10001dde:	0a0a      	lsrs	r2, r1, #8
10001de0:	3002      	adds	r0, #2
10001de2:	2adf      	cmp	r2, #223	; 0xdf
10001de4:	d1fa      	bne.n	10001ddc <double_table_shim_on_use_helper+0x4>
10001de6:	b2c9      	uxtb	r1, r1
10001de8:	0882      	lsrs	r2, r0, #2
10001dea:	d304      	bcc.n	10001df6 <double_table_shim_on_use_helper+0x1e>
10001dec:	8802      	ldrh	r2, [r0, #0]
10001dee:	8840      	ldrh	r0, [r0, #2]
10001df0:	0400      	lsls	r0, r0, #16
10001df2:	4310      	orrs	r0, r2
10001df4:	e000      	b.n	10001df8 <double_table_shim_on_use_helper+0x20>
10001df6:	6800      	ldr	r0, [r0, #0]
10001df8:	4a01      	ldr	r2, [pc, #4]	; (10001e00 <double_table_shim_on_use_helper+0x28>)
10001dfa:	5050      	str	r0, [r2, r1]
10001dfc:	9003      	str	r0, [sp, #12]
10001dfe:	bd07      	pop	{r0, r1, r2, pc}
10001e00:	20001958 	.word	0x20001958

10001e04 <__wrap___aeabi_lmul>:
10001e04:	4351      	muls	r1, r2
10001e06:	4343      	muls	r3, r0
10001e08:	18c9      	adds	r1, r1, r3
10001e0a:	468c      	mov	ip, r1
10001e0c:	0c11      	lsrs	r1, r2, #16
10001e0e:	b283      	uxth	r3, r0
10001e10:	434b      	muls	r3, r1
10001e12:	b410      	push	{r4}
10001e14:	0c04      	lsrs	r4, r0, #16
10001e16:	4361      	muls	r1, r4
10001e18:	b292      	uxth	r2, r2
10001e1a:	b280      	uxth	r0, r0
10001e1c:	4350      	muls	r0, r2
10001e1e:	4362      	muls	r2, r4
10001e20:	041c      	lsls	r4, r3, #16
10001e22:	0c1b      	lsrs	r3, r3, #16
10001e24:	1900      	adds	r0, r0, r4
10001e26:	bc10      	pop	{r4}
10001e28:	4159      	adcs	r1, r3
10001e2a:	0413      	lsls	r3, r2, #16
10001e2c:	0c12      	lsrs	r2, r2, #16
10001e2e:	18c0      	adds	r0, r0, r3
10001e30:	4151      	adcs	r1, r2
10001e32:	4461      	add	r1, ip
10001e34:	4770      	bx	lr
	...

10001e38 <__aeabi_float_init>:
10001e38:	2313      	movs	r3, #19
10001e3a:	b510      	push	{r4, lr}
10001e3c:	4812      	ldr	r0, [pc, #72]	; (10001e88 <__aeabi_float_init+0x50>)
10001e3e:	781c      	ldrb	r4, [r3, #0]
10001e40:	f7ff ff28 	bl	10001c94 <rom_data_lookup>
10001e44:	0001      	movs	r1, r0
10001e46:	2c01      	cmp	r4, #1
10001e48:	d00a      	beq.n	10001e60 <__aeabi_float_init+0x28>
10001e4a:	dd03      	ble.n	10001e54 <__aeabi_float_init+0x1c>
10001e4c:	2280      	movs	r2, #128	; 0x80
10001e4e:	480f      	ldr	r0, [pc, #60]	; (10001e8c <__aeabi_float_init+0x54>)
10001e50:	f000 f85e 	bl	10001f10 <__wrap___aeabi_memcpy>
10001e54:	480e      	ldr	r0, [pc, #56]	; (10001e90 <__aeabi_float_init+0x58>)
10001e56:	f7ff ff15 	bl	10001c84 <rom_func_lookup>
10001e5a:	4b0e      	ldr	r3, [pc, #56]	; (10001e94 <__aeabi_float_init+0x5c>)
10001e5c:	6018      	str	r0, [r3, #0]
10001e5e:	bd10      	pop	{r4, pc}
10001e60:	4c0a      	ldr	r4, [pc, #40]	; (10001e8c <__aeabi_float_init+0x54>)
10001e62:	2254      	movs	r2, #84	; 0x54
10001e64:	0020      	movs	r0, r4
10001e66:	f000 f853 	bl	10001f10 <__wrap___aeabi_memcpy>
10001e6a:	4b0b      	ldr	r3, [pc, #44]	; (10001e98 <__aeabi_float_init+0x60>)
10001e6c:	6563      	str	r3, [r4, #84]	; 0x54
10001e6e:	65a3      	str	r3, [r4, #88]	; 0x58
10001e70:	65e3      	str	r3, [r4, #92]	; 0x5c
10001e72:	6623      	str	r3, [r4, #96]	; 0x60
10001e74:	6663      	str	r3, [r4, #100]	; 0x64
10001e76:	66a3      	str	r3, [r4, #104]	; 0x68
10001e78:	66e3      	str	r3, [r4, #108]	; 0x6c
10001e7a:	6723      	str	r3, [r4, #112]	; 0x70
10001e7c:	6763      	str	r3, [r4, #116]	; 0x74
10001e7e:	67a3      	str	r3, [r4, #120]	; 0x78
10001e80:	67e3      	str	r3, [r4, #124]	; 0x7c
10001e82:	6223      	str	r3, [r4, #32]
10001e84:	61e3      	str	r3, [r4, #28]
10001e86:	e7e5      	b.n	10001e54 <__aeabi_float_init+0x1c>
10001e88:	00004653 	.word	0x00004653
10001e8c:	20001a58 	.word	0x20001a58
10001e90:	0000334c 	.word	0x0000334c
10001e94:	20001b58 	.word	0x20001b58
10001e98:	10001e9d 	.word	0x10001e9d

10001e9c <float_table_shim_on_use_helper>:
10001e9c:	b507      	push	{r0, r1, r2, lr}
10001e9e:	4660      	mov	r0, ip
10001ea0:	8801      	ldrh	r1, [r0, #0]
10001ea2:	0a0a      	lsrs	r2, r1, #8
10001ea4:	3002      	adds	r0, #2
10001ea6:	2adf      	cmp	r2, #223	; 0xdf
10001ea8:	d1fa      	bne.n	10001ea0 <float_table_shim_on_use_helper+0x4>
10001eaa:	b2c9      	uxtb	r1, r1
10001eac:	0882      	lsrs	r2, r0, #2
10001eae:	d304      	bcc.n	10001eba <float_table_shim_on_use_helper+0x1e>
10001eb0:	8802      	ldrh	r2, [r0, #0]
10001eb2:	8840      	ldrh	r0, [r0, #2]
10001eb4:	0400      	lsls	r0, r0, #16
10001eb6:	4310      	orrs	r0, r2
10001eb8:	e000      	b.n	10001ebc <float_table_shim_on_use_helper+0x20>
10001eba:	6800      	ldr	r0, [r0, #0]
10001ebc:	4a01      	ldr	r2, [pc, #4]	; (10001ec4 <float_table_shim_on_use_helper+0x28>)
10001ebe:	5050      	str	r0, [r2, r1]
10001ec0:	9003      	str	r0, [sp, #12]
10001ec2:	bd07      	pop	{r0, r1, r2, pc}
10001ec4:	20001a58 	.word	0x20001a58

10001ec8 <__wrap_malloc>:
10001ec8:	b510      	push	{r4, lr}
10001eca:	0004      	movs	r4, r0
10001ecc:	f005 fb90 	bl	100075f0 <malloc>
10001ed0:	2800      	cmp	r0, #0
10001ed2:	d004      	beq.n	10001ede <__wrap_malloc+0x16>
10001ed4:	4b03      	ldr	r3, [pc, #12]	; (10001ee4 <__wrap_malloc+0x1c>)
10001ed6:	1904      	adds	r4, r0, r4
10001ed8:	429c      	cmp	r4, r3
10001eda:	d800      	bhi.n	10001ede <__wrap_malloc+0x16>
10001edc:	bd10      	pop	{r4, pc}
10001ede:	4802      	ldr	r0, [pc, #8]	; (10001ee8 <__wrap_malloc+0x20>)
10001ee0:	f7ff fad2 	bl	10001488 <panic>
10001ee4:	20040000 	.word	0x20040000
10001ee8:	10007f80 	.word	0x10007f80

10001eec <__wrap_free>:
10001eec:	b510      	push	{r4, lr}
10001eee:	f005 fb89 	bl	10007604 <free>
10001ef2:	bd10      	pop	{r4, pc}

10001ef4 <__aeabi_mem_init>:
10001ef4:	4801      	ldr	r0, [pc, #4]	; (10001efc <__aeabi_mem_init+0x8>)
10001ef6:	2104      	movs	r1, #4
10001ef8:	4b01      	ldr	r3, [pc, #4]	; (10001f00 <__aeabi_mem_init+0xc>)
10001efa:	4718      	bx	r3
10001efc:	20000480 	.word	0x20000480
10001f00:	10001ca5 	.word	0x10001ca5

10001f04 <__wrap_memset>:
10001f04:	4b01      	ldr	r3, [pc, #4]	; (10001f0c <__wrap_memset+0x8>)
10001f06:	681b      	ldr	r3, [r3, #0]
10001f08:	4718      	bx	r3
10001f0a:	0000      	.short	0x0000
10001f0c:	20000480 	.word	0x20000480

10001f10 <__wrap___aeabi_memcpy>:
10001f10:	4b01      	ldr	r3, [pc, #4]	; (10001f18 <__wrap___aeabi_memcpy+0x8>)
10001f12:	685b      	ldr	r3, [r3, #4]
10001f14:	4718      	bx	r3
10001f16:	0000      	.short	0x0000
10001f18:	20000480 	.word	0x20000480

10001f1c <stdio_out_chars_crlf.part.0>:
10001f1c:	b5f8      	push	{r3, r4, r5, r6, r7, lr}
10001f1e:	4647      	mov	r7, r8
10001f20:	46ce      	mov	lr, r9
10001f22:	000d      	movs	r5, r1
10001f24:	b580      	push	{r7, lr}
10001f26:	0016      	movs	r6, r2
10001f28:	0007      	movs	r7, r0
10001f2a:	2a00      	cmp	r2, #0
10001f2c:	dd20      	ble.n	10001f70 <stdio_out_chars_crlf.part.0+0x54>
10001f2e:	1e4b      	subs	r3, r1, #1
10001f30:	4698      	mov	r8, r3
10001f32:	4b1a      	ldr	r3, [pc, #104]	; (10001f9c <stdio_out_chars_crlf.part.0+0x80>)
10001f34:	2400      	movs	r4, #0
10001f36:	2000      	movs	r0, #0
10001f38:	4699      	mov	r9, r3
10001f3a:	2c00      	cmp	r4, #0
10001f3c:	d02b      	beq.n	10001f96 <stdio_out_chars_crlf.part.0+0x7a>
10001f3e:	4643      	mov	r3, r8
10001f40:	5d1b      	ldrb	r3, [r3, r4]
10001f42:	3b0d      	subs	r3, #13
10001f44:	425a      	negs	r2, r3
10001f46:	4153      	adcs	r3, r2
10001f48:	b2db      	uxtb	r3, r3
10001f4a:	5d2a      	ldrb	r2, [r5, r4]
10001f4c:	2a0a      	cmp	r2, #10
10001f4e:	d013      	beq.n	10001f78 <stdio_out_chars_crlf.part.0+0x5c>
10001f50:	3401      	adds	r4, #1
10001f52:	42a6      	cmp	r6, r4
10001f54:	dcf1      	bgt.n	10001f3a <stdio_out_chars_crlf.part.0+0x1e>
10001f56:	4286      	cmp	r6, r0
10001f58:	dd03      	ble.n	10001f62 <stdio_out_chars_crlf.part.0+0x46>
10001f5a:	1a31      	subs	r1, r6, r0
10001f5c:	683b      	ldr	r3, [r7, #0]
10001f5e:	1828      	adds	r0, r5, r0
10001f60:	4798      	blx	r3
10001f62:	19ad      	adds	r5, r5, r6
10001f64:	3d01      	subs	r5, #1
10001f66:	782b      	ldrb	r3, [r5, #0]
10001f68:	3b0d      	subs	r3, #13
10001f6a:	425a      	negs	r2, r3
10001f6c:	4153      	adcs	r3, r2
10001f6e:	743b      	strb	r3, [r7, #16]
10001f70:	bc0c      	pop	{r2, r3}
10001f72:	4690      	mov	r8, r2
10001f74:	4699      	mov	r9, r3
10001f76:	bdf8      	pop	{r3, r4, r5, r6, r7, pc}
10001f78:	2b00      	cmp	r3, #0
10001f7a:	d1e9      	bne.n	10001f50 <stdio_out_chars_crlf.part.0+0x34>
10001f7c:	42a0      	cmp	r0, r4
10001f7e:	da03      	bge.n	10001f88 <stdio_out_chars_crlf.part.0+0x6c>
10001f80:	1a21      	subs	r1, r4, r0
10001f82:	683b      	ldr	r3, [r7, #0]
10001f84:	1828      	adds	r0, r5, r0
10001f86:	4798      	blx	r3
10001f88:	4648      	mov	r0, r9
10001f8a:	2102      	movs	r1, #2
10001f8c:	683b      	ldr	r3, [r7, #0]
10001f8e:	3401      	adds	r4, #1
10001f90:	4798      	blx	r3
10001f92:	0020      	movs	r0, r4
10001f94:	e7dd      	b.n	10001f52 <stdio_out_chars_crlf.part.0+0x36>
10001f96:	7c3b      	ldrb	r3, [r7, #16]
10001f98:	e7d7      	b.n	10001f4a <stdio_out_chars_crlf.part.0+0x2e>
10001f9a:	46c0      	nop			; (mov r8, r8)
10001f9c:	10007ff0 	.word	0x10007ff0

10001fa0 <stdio_put_string>:
10001fa0:	b5f0      	push	{r4, r5, r6, r7, lr}
10001fa2:	4657      	mov	r7, sl
10001fa4:	4645      	mov	r5, r8
10001fa6:	46de      	mov	lr, fp
10001fa8:	464e      	mov	r6, r9
10001faa:	23d0      	movs	r3, #208	; 0xd0
10001fac:	b5e0      	push	{r5, r6, r7, lr}
10001fae:	061b      	lsls	r3, r3, #24
10001fb0:	681c      	ldr	r4, [r3, #0]
10001fb2:	4b37      	ldr	r3, [pc, #220]	; (10002090 <stdio_put_string+0xf0>)
10001fb4:	b083      	sub	sp, #12
10001fb6:	0007      	movs	r7, r0
10001fb8:	000d      	movs	r5, r1
10001fba:	0018      	movs	r0, r3
10001fbc:	a901      	add	r1, sp, #4
10001fbe:	4690      	mov	r8, r2
10001fc0:	469a      	mov	sl, r3
10001fc2:	f005 ff71 	bl	10007ea8 <__mutex_try_enter_veneer>
10001fc6:	4681      	mov	r9, r0
10001fc8:	2800      	cmp	r0, #0
10001fca:	d108      	bne.n	10001fde <stdio_put_string+0x3e>
10001fcc:	9b01      	ldr	r3, [sp, #4]
10001fce:	b264      	sxtb	r4, r4
10001fd0:	429c      	cmp	r4, r3
10001fd2:	d004      	beq.n	10001fde <stdio_put_string+0x3e>
10001fd4:	4650      	mov	r0, sl
10001fd6:	f005 ff77 	bl	10007ec8 <__mutex_enter_blocking_veneer>
10001fda:	2301      	movs	r3, #1
10001fdc:	4699      	mov	r9, r3
10001fde:	1c6b      	adds	r3, r5, #1
10001fe0:	d103      	bne.n	10001fea <stdio_put_string+0x4a>
10001fe2:	0038      	movs	r0, r7
10001fe4:	f005 fde8 	bl	10007bb8 <strlen>
10001fe8:	0005      	movs	r5, r0
10001fea:	4b2a      	ldr	r3, [pc, #168]	; (10002094 <stdio_put_string+0xf4>)
10001fec:	681c      	ldr	r4, [r3, #0]
10001fee:	2c00      	cmp	r4, #0
10001ff0:	d02f      	beq.n	10002052 <stdio_put_string+0xb2>
10001ff2:	230a      	movs	r3, #10
10001ff4:	4e28      	ldr	r6, [pc, #160]	; (10002098 <stdio_put_string+0xf8>)
10001ff6:	469b      	mov	fp, r3
10001ff8:	e002      	b.n	10002000 <stdio_put_string+0x60>
10001ffa:	68e4      	ldr	r4, [r4, #12]
10001ffc:	2c00      	cmp	r4, #0
10001ffe:	d028      	beq.n	10002052 <stdio_put_string+0xb2>
10002000:	6822      	ldr	r2, [r4, #0]
10002002:	2a00      	cmp	r2, #0
10002004:	d0f9      	beq.n	10001ffa <stdio_put_string+0x5a>
10002006:	6833      	ldr	r3, [r6, #0]
10002008:	2b00      	cmp	r3, #0
1000200a:	d001      	beq.n	10002010 <stdio_put_string+0x70>
1000200c:	42a3      	cmp	r3, r4
1000200e:	d1f4      	bne.n	10001ffa <stdio_put_string+0x5a>
10002010:	7c63      	ldrb	r3, [r4, #17]
10002012:	2b00      	cmp	r3, #0
10002014:	d02a      	beq.n	1000206c <stdio_put_string+0xcc>
10002016:	002a      	movs	r2, r5
10002018:	0039      	movs	r1, r7
1000201a:	0020      	movs	r0, r4
1000201c:	f7ff ff7e 	bl	10001f1c <stdio_out_chars_crlf.part.0>
10002020:	4643      	mov	r3, r8
10002022:	2b00      	cmp	r3, #0
10002024:	d0e9      	beq.n	10001ffa <stdio_put_string+0x5a>
10002026:	466b      	mov	r3, sp
10002028:	465a      	mov	r2, fp
1000202a:	711a      	strb	r2, [r3, #4]
1000202c:	7c63      	ldrb	r3, [r4, #17]
1000202e:	2b00      	cmp	r3, #0
10002030:	d020      	beq.n	10002074 <stdio_put_string+0xd4>
10002032:	7c23      	ldrb	r3, [r4, #16]
10002034:	2b00      	cmp	r3, #0
10002036:	d026      	beq.n	10002086 <stdio_put_string+0xe6>
10002038:	2101      	movs	r1, #1
1000203a:	6823      	ldr	r3, [r4, #0]
1000203c:	a801      	add	r0, sp, #4
1000203e:	4798      	blx	r3
10002040:	466b      	mov	r3, sp
10002042:	791b      	ldrb	r3, [r3, #4]
10002044:	3b0d      	subs	r3, #13
10002046:	425a      	negs	r2, r3
10002048:	4153      	adcs	r3, r2
1000204a:	7423      	strb	r3, [r4, #16]
1000204c:	68e4      	ldr	r4, [r4, #12]
1000204e:	2c00      	cmp	r4, #0
10002050:	d1d6      	bne.n	10002000 <stdio_put_string+0x60>
10002052:	464b      	mov	r3, r9
10002054:	2b00      	cmp	r3, #0
10002056:	d112      	bne.n	1000207e <stdio_put_string+0xde>
10002058:	1e68      	subs	r0, r5, #1
1000205a:	4185      	sbcs	r5, r0
1000205c:	b2e8      	uxtb	r0, r5
1000205e:	b003      	add	sp, #12
10002060:	bc3c      	pop	{r2, r3, r4, r5}
10002062:	4690      	mov	r8, r2
10002064:	4699      	mov	r9, r3
10002066:	46a2      	mov	sl, r4
10002068:	46ab      	mov	fp, r5
1000206a:	bdf0      	pop	{r4, r5, r6, r7, pc}
1000206c:	0029      	movs	r1, r5
1000206e:	0038      	movs	r0, r7
10002070:	4790      	blx	r2
10002072:	e7d5      	b.n	10002020 <stdio_put_string+0x80>
10002074:	2101      	movs	r1, #1
10002076:	6823      	ldr	r3, [r4, #0]
10002078:	a801      	add	r0, sp, #4
1000207a:	4798      	blx	r3
1000207c:	e7bd      	b.n	10001ffa <stdio_put_string+0x5a>
1000207e:	4650      	mov	r0, sl
10002080:	f005 ff02 	bl	10007e88 <__mutex_exit_veneer>
10002084:	e7e8      	b.n	10002058 <stdio_put_string+0xb8>
10002086:	2102      	movs	r1, #2
10002088:	4804      	ldr	r0, [pc, #16]	; (1000209c <stdio_put_string+0xfc>)
1000208a:	6823      	ldr	r3, [r4, #0]
1000208c:	4798      	blx	r3
1000208e:	e7d7      	b.n	10002040 <stdio_put_string+0xa0>
10002090:	20000d18 	.word	0x20000d18
10002094:	200014ec 	.word	0x200014ec
10002098:	200014f0 	.word	0x200014f0
1000209c:	10007ff0 	.word	0x10007ff0

100020a0 <__wrap_putchar>:
100020a0:	b510      	push	{r4, lr}
100020a2:	b082      	sub	sp, #8
100020a4:	466b      	mov	r3, sp
100020a6:	0004      	movs	r4, r0
100020a8:	2200      	movs	r2, #0
100020aa:	1dd8      	adds	r0, r3, #7
100020ac:	2101      	movs	r1, #1
100020ae:	7004      	strb	r4, [r0, #0]
100020b0:	f7ff ff76 	bl	10001fa0 <stdio_put_string>
100020b4:	0020      	movs	r0, r4
100020b6:	b002      	add	sp, #8
100020b8:	bd10      	pop	{r4, pc}
100020ba:	46c0      	nop			; (mov r8, r8)

100020bc <__wrap_puts>:
100020bc:	b570      	push	{r4, r5, r6, lr}
100020be:	0004      	movs	r4, r0
100020c0:	f005 fd7a 	bl	10007bb8 <strlen>
100020c4:	2201      	movs	r2, #1
100020c6:	0001      	movs	r1, r0
100020c8:	0005      	movs	r5, r0
100020ca:	0020      	movs	r0, r4
100020cc:	f7ff ff68 	bl	10001fa0 <stdio_put_string>
100020d0:	4b08      	ldr	r3, [pc, #32]	; (100020f4 <__wrap_puts+0x38>)
100020d2:	681c      	ldr	r4, [r3, #0]
100020d4:	2c00      	cmp	r4, #0
100020d6:	d006      	beq.n	100020e6 <__wrap_puts+0x2a>
100020d8:	6863      	ldr	r3, [r4, #4]
100020da:	2b00      	cmp	r3, #0
100020dc:	d005      	beq.n	100020ea <__wrap_puts+0x2e>
100020de:	4798      	blx	r3
100020e0:	68e4      	ldr	r4, [r4, #12]
100020e2:	2c00      	cmp	r4, #0
100020e4:	d1f8      	bne.n	100020d8 <__wrap_puts+0x1c>
100020e6:	0028      	movs	r0, r5
100020e8:	bd70      	pop	{r4, r5, r6, pc}
100020ea:	68e4      	ldr	r4, [r4, #12]
100020ec:	2c00      	cmp	r4, #0
100020ee:	d1f3      	bne.n	100020d8 <__wrap_puts+0x1c>
100020f0:	e7f9      	b.n	100020e6 <__wrap_puts+0x2a>
100020f2:	46c0      	nop			; (mov r8, r8)
100020f4:	200014ec 	.word	0x200014ec

100020f8 <stdio_set_driver_enabled>:
100020f8:	4a0d      	ldr	r2, [pc, #52]	; (10002130 <stdio_set_driver_enabled+0x38>)
100020fa:	6813      	ldr	r3, [r2, #0]
100020fc:	2b00      	cmp	r3, #0
100020fe:	d013      	beq.n	10002128 <stdio_set_driver_enabled+0x30>
10002100:	4283      	cmp	r3, r0
10002102:	d102      	bne.n	1000210a <stdio_set_driver_enabled+0x12>
10002104:	e009      	b.n	1000211a <stdio_set_driver_enabled+0x22>
10002106:	4298      	cmp	r0, r3
10002108:	d008      	beq.n	1000211c <stdio_set_driver_enabled+0x24>
1000210a:	001a      	movs	r2, r3
1000210c:	68db      	ldr	r3, [r3, #12]
1000210e:	2b00      	cmp	r3, #0
10002110:	d1f9      	bne.n	10002106 <stdio_set_driver_enabled+0xe>
10002112:	2900      	cmp	r1, #0
10002114:	d000      	beq.n	10002118 <stdio_set_driver_enabled+0x20>
10002116:	60d0      	str	r0, [r2, #12]
10002118:	4770      	bx	lr
1000211a:	001a      	movs	r2, r3
1000211c:	2900      	cmp	r1, #0
1000211e:	d1fb      	bne.n	10002118 <stdio_set_driver_enabled+0x20>
10002120:	68db      	ldr	r3, [r3, #12]
10002122:	60d3      	str	r3, [r2, #12]
10002124:	60c1      	str	r1, [r0, #12]
10002126:	e7f7      	b.n	10002118 <stdio_set_driver_enabled+0x20>
10002128:	2900      	cmp	r1, #0
1000212a:	d0f5      	beq.n	10002118 <stdio_set_driver_enabled+0x20>
1000212c:	6010      	str	r0, [r2, #0]
1000212e:	e7f3      	b.n	10002118 <stdio_set_driver_enabled+0x20>
10002130:	200014ec 	.word	0x200014ec

10002134 <stdio_init_all>:
10002134:	b510      	push	{r4, lr}
10002136:	f000 f935 	bl	100023a4 <stdio_usb_init>
1000213a:	bd10      	pop	{r4, pc}

1000213c <resetd_init>:
1000213c:	4770      	bx	lr
1000213e:	46c0      	nop			; (mov r8, r8)

10002140 <resetd_reset>:
10002140:	2200      	movs	r2, #0
10002142:	4b01      	ldr	r3, [pc, #4]	; (10002148 <resetd_reset+0x8>)
10002144:	701a      	strb	r2, [r3, #0]
10002146:	4770      	bx	lr
10002148:	20001955 	.word	0x20001955

1000214c <resetd_open>:
1000214c:	794b      	ldrb	r3, [r1, #5]
1000214e:	2000      	movs	r0, #0
10002150:	2bff      	cmp	r3, #255	; 0xff
10002152:	d10b      	bne.n	1000216c <resetd_open+0x20>
10002154:	798b      	ldrb	r3, [r1, #6]
10002156:	2b00      	cmp	r3, #0
10002158:	d108      	bne.n	1000216c <resetd_open+0x20>
1000215a:	79cb      	ldrb	r3, [r1, #7]
1000215c:	2b01      	cmp	r3, #1
1000215e:	d105      	bne.n	1000216c <resetd_open+0x20>
10002160:	2a08      	cmp	r2, #8
10002162:	d903      	bls.n	1000216c <resetd_open+0x20>
10002164:	788a      	ldrb	r2, [r1, #2]
10002166:	4b02      	ldr	r3, [pc, #8]	; (10002170 <resetd_open+0x24>)
10002168:	3009      	adds	r0, #9
1000216a:	701a      	strb	r2, [r3, #0]
1000216c:	4770      	bx	lr
1000216e:	46c0      	nop			; (mov r8, r8)
10002170:	20001955 	.word	0x20001955

10002174 <resetd_xfer_cb>:
10002174:	2001      	movs	r0, #1
10002176:	4770      	bx	lr

10002178 <resetd_control_xfer_cb>:
10002178:	b570      	push	{r4, r5, r6, lr}
1000217a:	2900      	cmp	r1, #0
1000217c:	d115      	bne.n	100021aa <resetd_control_xfer_cb+0x32>
1000217e:	4915      	ldr	r1, [pc, #84]	; (100021d4 <resetd_control_xfer_cb+0x5c>)
10002180:	7953      	ldrb	r3, [r2, #5]
10002182:	7910      	ldrb	r0, [r2, #4]
10002184:	7809      	ldrb	r1, [r1, #0]
10002186:	021b      	lsls	r3, r3, #8
10002188:	4303      	orrs	r3, r0
1000218a:	2000      	movs	r0, #0
1000218c:	4299      	cmp	r1, r3
1000218e:	d000      	beq.n	10002192 <resetd_control_xfer_cb+0x1a>
10002190:	bd70      	pop	{r4, r5, r6, pc}
10002192:	7853      	ldrb	r3, [r2, #1]
10002194:	2b01      	cmp	r3, #1
10002196:	d00a      	beq.n	100021ae <resetd_control_xfer_cb+0x36>
10002198:	2b02      	cmp	r3, #2
1000219a:	d1f9      	bne.n	10002190 <resetd_control_xfer_cb+0x18>
1000219c:	2000      	movs	r0, #0
1000219e:	2264      	movs	r2, #100	; 0x64
100021a0:	2100      	movs	r1, #0
100021a2:	f7ff fce7 	bl	10001b74 <watchdog_reboot>
100021a6:	2001      	movs	r0, #1
100021a8:	e7f2      	b.n	10002190 <resetd_control_xfer_cb+0x18>
100021aa:	2001      	movs	r0, #1
100021ac:	e7f0      	b.n	10002190 <resetd_control_xfer_cb+0x18>
100021ae:	7894      	ldrb	r4, [r2, #2]
100021b0:	78d2      	ldrb	r2, [r2, #3]
100021b2:	0005      	movs	r5, r0
100021b4:	0212      	lsls	r2, r2, #8
100021b6:	4314      	orrs	r4, r2
100021b8:	05d2      	lsls	r2, r2, #23
100021ba:	d502      	bpl.n	100021c2 <resetd_control_xfer_cb+0x4a>
100021bc:	0a62      	lsrs	r2, r4, #9
100021be:	4093      	lsls	r3, r2
100021c0:	001d      	movs	r5, r3
100021c2:	4805      	ldr	r0, [pc, #20]	; (100021d8 <resetd_control_xfer_cb+0x60>)
100021c4:	f7ff fd5e 	bl	10001c84 <rom_func_lookup>
100021c8:	217f      	movs	r1, #127	; 0x7f
100021ca:	0003      	movs	r3, r0
100021cc:	4021      	ands	r1, r4
100021ce:	0028      	movs	r0, r5
100021d0:	4798      	blx	r3
100021d2:	46c0      	nop			; (mov r8, r8)
100021d4:	20001955 	.word	0x20001955
100021d8:	00004255 	.word	0x00004255

100021dc <usbd_app_driver_get_cb>:
100021dc:	2301      	movs	r3, #1
100021de:	7003      	strb	r3, [r0, #0]
100021e0:	4800      	ldr	r0, [pc, #0]	; (100021e4 <usbd_app_driver_get_cb+0x8>)
100021e2:	4770      	bx	lr
100021e4:	10007ff4 	.word	0x10007ff4

100021e8 <tud_cdc_line_coding_cb>:
100021e8:	784a      	ldrb	r2, [r1, #1]
100021ea:	780b      	ldrb	r3, [r1, #0]
100021ec:	0212      	lsls	r2, r2, #8
100021ee:	431a      	orrs	r2, r3
100021f0:	788b      	ldrb	r3, [r1, #2]
100021f2:	b510      	push	{r4, lr}
100021f4:	041b      	lsls	r3, r3, #16
100021f6:	431a      	orrs	r2, r3
100021f8:	78cb      	ldrb	r3, [r1, #3]
100021fa:	061b      	lsls	r3, r3, #24
100021fc:	4313      	orrs	r3, r2
100021fe:	2296      	movs	r2, #150	; 0x96
10002200:	00d2      	lsls	r2, r2, #3
10002202:	4293      	cmp	r3, r2
10002204:	d000      	beq.n	10002208 <tud_cdc_line_coding_cb+0x20>
10002206:	bd10      	pop	{r4, pc}
10002208:	4803      	ldr	r0, [pc, #12]	; (10002218 <tud_cdc_line_coding_cb+0x30>)
1000220a:	f7ff fd3b 	bl	10001c84 <rom_func_lookup>
1000220e:	2100      	movs	r1, #0
10002210:	0003      	movs	r3, r0
10002212:	0008      	movs	r0, r1
10002214:	4798      	blx	r3
10002216:	46c0      	nop			; (mov r8, r8)
10002218:	00004255 	.word	0x00004255

1000221c <stdio_usb_in_chars>:
1000221c:	b570      	push	{r4, r5, r6, lr}
1000221e:	4c18      	ldr	r4, [pc, #96]	; (10002280 <stdio_usb_in_chars+0x64>)
10002220:	b082      	sub	sp, #8
10002222:	0006      	movs	r6, r0
10002224:	000d      	movs	r5, r1
10002226:	0020      	movs	r0, r4
10002228:	a901      	add	r1, sp, #4
1000222a:	f005 fe3d 	bl	10007ea8 <__mutex_try_enter_veneer>
1000222e:	2800      	cmp	r0, #0
10002230:	d108      	bne.n	10002244 <stdio_usb_in_chars+0x28>
10002232:	23d0      	movs	r3, #208	; 0xd0
10002234:	061b      	lsls	r3, r3, #24
10002236:	681b      	ldr	r3, [r3, #0]
10002238:	9a01      	ldr	r2, [sp, #4]
1000223a:	429a      	cmp	r2, r3
1000223c:	d01c      	beq.n	10002278 <stdio_usb_in_chars+0x5c>
1000223e:	0020      	movs	r0, r4
10002240:	f005 fe42 	bl	10007ec8 <__mutex_enter_blocking_veneer>
10002244:	2000      	movs	r0, #0
10002246:	f001 fc55 	bl	10003af4 <tud_cdc_n_connected>
1000224a:	2800      	cmp	r0, #0
1000224c:	d107      	bne.n	1000225e <stdio_usb_in_chars+0x42>
1000224e:	2503      	movs	r5, #3
10002250:	426d      	negs	r5, r5
10002252:	0020      	movs	r0, r4
10002254:	f005 fe18 	bl	10007e88 <__mutex_exit_veneer>
10002258:	0028      	movs	r0, r5
1000225a:	b002      	add	sp, #8
1000225c:	bd70      	pop	{r4, r5, r6, pc}
1000225e:	2000      	movs	r0, #0
10002260:	f001 fc60 	bl	10003b24 <tud_cdc_n_available>
10002264:	2800      	cmp	r0, #0
10002266:	d0f2      	beq.n	1000224e <stdio_usb_in_chars+0x32>
10002268:	002a      	movs	r2, r5
1000226a:	0031      	movs	r1, r6
1000226c:	2000      	movs	r0, #0
1000226e:	f001 fc65 	bl	10003b3c <tud_cdc_n_read>
10002272:	1e05      	subs	r5, r0, #0
10002274:	d0eb      	beq.n	1000224e <stdio_usb_in_chars+0x32>
10002276:	e7ec      	b.n	10002252 <stdio_usb_in_chars+0x36>
10002278:	2503      	movs	r5, #3
1000227a:	426d      	negs	r5, r5
1000227c:	e7ec      	b.n	10002258 <stdio_usb_in_chars+0x3c>
1000227e:	46c0      	nop			; (mov r8, r8)
10002280:	20001920 	.word	0x20001920

10002284 <stdio_usb_out_chars>:
10002284:	b5f0      	push	{r4, r5, r6, r7, lr}
10002286:	464f      	mov	r7, r9
10002288:	46d6      	mov	lr, sl
1000228a:	4646      	mov	r6, r8
1000228c:	b5c0      	push	{r6, r7, lr}
1000228e:	4b35      	ldr	r3, [pc, #212]	; (10002364 <stdio_usb_out_chars+0xe0>)
10002290:	b082      	sub	sp, #8
10002292:	0007      	movs	r7, r0
10002294:	000d      	movs	r5, r1
10002296:	0018      	movs	r0, r3
10002298:	a901      	add	r1, sp, #4
1000229a:	4699      	mov	r9, r3
1000229c:	f005 fe04 	bl	10007ea8 <__mutex_try_enter_veneer>
100022a0:	2800      	cmp	r0, #0
100022a2:	d108      	bne.n	100022b6 <stdio_usb_out_chars+0x32>
100022a4:	23d0      	movs	r3, #208	; 0xd0
100022a6:	061b      	lsls	r3, r3, #24
100022a8:	681b      	ldr	r3, [r3, #0]
100022aa:	9a01      	ldr	r2, [sp, #4]
100022ac:	429a      	cmp	r2, r3
100022ae:	d052      	beq.n	10002356 <stdio_usb_out_chars+0xd2>
100022b0:	4648      	mov	r0, r9
100022b2:	f005 fe09 	bl	10007ec8 <__mutex_enter_blocking_veneer>
100022b6:	2000      	movs	r0, #0
100022b8:	f001 fc1c 	bl	10003af4 <tud_cdc_n_connected>
100022bc:	2800      	cmp	r0, #0
100022be:	d042      	beq.n	10002346 <stdio_usb_out_chars+0xc2>
100022c0:	2400      	movs	r4, #0
100022c2:	2d00      	cmp	r5, #0
100022c4:	dd44      	ble.n	10002350 <stdio_usb_out_chars+0xcc>
100022c6:	4b28      	ldr	r3, [pc, #160]	; (10002368 <stdio_usb_out_chars+0xe4>)
100022c8:	469a      	mov	sl, r3
100022ca:	4698      	mov	r8, r3
100022cc:	e011      	b.n	100022f2 <stdio_usb_out_chars+0x6e>
100022ce:	1939      	adds	r1, r7, r4
100022d0:	2000      	movs	r0, #0
100022d2:	f001 fca7 	bl	10003c24 <tud_cdc_n_write>
100022d6:	0006      	movs	r6, r0
100022d8:	f000 fcc6 	bl	10002c68 <tud_task>
100022dc:	2000      	movs	r0, #0
100022de:	f001 fc65 	bl	10003bac <tud_cdc_n_write_flush>
100022e2:	f7fe fd31 	bl	10000d48 <time_us_64>
100022e6:	4643      	mov	r3, r8
100022e8:	6018      	str	r0, [r3, #0]
100022ea:	6059      	str	r1, [r3, #4]
100022ec:	19a4      	adds	r4, r4, r6
100022ee:	42ac      	cmp	r4, r5
100022f0:	da2e      	bge.n	10002350 <stdio_usb_out_chars+0xcc>
100022f2:	2000      	movs	r0, #0
100022f4:	f001 fcb0 	bl	10003c58 <tud_cdc_n_write_available>
100022f8:	1b2e      	subs	r6, r5, r4
100022fa:	0002      	movs	r2, r0
100022fc:	42b0      	cmp	r0, r6
100022fe:	dd00      	ble.n	10002302 <stdio_usb_out_chars+0x7e>
10002300:	0032      	movs	r2, r6
10002302:	2a00      	cmp	r2, #0
10002304:	d1e3      	bne.n	100022ce <stdio_usb_out_chars+0x4a>
10002306:	f000 fcaf 	bl	10002c68 <tud_task>
1000230a:	2000      	movs	r0, #0
1000230c:	f001 fc4e 	bl	10003bac <tud_cdc_n_write_flush>
10002310:	2000      	movs	r0, #0
10002312:	f001 fbef 	bl	10003af4 <tud_cdc_n_connected>
10002316:	2800      	cmp	r0, #0
10002318:	d01a      	beq.n	10002350 <stdio_usb_out_chars+0xcc>
1000231a:	2000      	movs	r0, #0
1000231c:	f001 fc9c 	bl	10003c58 <tud_cdc_n_write_available>
10002320:	2800      	cmp	r0, #0
10002322:	d1e4      	bne.n	100022ee <stdio_usb_out_chars+0x6a>
10002324:	f7fe fd10 	bl	10000d48 <time_us_64>
10002328:	4653      	mov	r3, sl
1000232a:	000e      	movs	r6, r1
1000232c:	681a      	ldr	r2, [r3, #0]
1000232e:	685b      	ldr	r3, [r3, #4]
10002330:	2100      	movs	r1, #0
10002332:	4684      	mov	ip, r0
10002334:	480d      	ldr	r0, [pc, #52]	; (1000236c <stdio_usb_out_chars+0xe8>)
10002336:	1812      	adds	r2, r2, r0
10002338:	414b      	adcs	r3, r1
1000233a:	429e      	cmp	r6, r3
1000233c:	d808      	bhi.n	10002350 <stdio_usb_out_chars+0xcc>
1000233e:	d1d6      	bne.n	100022ee <stdio_usb_out_chars+0x6a>
10002340:	4594      	cmp	ip, r2
10002342:	d9d4      	bls.n	100022ee <stdio_usb_out_chars+0x6a>
10002344:	e004      	b.n	10002350 <stdio_usb_out_chars+0xcc>
10002346:	2000      	movs	r0, #0
10002348:	2100      	movs	r1, #0
1000234a:	4b07      	ldr	r3, [pc, #28]	; (10002368 <stdio_usb_out_chars+0xe4>)
1000234c:	6018      	str	r0, [r3, #0]
1000234e:	6059      	str	r1, [r3, #4]
10002350:	4648      	mov	r0, r9
10002352:	f005 fd99 	bl	10007e88 <__mutex_exit_veneer>
10002356:	b002      	add	sp, #8
10002358:	bc1c      	pop	{r2, r3, r4}
1000235a:	4690      	mov	r8, r2
1000235c:	4699      	mov	r9, r3
1000235e:	46a2      	mov	sl, r4
10002360:	bdf0      	pop	{r4, r5, r6, r7, pc}
10002362:	46c0      	nop			; (mov r8, r8)
10002364:	20001920 	.word	0x20001920
10002368:	20000e38 	.word	0x20000e38
1000236c:	0007a120 	.word	0x0007a120

10002370 <timer_task>:
10002370:	201f      	movs	r0, #31
10002372:	b510      	push	{r4, lr}
10002374:	f7ff fa16 	bl	100017a4 <irq_set_pending>
10002378:	20fa      	movs	r0, #250	; 0xfa
1000237a:	2100      	movs	r1, #0
1000237c:	0080      	lsls	r0, r0, #2
1000237e:	bd10      	pop	{r4, pc}

10002380 <low_priority_worker_irq>:
10002380:	b510      	push	{r4, lr}
10002382:	4c07      	ldr	r4, [pc, #28]	; (100023a0 <low_priority_worker_irq+0x20>)
10002384:	2100      	movs	r1, #0
10002386:	0020      	movs	r0, r4
10002388:	f005 fd8e 	bl	10007ea8 <__mutex_try_enter_veneer>
1000238c:	2800      	cmp	r0, #0
1000238e:	d100      	bne.n	10002392 <low_priority_worker_irq+0x12>
10002390:	bd10      	pop	{r4, pc}
10002392:	f000 fc69 	bl	10002c68 <tud_task>
10002396:	0020      	movs	r0, r4
10002398:	f005 fd76 	bl	10007e88 <__mutex_exit_veneer>
1000239c:	e7f8      	b.n	10002390 <low_priority_worker_irq+0x10>
1000239e:	46c0      	nop			; (mov r8, r8)
100023a0:	20001920 	.word	0x20001920

100023a4 <stdio_usb_init>:
100023a4:	b570      	push	{r4, r5, r6, lr}
100023a6:	4b1e      	ldr	r3, [pc, #120]	; (10002420 <stdio_usb_init+0x7c>)
100023a8:	b084      	sub	sp, #16
100023aa:	781b      	ldrb	r3, [r3, #0]
100023ac:	f001 fe66 	bl	1000407c <tusb_init>
100023b0:	201f      	movs	r0, #31
100023b2:	491c      	ldr	r1, [pc, #112]	; (10002424 <stdio_usb_init+0x80>)
100023b4:	f7ff fa06 	bl	100017c4 <irq_set_exclusive_handler>
100023b8:	2101      	movs	r1, #1
100023ba:	201f      	movs	r0, #31
100023bc:	f7ff f9e0 	bl	10001780 <irq_set_enabled>
100023c0:	4819      	ldr	r0, [pc, #100]	; (10002428 <stdio_usb_init+0x84>)
100023c2:	f7fe fdab 	bl	10000f1c <mutex_init>
100023c6:	f7fe fb13 	bl	100009f0 <alarm_pool_get_default>
100023ca:	0006      	movs	r6, r0
100023cc:	f7fe fcbc 	bl	10000d48 <time_us_64>
100023d0:	22fa      	movs	r2, #250	; 0xfa
100023d2:	0004      	movs	r4, r0
100023d4:	000d      	movs	r5, r1
100023d6:	2300      	movs	r3, #0
100023d8:	0092      	lsls	r2, r2, #2
100023da:	1912      	adds	r2, r2, r4
100023dc:	416b      	adcs	r3, r5
100023de:	4299      	cmp	r1, r3
100023e0:	d814      	bhi.n	1000240c <stdio_usb_init+0x68>
100023e2:	d011      	beq.n	10002408 <stdio_usb_init+0x64>
100023e4:	2101      	movs	r1, #1
100023e6:	9102      	str	r1, [sp, #8]
100023e8:	2100      	movs	r1, #0
100023ea:	9101      	str	r1, [sp, #4]
100023ec:	490f      	ldr	r1, [pc, #60]	; (1000242c <stdio_usb_init+0x88>)
100023ee:	0030      	movs	r0, r6
100023f0:	9100      	str	r1, [sp, #0]
100023f2:	f7fe fb01 	bl	100009f8 <alarm_pool_add_alarm_at>
100023f6:	0004      	movs	r4, r0
100023f8:	1e63      	subs	r3, r4, #1
100023fa:	419c      	sbcs	r4, r3
100023fc:	b2e4      	uxtb	r4, r4
100023fe:	2800      	cmp	r0, #0
10002400:	d108      	bne.n	10002414 <stdio_usb_init+0x70>
10002402:	0020      	movs	r0, r4
10002404:	b004      	add	sp, #16
10002406:	bd70      	pop	{r4, r5, r6, pc}
10002408:	4290      	cmp	r0, r2
1000240a:	d9eb      	bls.n	100023e4 <stdio_usb_init+0x40>
1000240c:	2201      	movs	r2, #1
1000240e:	4252      	negs	r2, r2
10002410:	17d3      	asrs	r3, r2, #31
10002412:	e7e7      	b.n	100023e4 <stdio_usb_init+0x40>
10002414:	2101      	movs	r1, #1
10002416:	4806      	ldr	r0, [pc, #24]	; (10002430 <stdio_usb_init+0x8c>)
10002418:	f7ff fe6e 	bl	100020f8 <stdio_set_driver_enabled>
1000241c:	e7f1      	b.n	10002402 <stdio_usb_init+0x5e>
1000241e:	46c0      	nop			; (mov r8, r8)
10002420:	10008284 	.word	0x10008284
10002424:	10002381 	.word	0x10002381
10002428:	20001920 	.word	0x20001920
1000242c:	10002371 	.word	0x10002371
10002430:	20000490 	.word	0x20000490

10002434 <tud_descriptor_device_cb>:
10002434:	4800      	ldr	r0, [pc, #0]	; (10002438 <tud_descriptor_device_cb+0x4>)
10002436:	4770      	bx	lr
10002438:	100080ac 	.word	0x100080ac

1000243c <tud_descriptor_configuration_cb>:
1000243c:	4800      	ldr	r0, [pc, #0]	; (10002440 <tud_descriptor_configuration_cb+0x4>)
1000243e:	4770      	bx	lr
10002440:	10008058 	.word	0x10008058

10002444 <tud_descriptor_string_cb>:
10002444:	b510      	push	{r4, lr}
10002446:	0004      	movs	r4, r0
10002448:	4816      	ldr	r0, [pc, #88]	; (100024a4 <tud_descriptor_string_cb+0x60>)
1000244a:	7803      	ldrb	r3, [r0, #0]
1000244c:	2b00      	cmp	r3, #0
1000244e:	d020      	beq.n	10002492 <tud_descriptor_string_cb+0x4e>
10002450:	2c00      	cmp	r4, #0
10002452:	d106      	bne.n	10002462 <tud_descriptor_string_cb+0x1e>
10002454:	4b14      	ldr	r3, [pc, #80]	; (100024a8 <tud_descriptor_string_cb+0x64>)
10002456:	4815      	ldr	r0, [pc, #84]	; (100024ac <tud_descriptor_string_cb+0x68>)
10002458:	8043      	strh	r3, [r0, #2]
1000245a:	3b06      	subs	r3, #6
1000245c:	3bff      	subs	r3, #255	; 0xff
1000245e:	8003      	strh	r3, [r0, #0]
10002460:	bd10      	pop	{r4, pc}
10002462:	2c05      	cmp	r4, #5
10002464:	d81c      	bhi.n	100024a0 <tud_descriptor_string_cb+0x5c>
10002466:	4b12      	ldr	r3, [pc, #72]	; (100024b0 <tud_descriptor_string_cb+0x6c>)
10002468:	4810      	ldr	r0, [pc, #64]	; (100024ac <tud_descriptor_string_cb+0x68>)
1000246a:	00a4      	lsls	r4, r4, #2
1000246c:	58e4      	ldr	r4, [r4, r3]
1000246e:	1c81      	adds	r1, r0, #2
10002470:	2300      	movs	r3, #0
10002472:	e004      	b.n	1000247e <tud_descriptor_string_cb+0x3a>
10002474:	3301      	adds	r3, #1
10002476:	800a      	strh	r2, [r1, #0]
10002478:	3102      	adds	r1, #2
1000247a:	2b13      	cmp	r3, #19
1000247c:	d00d      	beq.n	1000249a <tud_descriptor_string_cb+0x56>
1000247e:	5ce2      	ldrb	r2, [r4, r3]
10002480:	2a00      	cmp	r2, #0
10002482:	d1f7      	bne.n	10002474 <tud_descriptor_string_cb+0x30>
10002484:	22c0      	movs	r2, #192	; 0xc0
10002486:	3301      	adds	r3, #1
10002488:	005b      	lsls	r3, r3, #1
1000248a:	0092      	lsls	r2, r2, #2
1000248c:	4313      	orrs	r3, r2
1000248e:	b29b      	uxth	r3, r3
10002490:	e7e5      	b.n	1000245e <tud_descriptor_string_cb+0x1a>
10002492:	2111      	movs	r1, #17
10002494:	f002 f83e 	bl	10004514 <pico_get_unique_board_id_string>
10002498:	e7da      	b.n	10002450 <tud_descriptor_string_cb+0xc>
1000249a:	23ca      	movs	r3, #202	; 0xca
1000249c:	009b      	lsls	r3, r3, #2
1000249e:	e7de      	b.n	1000245e <tud_descriptor_string_cb+0x1a>
100024a0:	2000      	movs	r0, #0
100024a2:	e7dd      	b.n	10002460 <tud_descriptor_string_cb+0x1c>
100024a4:	20001938 	.word	0x20001938
100024a8:	00000409 	.word	0x00000409
100024ac:	200014c4 	.word	0x200014c4
100024b0:	100080c0 	.word	0x100080c0

100024b4 <dcd_rp2040_irq>:
100024b4:	b5f0      	push	{r4, r5, r6, r7, lr}
100024b6:	2398      	movs	r3, #152	; 0x98
100024b8:	4657      	mov	r7, sl
100024ba:	4645      	mov	r5, r8
100024bc:	46de      	mov	lr, fp
100024be:	464e      	mov	r6, r9
100024c0:	4a48      	ldr	r2, [pc, #288]	; (100025e4 <dcd_rp2040_irq+0x130>)
100024c2:	b5e0      	push	{r5, r6, r7, lr}
100024c4:	58d7      	ldr	r7, [r2, r3]
100024c6:	2580      	movs	r5, #128	; 0x80
100024c8:	003c      	movs	r4, r7
100024ca:	b085      	sub	sp, #20
100024cc:	026d      	lsls	r5, r5, #9
100024ce:	3b88      	subs	r3, #136	; 0x88
100024d0:	402c      	ands	r4, r5
100024d2:	9303      	str	r3, [sp, #12]
100024d4:	422f      	tst	r7, r5
100024d6:	d014      	beq.n	10002502 <dcd_rp2040_irq+0x4e>
100024d8:	2101      	movs	r1, #1
100024da:	2023      	movs	r0, #35	; 0x23
100024dc:	2200      	movs	r2, #0
100024de:	4b42      	ldr	r3, [pc, #264]	; (100025e8 <dcd_rp2040_irq+0x134>)
100024e0:	002c      	movs	r4, r5
100024e2:	5419      	strb	r1, [r3, r0]
100024e4:	70d9      	strb	r1, [r3, #3]
100024e6:	312f      	adds	r1, #47	; 0x2f
100024e8:	545a      	strb	r2, [r3, r1]
100024ea:	741a      	strb	r2, [r3, #16]
100024ec:	2000      	movs	r0, #0
100024ee:	3201      	adds	r2, #1
100024f0:	493e      	ldr	r1, [pc, #248]	; (100025ec <dcd_rp2040_irq+0x138>)
100024f2:	f001 f853 	bl	1000359c <dcd_event_setup_received>
100024f6:	2280      	movs	r2, #128	; 0x80
100024f8:	4b3d      	ldr	r3, [pc, #244]	; (100025f0 <dcd_rp2040_irq+0x13c>)
100024fa:	0292      	lsls	r2, r2, #10
100024fc:	651a      	str	r2, [r3, #80]	; 0x50
100024fe:	4b3d      	ldr	r3, [pc, #244]	; (100025f4 <dcd_rp2040_irq+0x140>)
10002500:	9303      	str	r3, [sp, #12]
10002502:	06fb      	lsls	r3, r7, #27
10002504:	d42a      	bmi.n	1000255c <dcd_rp2040_irq+0xa8>
10002506:	2380      	movs	r3, #128	; 0x80
10002508:	019b      	lsls	r3, r3, #6
1000250a:	421f      	tst	r7, r3
1000250c:	d10c      	bne.n	10002528 <dcd_rp2040_irq+0x74>
1000250e:	2380      	movs	r3, #128	; 0x80
10002510:	015b      	lsls	r3, r3, #5
10002512:	421f      	tst	r7, r3
10002514:	d115      	bne.n	10002542 <dcd_rp2040_irq+0x8e>
10002516:	42bc      	cmp	r4, r7
10002518:	d15f      	bne.n	100025da <dcd_rp2040_irq+0x126>
1000251a:	b005      	add	sp, #20
1000251c:	bc3c      	pop	{r2, r3, r4, r5}
1000251e:	4690      	mov	r8, r2
10002520:	4699      	mov	r9, r3
10002522:	46a2      	mov	sl, r4
10002524:	46ab      	mov	fp, r5
10002526:	bdf0      	pop	{r4, r5, r6, r7, pc}
10002528:	431c      	orrs	r4, r3
1000252a:	4b2e      	ldr	r3, [pc, #184]	; (100025e4 <dcd_rp2040_irq+0x130>)
1000252c:	6d1b      	ldr	r3, [r3, #80]	; 0x50
1000252e:	03db      	lsls	r3, r3, #15
10002530:	d54d      	bpl.n	100025ce <dcd_rp2040_irq+0x11a>
10002532:	2280      	movs	r2, #128	; 0x80
10002534:	4b2e      	ldr	r3, [pc, #184]	; (100025f0 <dcd_rp2040_irq+0x13c>)
10002536:	0252      	lsls	r2, r2, #9
10002538:	651a      	str	r2, [r3, #80]	; 0x50
1000253a:	2380      	movs	r3, #128	; 0x80
1000253c:	015b      	lsls	r3, r3, #5
1000253e:	421f      	tst	r7, r3
10002540:	d0e9      	beq.n	10002516 <dcd_rp2040_irq+0x62>
10002542:	2100      	movs	r1, #0
10002544:	4a27      	ldr	r2, [pc, #156]	; (100025e4 <dcd_rp2040_irq+0x130>)
10002546:	2000      	movs	r0, #0
10002548:	6011      	str	r1, [r2, #0]
1000254a:	2201      	movs	r2, #1
1000254c:	431c      	orrs	r4, r3
1000254e:	f000 fffb 	bl	10003548 <dcd_event_bus_reset>
10002552:	2280      	movs	r2, #128	; 0x80
10002554:	4b26      	ldr	r3, [pc, #152]	; (100025f0 <dcd_rp2040_irq+0x13c>)
10002556:	0312      	lsls	r2, r2, #12
10002558:	651a      	str	r2, [r3, #80]	; 0x50
1000255a:	e7dc      	b.n	10002516 <dcd_rp2040_irq+0x62>
1000255c:	4b21      	ldr	r3, [pc, #132]	; (100025e4 <dcd_rp2040_irq+0x130>)
1000255e:	6d9a      	ldr	r2, [r3, #88]	; 0x58
10002560:	2a00      	cmp	r2, #0
10002562:	d026      	beq.n	100025b2 <dcd_rp2040_irq+0xfe>
10002564:	469a      	mov	sl, r3
10002566:	4b22      	ldr	r3, [pc, #136]	; (100025f0 <dcd_rp2040_irq+0x13c>)
10002568:	46b9      	mov	r9, r7
1000256a:	2600      	movs	r6, #0
1000256c:	2501      	movs	r5, #1
1000256e:	469b      	mov	fp, r3
10002570:	0017      	movs	r7, r2
10002572:	e003      	b.n	1000257c <dcd_rp2040_irq+0xc8>
10002574:	006d      	lsls	r5, r5, #1
10002576:	3601      	adds	r6, #1
10002578:	2e20      	cmp	r6, #32
1000257a:	d019      	beq.n	100025b0 <dcd_rp2040_irq+0xfc>
1000257c:	422f      	tst	r7, r5
1000257e:	d0f9      	beq.n	10002574 <dcd_rp2040_irq+0xc0>
10002580:	4653      	mov	r3, sl
10002582:	6ddb      	ldr	r3, [r3, #92]	; 0x5c
10002584:	465b      	mov	r3, fp
10002586:	2201      	movs	r2, #1
10002588:	659d      	str	r5, [r3, #88]	; 0x58
1000258a:	0873      	lsrs	r3, r6, #1
1000258c:	005c      	lsls	r4, r3, #1
1000258e:	4b16      	ldr	r3, [pc, #88]	; (100025e8 <dcd_rp2040_irq+0x134>)
10002590:	4690      	mov	r8, r2
10002592:	469c      	mov	ip, r3
10002594:	43b2      	bics	r2, r6
10002596:	18a4      	adds	r4, r4, r2
10002598:	0164      	lsls	r4, r4, #5
1000259a:	4464      	add	r4, ip
1000259c:	0020      	movs	r0, r4
1000259e:	f000 fa09 	bl	100029b4 <_hw_endpoint_xfer_continue>
100025a2:	2800      	cmp	r0, #0
100025a4:	d107      	bne.n	100025b6 <dcd_rp2040_irq+0x102>
100025a6:	43af      	bics	r7, r5
100025a8:	3601      	adds	r6, #1
100025aa:	006d      	lsls	r5, r5, #1
100025ac:	2f00      	cmp	r7, #0
100025ae:	d1e3      	bne.n	10002578 <dcd_rp2040_irq+0xc4>
100025b0:	464f      	mov	r7, r9
100025b2:	9c03      	ldr	r4, [sp, #12]
100025b4:	e7a7      	b.n	10002506 <dcd_rp2040_irq+0x52>
100025b6:	4643      	mov	r3, r8
100025b8:	8aa2      	ldrh	r2, [r4, #20]
100025ba:	78a1      	ldrb	r1, [r4, #2]
100025bc:	2000      	movs	r0, #0
100025be:	9300      	str	r3, [sp, #0]
100025c0:	2300      	movs	r3, #0
100025c2:	f001 f813 	bl	100035ec <dcd_event_xfer_complete>
100025c6:	0020      	movs	r0, r4
100025c8:	f000 f9ce 	bl	10002968 <hw_endpoint_reset_transfer>
100025cc:	e7eb      	b.n	100025a6 <dcd_rp2040_irq+0xf2>
100025ce:	2201      	movs	r2, #1
100025d0:	2102      	movs	r1, #2
100025d2:	2000      	movs	r0, #0
100025d4:	f000 ff44 	bl	10003460 <dcd_event_bus_signal>
100025d8:	e7ab      	b.n	10002532 <dcd_rp2040_irq+0x7e>
100025da:	0021      	movs	r1, r4
100025dc:	4806      	ldr	r0, [pc, #24]	; (100025f8 <dcd_rp2040_irq+0x144>)
100025de:	4079      	eors	r1, r7
100025e0:	f7fe ff52 	bl	10001488 <panic>
100025e4:	50110000 	.word	0x50110000
100025e8:	200014f8 	.word	0x200014f8
100025ec:	50100000 	.word	0x50100000
100025f0:	50113000 	.word	0x50113000
100025f4:	00010010 	.word	0x00010010
100025f8:	100080d8 	.word	0x100080d8

100025fc <dcd_int_enable>:
100025fc:	b510      	push	{r4, lr}
100025fe:	2101      	movs	r1, #1
10002600:	2005      	movs	r0, #5
10002602:	f7ff f8bd 	bl	10001780 <irq_set_enabled>
10002606:	bd10      	pop	{r4, pc}

10002608 <dcd_set_address>:
10002608:	2201      	movs	r2, #1
1000260a:	2123      	movs	r1, #35	; 0x23
1000260c:	2300      	movs	r3, #0
1000260e:	b510      	push	{r4, lr}
10002610:	4806      	ldr	r0, [pc, #24]	; (1000262c <dcd_set_address+0x24>)
10002612:	5442      	strb	r2, [r0, r1]
10002614:	70c2      	strb	r2, [r0, #3]
10002616:	322f      	adds	r2, #47	; 0x2f
10002618:	5483      	strb	r3, [r0, r2]
1000261a:	7403      	strb	r3, [r0, #16]
1000261c:	2200      	movs	r2, #0
1000261e:	2100      	movs	r1, #0
10002620:	3020      	adds	r0, #32
10002622:	3301      	adds	r3, #1
10002624:	f000 fa48 	bl	10002ab8 <_hw_endpoint_xfer>
10002628:	bd10      	pop	{r4, pc}
1000262a:	46c0      	nop			; (mov r8, r8)
1000262c:	200014f8 	.word	0x200014f8

10002630 <dcd_connect>:
10002630:	2280      	movs	r2, #128	; 0x80
10002632:	4b02      	ldr	r3, [pc, #8]	; (1000263c <dcd_connect+0xc>)
10002634:	0252      	lsls	r2, r2, #9
10002636:	64da      	str	r2, [r3, #76]	; 0x4c
10002638:	4770      	bx	lr
1000263a:	46c0      	nop			; (mov r8, r8)
1000263c:	50112000 	.word	0x50112000

10002640 <dcd_init>:
10002640:	b570      	push	{r4, r5, r6, lr}
10002642:	0005      	movs	r5, r0
10002644:	f000 f968 	bl	10002918 <rp2040_usb_init>
10002648:	2005      	movs	r0, #5
1000264a:	491c      	ldr	r1, [pc, #112]	; (100026bc <dcd_init+0x7c>)
1000264c:	f7ff f8ba 	bl	100017c4 <irq_set_exclusive_handler>
10002650:	2280      	movs	r2, #128	; 0x80
10002652:	4c1b      	ldr	r4, [pc, #108]	; (100026c0 <dcd_init+0x80>)
10002654:	2100      	movs	r1, #0
10002656:	0020      	movs	r0, r4
10002658:	00d2      	lsls	r2, r2, #3
1000265a:	f7ff fc53 	bl	10001f04 <__wrap_memset>
1000265e:	4b19      	ldr	r3, [pc, #100]	; (100026c4 <dcd_init+0x84>)
10002660:	4a19      	ldr	r2, [pc, #100]	; (100026c8 <dcd_init+0x88>)
10002662:	2040      	movs	r0, #64	; 0x40
10002664:	601a      	str	r2, [r3, #0]
10002666:	2380      	movs	r3, #128	; 0x80
10002668:	005b      	lsls	r3, r3, #1
1000266a:	8063      	strh	r3, [r4, #2]
1000266c:	2201      	movs	r2, #1
1000266e:	2300      	movs	r3, #0
10002670:	2621      	movs	r6, #33	; 0x21
10002672:	4916      	ldr	r1, [pc, #88]	; (100026cc <dcd_init+0x8c>)
10002674:	7062      	strb	r2, [r4, #1]
10002676:	83a0      	strh	r0, [r4, #28]
10002678:	77a3      	strb	r3, [r4, #30]
1000267a:	60a1      	str	r1, [r4, #8]
1000267c:	600b      	str	r3, [r1, #0]
1000267e:	87a0      	strh	r0, [r4, #60]	; 0x3c
10002680:	3802      	subs	r0, #2
10002682:	55a3      	strb	r3, [r4, r6]
10002684:	5423      	strb	r3, [r4, r0]
10002686:	4912      	ldr	r1, [pc, #72]	; (100026d0 <dcd_init+0x90>)
10002688:	4812      	ldr	r0, [pc, #72]	; (100026d4 <dcd_init+0x94>)
1000268a:	3660      	adds	r6, #96	; 0x60
1000268c:	36ff      	adds	r6, #255	; 0xff
1000268e:	6063      	str	r3, [r4, #4]
10002690:	60e1      	str	r1, [r4, #12]
10002692:	7022      	strb	r2, [r4, #0]
10002694:	8466      	strh	r6, [r4, #34]	; 0x22
10002696:	62a0      	str	r0, [r4, #40]	; 0x28
10002698:	6003      	str	r3, [r0, #0]
1000269a:	6263      	str	r3, [r4, #36]	; 0x24
1000269c:	3320      	adds	r3, #32
1000269e:	54e2      	strb	r2, [r4, r3]
100026a0:	4b0d      	ldr	r3, [pc, #52]	; (100026d8 <dcd_init+0x98>)
100026a2:	62e1      	str	r1, [r4, #44]	; 0x2c
100026a4:	641a      	str	r2, [r3, #64]	; 0x40
100026a6:	2280      	movs	r2, #128	; 0x80
100026a8:	0592      	lsls	r2, r2, #22
100026aa:	64da      	str	r2, [r3, #76]	; 0x4c
100026ac:	2290      	movs	r2, #144	; 0x90
100026ae:	490b      	ldr	r1, [pc, #44]	; (100026dc <dcd_init+0x9c>)
100026b0:	0028      	movs	r0, r5
100026b2:	5099      	str	r1, [r3, r2]
100026b4:	f7ff ffbc 	bl	10002630 <dcd_connect>
100026b8:	bd70      	pop	{r4, r5, r6, pc}
100026ba:	46c0      	nop			; (mov r8, r8)
100026bc:	100024b5 	.word	0x100024b5
100026c0:	200014f8 	.word	0x200014f8
100026c4:	20001900 	.word	0x20001900
100026c8:	50100180 	.word	0x50100180
100026cc:	50100084 	.word	0x50100084
100026d0:	50100100 	.word	0x50100100
100026d4:	50100080 	.word	0x50100080
100026d8:	50110000 	.word	0x50110000
100026dc:	00013010 	.word	0x00013010

100026e0 <dcd_edpt0_status_complete>:
100026e0:	780b      	ldrb	r3, [r1, #0]
100026e2:	065b      	lsls	r3, r3, #25
100026e4:	d102      	bne.n	100026ec <dcd_edpt0_status_complete+0xc>
100026e6:	784b      	ldrb	r3, [r1, #1]
100026e8:	2b05      	cmp	r3, #5
100026ea:	d009      	beq.n	10002700 <dcd_edpt0_status_complete+0x20>
100026ec:	2101      	movs	r1, #1
100026ee:	2023      	movs	r0, #35	; 0x23
100026f0:	2200      	movs	r2, #0
100026f2:	4b05      	ldr	r3, [pc, #20]	; (10002708 <dcd_edpt0_status_complete+0x28>)
100026f4:	70d9      	strb	r1, [r3, #3]
100026f6:	5419      	strb	r1, [r3, r0]
100026f8:	312f      	adds	r1, #47	; 0x2f
100026fa:	741a      	strb	r2, [r3, #16]
100026fc:	545a      	strb	r2, [r3, r1]
100026fe:	4770      	bx	lr
10002700:	788a      	ldrb	r2, [r1, #2]
10002702:	4b02      	ldr	r3, [pc, #8]	; (1000270c <dcd_edpt0_status_complete+0x2c>)
10002704:	601a      	str	r2, [r3, #0]
10002706:	e7f1      	b.n	100026ec <dcd_edpt0_status_complete+0xc>
10002708:	200014f8 	.word	0x200014f8
1000270c:	50110000 	.word	0x50110000

10002710 <dcd_edpt_open>:
10002710:	2007      	movs	r0, #7
10002712:	b5f0      	push	{r4, r5, r6, r7, lr}
10002714:	464f      	mov	r7, r9
10002716:	4646      	mov	r6, r8
10002718:	46d6      	mov	lr, sl
1000271a:	794a      	ldrb	r2, [r1, #5]
1000271c:	78cc      	ldrb	r4, [r1, #3]
1000271e:	790b      	ldrb	r3, [r1, #4]
10002720:	4010      	ands	r0, r2
10002722:	0200      	lsls	r0, r0, #8
10002724:	07a4      	lsls	r4, r4, #30
10002726:	4318      	orrs	r0, r3
10002728:	0fa3      	lsrs	r3, r4, #30
1000272a:	4699      	mov	r9, r3
1000272c:	469a      	mov	sl, r3
1000272e:	237f      	movs	r3, #127	; 0x7f
10002730:	b5c0      	push	{r6, r7, lr}
10002732:	788f      	ldrb	r7, [r1, #2]
10002734:	4e3a      	ldr	r6, [pc, #232]	; (10002820 <dcd_edpt_open+0x110>)
10002736:	403b      	ands	r3, r7
10002738:	09fd      	lsrs	r5, r7, #7
1000273a:	0059      	lsls	r1, r3, #1
1000273c:	194a      	adds	r2, r1, r5
1000273e:	0152      	lsls	r2, r2, #5
10002740:	18b2      	adds	r2, r6, r2
10002742:	7097      	strb	r7, [r2, #2]
10002744:	2701      	movs	r7, #1
10002746:	406f      	eors	r7, r5
10002748:	7057      	strb	r7, [r2, #1]
1000274a:	425f      	negs	r7, r3
1000274c:	415f      	adcs	r7, r3
1000274e:	70d7      	strb	r7, [r2, #3]
10002750:	464a      	mov	r2, r9
10002752:	2a01      	cmp	r2, #1
10002754:	d04c      	beq.n	100027f0 <dcd_edpt_open+0xe0>
10002756:	2840      	cmp	r0, #64	; 0x40
10002758:	d84e      	bhi.n	100027f8 <dcd_edpt_open+0xe8>
1000275a:	464f      	mov	r7, r9
1000275c:	194a      	adds	r2, r1, r5
1000275e:	0152      	lsls	r2, r2, #5
10002760:	18b2      	adds	r2, r6, r2
10002762:	8390      	strh	r0, [r2, #28]
10002764:	7797      	strb	r7, [r2, #30]
10002766:	00da      	lsls	r2, r3, #3
10002768:	2d01      	cmp	r5, #1
1000276a:	d049      	beq.n	10002800 <dcd_edpt_open+0xf0>
1000276c:	4f2d      	ldr	r7, [pc, #180]	; (10002824 <dcd_edpt_open+0x114>)
1000276e:	2400      	movs	r4, #0
10002770:	46bc      	mov	ip, r7
10002772:	019f      	lsls	r7, r3, #6
10002774:	4462      	add	r2, ip
10002776:	19f7      	adds	r7, r6, r7
10002778:	60ba      	str	r2, [r7, #8]
1000277a:	6014      	str	r4, [r2, #0]
1000277c:	2b00      	cmp	r3, #0
1000277e:	d10f      	bne.n	100027a0 <dcd_edpt_open+0x90>
10002780:	2200      	movs	r2, #0
10002782:	016b      	lsls	r3, r5, #5
10002784:	18f3      	adds	r3, r6, r3
10002786:	605a      	str	r2, [r3, #4]
10002788:	4a27      	ldr	r2, [pc, #156]	; (10002828 <dcd_edpt_open+0x118>)
1000278a:	60da      	str	r2, [r3, #12]
1000278c:	2201      	movs	r2, #1
1000278e:	194b      	adds	r3, r1, r5
10002790:	015b      	lsls	r3, r3, #5
10002792:	2001      	movs	r0, #1
10002794:	54f2      	strb	r2, [r6, r3]
10002796:	bc1c      	pop	{r2, r3, r4}
10002798:	4690      	mov	r8, r2
1000279a:	4699      	mov	r9, r3
1000279c:	46a2      	mov	sl, r4
1000279e:	bdf0      	pop	{r4, r5, r6, r7, pc}
100027a0:	00da      	lsls	r2, r3, #3
100027a2:	4b22      	ldr	r3, [pc, #136]	; (1000282c <dcd_edpt_open+0x11c>)
100027a4:	469c      	mov	ip, r3
100027a6:	4462      	add	r2, ip
100027a8:	607a      	str	r2, [r7, #4]
100027aa:	194b      	adds	r3, r1, r5
100027ac:	015b      	lsls	r3, r3, #5
100027ae:	5cf2      	ldrb	r2, [r6, r3]
100027b0:	2a00      	cmp	r2, #0
100027b2:	d1eb      	bne.n	1000278c <dcd_edpt_open+0x7c>
100027b4:	4f1e      	ldr	r7, [pc, #120]	; (10002830 <dcd_edpt_open+0x120>)
100027b6:	18f3      	adds	r3, r6, r3
100027b8:	683a      	ldr	r2, [r7, #0]
100027ba:	60da      	str	r2, [r3, #12]
100027bc:	1c03      	adds	r3, r0, #0
100027be:	2840      	cmp	r0, #64	; 0x40
100027c0:	d900      	bls.n	100027c4 <dcd_edpt_open+0xb4>
100027c2:	2340      	movs	r3, #64	; 0x40
100027c4:	203f      	movs	r0, #63	; 0x3f
100027c6:	b29b      	uxth	r3, r3
100027c8:	18d3      	adds	r3, r2, r3
100027ca:	4203      	tst	r3, r0
100027cc:	d001      	beq.n	100027d2 <dcd_edpt_open+0xc2>
100027ce:	4383      	bics	r3, r0
100027d0:	3340      	adds	r3, #64	; 0x40
100027d2:	603b      	str	r3, [r7, #0]
100027d4:	4b17      	ldr	r3, [pc, #92]	; (10002834 <dcd_edpt_open+0x124>)
100027d6:	405a      	eors	r2, r3
100027d8:	4653      	mov	r3, sl
100027da:	069c      	lsls	r4, r3, #26
100027dc:	4314      	orrs	r4, r2
100027de:	22a0      	movs	r2, #160	; 0xa0
100027e0:	194b      	adds	r3, r1, r5
100027e2:	015b      	lsls	r3, r3, #5
100027e4:	18f3      	adds	r3, r6, r3
100027e6:	685b      	ldr	r3, [r3, #4]
100027e8:	0612      	lsls	r2, r2, #24
100027ea:	4314      	orrs	r4, r2
100027ec:	601c      	str	r4, [r3, #0]
100027ee:	e7cd      	b.n	1000278c <dcd_edpt_open+0x7c>
100027f0:	2280      	movs	r2, #128	; 0x80
100027f2:	00d2      	lsls	r2, r2, #3
100027f4:	4290      	cmp	r0, r2
100027f6:	d3b0      	bcc.n	1000275a <dcd_edpt_open+0x4a>
100027f8:	0001      	movs	r1, r0
100027fa:	480f      	ldr	r0, [pc, #60]	; (10002838 <dcd_edpt_open+0x128>)
100027fc:	f7fe fe44 	bl	10001488 <panic>
10002800:	4c0e      	ldr	r4, [pc, #56]	; (1000283c <dcd_edpt_open+0x12c>)
10002802:	019f      	lsls	r7, r3, #6
10002804:	46a4      	mov	ip, r4
10002806:	2400      	movs	r4, #0
10002808:	4462      	add	r2, ip
1000280a:	19f7      	adds	r7, r6, r7
1000280c:	62ba      	str	r2, [r7, #40]	; 0x28
1000280e:	6014      	str	r4, [r2, #0]
10002810:	2b00      	cmp	r3, #0
10002812:	d0b5      	beq.n	10002780 <dcd_edpt_open+0x70>
10002814:	4a07      	ldr	r2, [pc, #28]	; (10002834 <dcd_edpt_open+0x124>)
10002816:	00db      	lsls	r3, r3, #3
10002818:	4694      	mov	ip, r2
1000281a:	4463      	add	r3, ip
1000281c:	627b      	str	r3, [r7, #36]	; 0x24
1000281e:	e7c4      	b.n	100027aa <dcd_edpt_open+0x9a>
10002820:	200014f8 	.word	0x200014f8
10002824:	50100084 	.word	0x50100084
10002828:	50100100 	.word	0x50100100
1000282c:	50100004 	.word	0x50100004
10002830:	20001900 	.word	0x20001900
10002834:	50100000 	.word	0x50100000
10002838:	100080ec 	.word	0x100080ec
1000283c:	50100080 	.word	0x50100080

10002840 <dcd_edpt_xfer>:
10002840:	b510      	push	{r4, lr}
10002842:	207f      	movs	r0, #127	; 0x7f
10002844:	000c      	movs	r4, r1
10002846:	4020      	ands	r0, r4
10002848:	0040      	lsls	r0, r0, #1
1000284a:	09e4      	lsrs	r4, r4, #7
1000284c:	0011      	movs	r1, r2
1000284e:	1900      	adds	r0, r0, r4
10002850:	001a      	movs	r2, r3
10002852:	4b04      	ldr	r3, [pc, #16]	; (10002864 <dcd_edpt_xfer+0x24>)
10002854:	0140      	lsls	r0, r0, #5
10002856:	18c0      	adds	r0, r0, r3
10002858:	2301      	movs	r3, #1
1000285a:	f000 f92d 	bl	10002ab8 <_hw_endpoint_xfer>
1000285e:	2001      	movs	r0, #1
10002860:	bd10      	pop	{r4, pc}
10002862:	46c0      	nop			; (mov r8, r8)
10002864:	200014f8 	.word	0x200014f8

10002868 <dcd_edpt_stall>:
10002868:	227f      	movs	r2, #127	; 0x7f
1000286a:	b570      	push	{r4, r5, r6, lr}
1000286c:	000d      	movs	r5, r1
1000286e:	0011      	movs	r1, r2
10002870:	4029      	ands	r1, r5
10002872:	004c      	lsls	r4, r1, #1
10002874:	09ed      	lsrs	r5, r5, #7
10002876:	4e0b      	ldr	r6, [pc, #44]	; (100028a4 <dcd_edpt_stall+0x3c>)
10002878:	1960      	adds	r0, r4, r5
1000287a:	0140      	lsls	r0, r0, #5
1000287c:	1830      	adds	r0, r6, r0
1000287e:	7883      	ldrb	r3, [r0, #2]
10002880:	421a      	tst	r2, r3
10002882:	d104      	bne.n	1000288e <dcd_edpt_stall+0x26>
10002884:	3a7d      	subs	r2, #125	; 0x7d
10002886:	09db      	lsrs	r3, r3, #7
10002888:	1ad3      	subs	r3, r2, r3
1000288a:	4a07      	ldr	r2, [pc, #28]	; (100028a8 <dcd_edpt_stall+0x40>)
1000288c:	6693      	str	r3, [r2, #104]	; 0x68
1000288e:	2280      	movs	r2, #128	; 0x80
10002890:	4906      	ldr	r1, [pc, #24]	; (100028ac <dcd_edpt_stall+0x44>)
10002892:	0112      	lsls	r2, r2, #4
10002894:	f000 f86e 	bl	10002974 <_hw_endpoint_buffer_control_update32>
10002898:	2301      	movs	r3, #1
1000289a:	1964      	adds	r4, r4, r5
1000289c:	0164      	lsls	r4, r4, #5
1000289e:	1934      	adds	r4, r6, r4
100028a0:	7423      	strb	r3, [r4, #16]
100028a2:	bd70      	pop	{r4, r5, r6, pc}
100028a4:	200014f8 	.word	0x200014f8
100028a8:	50112000 	.word	0x50112000
100028ac:	fffff7ff 	.word	0xfffff7ff

100028b0 <dcd_edpt_clear_stall>:
100028b0:	227f      	movs	r2, #127	; 0x7f
100028b2:	b570      	push	{r4, r5, r6, lr}
100028b4:	000d      	movs	r5, r1
100028b6:	0011      	movs	r1, r2
100028b8:	4029      	ands	r1, r5
100028ba:	004c      	lsls	r4, r1, #1
100028bc:	09ed      	lsrs	r5, r5, #7
100028be:	4e0b      	ldr	r6, [pc, #44]	; (100028ec <dcd_edpt_clear_stall+0x3c>)
100028c0:	1960      	adds	r0, r4, r5
100028c2:	0140      	lsls	r0, r0, #5
100028c4:	1830      	adds	r0, r6, r0
100028c6:	7883      	ldrb	r3, [r0, #2]
100028c8:	421a      	tst	r2, r3
100028ca:	d104      	bne.n	100028d6 <dcd_edpt_clear_stall+0x26>
100028cc:	3a7d      	subs	r2, #125	; 0x7d
100028ce:	09db      	lsrs	r3, r3, #7
100028d0:	1ad3      	subs	r3, r2, r3
100028d2:	4a07      	ldr	r2, [pc, #28]	; (100028f0 <dcd_edpt_clear_stall+0x40>)
100028d4:	6693      	str	r3, [r2, #104]	; 0x68
100028d6:	2200      	movs	r2, #0
100028d8:	4906      	ldr	r1, [pc, #24]	; (100028f4 <dcd_edpt_clear_stall+0x44>)
100028da:	f000 f84b 	bl	10002974 <_hw_endpoint_buffer_control_update32>
100028de:	2300      	movs	r3, #0
100028e0:	1964      	adds	r4, r4, r5
100028e2:	0164      	lsls	r4, r4, #5
100028e4:	1934      	adds	r4, r6, r4
100028e6:	7423      	strb	r3, [r4, #16]
100028e8:	bd70      	pop	{r4, r5, r6, pc}
100028ea:	46c0      	nop			; (mov r8, r8)
100028ec:	200014f8 	.word	0x200014f8
100028f0:	50113000 	.word	0x50113000
100028f4:	fffff7ff 	.word	0xfffff7ff

100028f8 <_hw_endpoint_buffer_control_update32.part.0>:
100028f8:	217f      	movs	r1, #127	; 0x7f
100028fa:	b510      	push	{r4, lr}
100028fc:	7880      	ldrb	r0, [r0, #2]
100028fe:	4a04      	ldr	r2, [pc, #16]	; (10002910 <_hw_endpoint_buffer_control_update32.part.0+0x18>)
10002900:	09c3      	lsrs	r3, r0, #7
10002902:	009b      	lsls	r3, r3, #2
10002904:	4001      	ands	r1, r0
10002906:	589a      	ldr	r2, [r3, r2]
10002908:	4802      	ldr	r0, [pc, #8]	; (10002914 <_hw_endpoint_buffer_control_update32.part.0+0x1c>)
1000290a:	f7fe fdbd 	bl	10001488 <panic>
1000290e:	46c0      	nop			; (mov r8, r8)
10002910:	200004a4 	.word	0x200004a4
10002914:	10008114 	.word	0x10008114

10002918 <rp2040_usb_init>:
10002918:	2280      	movs	r2, #128	; 0x80
1000291a:	4b0e      	ldr	r3, [pc, #56]	; (10002954 <rp2040_usb_init+0x3c>)
1000291c:	0452      	lsls	r2, r2, #17
1000291e:	b510      	push	{r4, lr}
10002920:	601a      	str	r2, [r3, #0]
10002922:	4b0d      	ldr	r3, [pc, #52]	; (10002958 <rp2040_usb_init+0x40>)
10002924:	490d      	ldr	r1, [pc, #52]	; (1000295c <rp2040_usb_init+0x44>)
10002926:	601a      	str	r2, [r3, #0]
10002928:	0010      	movs	r0, r2
1000292a:	688b      	ldr	r3, [r1, #8]
1000292c:	4398      	bics	r0, r3
1000292e:	d1fb      	bne.n	10002928 <rp2040_usb_init+0x10>
10002930:	4c0b      	ldr	r4, [pc, #44]	; (10002960 <rp2040_usb_init+0x48>)
10002932:	229c      	movs	r2, #156	; 0x9c
10002934:	2100      	movs	r1, #0
10002936:	0020      	movs	r0, r4
10002938:	f7ff fae4 	bl	10001f04 <__wrap_memset>
1000293c:	2280      	movs	r2, #128	; 0x80
1000293e:	2100      	movs	r1, #0
10002940:	0152      	lsls	r2, r2, #5
10002942:	4808      	ldr	r0, [pc, #32]	; (10002964 <rp2040_usb_init+0x4c>)
10002944:	f7ff fade 	bl	10001f04 <__wrap_memset>
10002948:	2309      	movs	r3, #9
1000294a:	6763      	str	r3, [r4, #116]	; 0x74
1000294c:	3303      	adds	r3, #3
1000294e:	67a3      	str	r3, [r4, #120]	; 0x78
10002950:	bd10      	pop	{r4, pc}
10002952:	46c0      	nop			; (mov r8, r8)
10002954:	4000e000 	.word	0x4000e000
10002958:	4000f000 	.word	0x4000f000
1000295c:	4000c000 	.word	0x4000c000
10002960:	50110000 	.word	0x50110000
10002964:	50100000 	.word	0x50100000

10002968 <hw_endpoint_reset_transfer>:
10002968:	2300      	movs	r3, #0
1000296a:	6103      	str	r3, [r0, #16]
1000296c:	6143      	str	r3, [r0, #20]
1000296e:	6183      	str	r3, [r0, #24]
10002970:	4770      	bx	lr
10002972:	46c0      	nop			; (mov r8, r8)

10002974 <_hw_endpoint_buffer_control_update32>:
10002974:	b510      	push	{r4, lr}
10002976:	6883      	ldr	r3, [r0, #8]
10002978:	2900      	cmp	r1, #0
1000297a:	d001      	beq.n	10002980 <_hw_endpoint_buffer_control_update32+0xc>
1000297c:	681c      	ldr	r4, [r3, #0]
1000297e:	4021      	ands	r1, r4
10002980:	2a00      	cmp	r2, #0
10002982:	d011      	beq.n	100029a8 <_hw_endpoint_buffer_control_update32+0x34>
10002984:	2480      	movs	r4, #128	; 0x80
10002986:	00e4      	lsls	r4, r4, #3
10002988:	4311      	orrs	r1, r2
1000298a:	4222      	tst	r2, r4
1000298c:	d00c      	beq.n	100029a8 <_hw_endpoint_buffer_control_update32+0x34>
1000298e:	681a      	ldr	r2, [r3, #0]
10002990:	4222      	tst	r2, r4
10002992:	d10b      	bne.n	100029ac <_hw_endpoint_buffer_control_update32+0x38>
10002994:	4a06      	ldr	r2, [pc, #24]	; (100029b0 <_hw_endpoint_buffer_control_update32+0x3c>)
10002996:	400a      	ands	r2, r1
10002998:	601a      	str	r2, [r3, #0]
1000299a:	e7ff      	b.n	1000299c <_hw_endpoint_buffer_control_update32+0x28>
1000299c:	e7ff      	b.n	1000299e <_hw_endpoint_buffer_control_update32+0x2a>
1000299e:	e7ff      	b.n	100029a0 <_hw_endpoint_buffer_control_update32+0x2c>
100029a0:	e7ff      	b.n	100029a2 <_hw_endpoint_buffer_control_update32+0x2e>
100029a2:	e7ff      	b.n	100029a4 <_hw_endpoint_buffer_control_update32+0x30>
100029a4:	e7ff      	b.n	100029a6 <_hw_endpoint_buffer_control_update32+0x32>
100029a6:	6883      	ldr	r3, [r0, #8]
100029a8:	6019      	str	r1, [r3, #0]
100029aa:	bd10      	pop	{r4, pc}
100029ac:	f7ff ffa4 	bl	100028f8 <_hw_endpoint_buffer_control_update32.part.0>
100029b0:	fffffbff 	.word	0xfffffbff

100029b4 <_hw_endpoint_xfer_continue>:
100029b4:	b5f8      	push	{r3, r4, r5, r6, r7, lr}
100029b6:	7c46      	ldrb	r6, [r0, #17]
100029b8:	0004      	movs	r4, r0
100029ba:	2e00      	cmp	r6, #0
100029bc:	d100      	bne.n	100029c0 <_hw_endpoint_xfer_continue+0xc>
100029be:	e069      	b.n	10002a94 <_hw_endpoint_xfer_continue+0xe0>
100029c0:	6883      	ldr	r3, [r0, #8]
100029c2:	7840      	ldrb	r0, [r0, #1]
100029c4:	6819      	ldr	r1, [r3, #0]
100029c6:	0589      	lsls	r1, r1, #22
100029c8:	0d8d      	lsrs	r5, r1, #22
100029ca:	2800      	cmp	r0, #0
100029cc:	d147      	bne.n	10002a5e <_hw_endpoint_xfer_continue+0xaa>
100029ce:	8aa1      	ldrh	r1, [r4, #20]
100029d0:	1869      	adds	r1, r5, r1
100029d2:	b289      	uxth	r1, r1
100029d4:	82a1      	strh	r1, [r4, #20]
100029d6:	8ba5      	ldrh	r5, [r4, #28]
100029d8:	8a62      	ldrh	r2, [r4, #18]
100029da:	1c2b      	adds	r3, r5, #0
100029dc:	2d3f      	cmp	r5, #63	; 0x3f
100029de:	d92b      	bls.n	10002a38 <_hw_endpoint_xfer_continue+0x84>
100029e0:	b29f      	uxth	r7, r3
100029e2:	46bc      	mov	ip, r7
100029e4:	1a55      	subs	r5, r2, r1
100029e6:	b2af      	uxth	r7, r5
100029e8:	45bc      	cmp	ip, r7
100029ea:	d823      	bhi.n	10002a34 <_hw_endpoint_xfer_continue+0x80>
100029ec:	b29d      	uxth	r5, r3
100029ee:	82e3      	strh	r3, [r4, #22]
100029f0:	428a      	cmp	r2, r1
100029f2:	d34c      	bcc.n	10002a8e <_hw_endpoint_xfer_continue+0xda>
100029f4:	d049      	beq.n	10002a8a <_hw_endpoint_xfer_continue+0xd6>
100029f6:	2800      	cmp	r0, #0
100029f8:	d026      	beq.n	10002a48 <_hw_endpoint_xfer_continue+0x94>
100029fa:	2280      	movs	r2, #128	; 0x80
100029fc:	00d2      	lsls	r2, r2, #3
100029fe:	432a      	orrs	r2, r5
10002a00:	78e3      	ldrb	r3, [r4, #3]
10002a02:	2b00      	cmp	r3, #0
10002a04:	d002      	beq.n	10002a0c <_hw_endpoint_xfer_continue+0x58>
10002a06:	2180      	movs	r1, #128	; 0x80
10002a08:	0189      	lsls	r1, r1, #6
10002a0a:	430a      	orrs	r2, r1
10002a0c:	2101      	movs	r1, #1
10002a0e:	404b      	eors	r3, r1
10002a10:	68a1      	ldr	r1, [r4, #8]
10002a12:	70e3      	strb	r3, [r4, #3]
10002a14:	680b      	ldr	r3, [r1, #0]
10002a16:	055b      	lsls	r3, r3, #21
10002a18:	d443      	bmi.n	10002aa2 <_hw_endpoint_xfer_continue+0xee>
10002a1a:	4b23      	ldr	r3, [pc, #140]	; (10002aa8 <_hw_endpoint_xfer_continue+0xf4>)
10002a1c:	4013      	ands	r3, r2
10002a1e:	600b      	str	r3, [r1, #0]
10002a20:	e7ff      	b.n	10002a22 <_hw_endpoint_xfer_continue+0x6e>
10002a22:	e7ff      	b.n	10002a24 <_hw_endpoint_xfer_continue+0x70>
10002a24:	e7ff      	b.n	10002a26 <_hw_endpoint_xfer_continue+0x72>
10002a26:	e7ff      	b.n	10002a28 <_hw_endpoint_xfer_continue+0x74>
10002a28:	e7ff      	b.n	10002a2a <_hw_endpoint_xfer_continue+0x76>
10002a2a:	e7ff      	b.n	10002a2c <_hw_endpoint_xfer_continue+0x78>
10002a2c:	2000      	movs	r0, #0
10002a2e:	68a3      	ldr	r3, [r4, #8]
10002a30:	601a      	str	r2, [r3, #0]
10002a32:	bdf8      	pop	{r3, r4, r5, r6, r7, pc}
10002a34:	1c2b      	adds	r3, r5, #0
10002a36:	e7d9      	b.n	100029ec <_hw_endpoint_xfer_continue+0x38>
10002a38:	2340      	movs	r3, #64	; 0x40
10002a3a:	b29f      	uxth	r7, r3
10002a3c:	46bc      	mov	ip, r7
10002a3e:	1a55      	subs	r5, r2, r1
10002a40:	b2af      	uxth	r7, r5
10002a42:	45bc      	cmp	ip, r7
10002a44:	d9d2      	bls.n	100029ec <_hw_endpoint_xfer_continue+0x38>
10002a46:	e7f5      	b.n	10002a34 <_hw_endpoint_xfer_continue+0x80>
10002a48:	69a3      	ldr	r3, [r4, #24]
10002a4a:	002a      	movs	r2, r5
10002a4c:	469c      	mov	ip, r3
10002a4e:	68e0      	ldr	r0, [r4, #12]
10002a50:	4461      	add	r1, ip
10002a52:	f7ff fa5d 	bl	10001f10 <__wrap___aeabi_memcpy>
10002a56:	2284      	movs	r2, #132	; 0x84
10002a58:	0212      	lsls	r2, r2, #8
10002a5a:	432a      	orrs	r2, r5
10002a5c:	e7d0      	b.n	10002a00 <_hw_endpoint_xfer_continue+0x4c>
10002a5e:	69a3      	ldr	r3, [r4, #24]
10002a60:	8aa0      	ldrh	r0, [r4, #20]
10002a62:	469c      	mov	ip, r3
10002a64:	68e1      	ldr	r1, [r4, #12]
10002a66:	002a      	movs	r2, r5
10002a68:	4460      	add	r0, ip
10002a6a:	f7ff fa51 	bl	10001f10 <__wrap___aeabi_memcpy>
10002a6e:	8aa1      	ldrh	r1, [r4, #20]
10002a70:	7860      	ldrb	r0, [r4, #1]
10002a72:	1869      	adds	r1, r5, r1
10002a74:	b289      	uxth	r1, r1
10002a76:	82a1      	strh	r1, [r4, #20]
10002a78:	2800      	cmp	r0, #0
10002a7a:	d0ac      	beq.n	100029d6 <_hw_endpoint_xfer_continue+0x22>
10002a7c:	8ae3      	ldrh	r3, [r4, #22]
10002a7e:	42ab      	cmp	r3, r5
10002a80:	d9a9      	bls.n	100029d6 <_hw_endpoint_xfer_continue+0x22>
10002a82:	2300      	movs	r3, #0
10002a84:	8261      	strh	r1, [r4, #18]
10002a86:	82e3      	strh	r3, [r4, #22]
10002a88:	e7d3      	b.n	10002a32 <_hw_endpoint_xfer_continue+0x7e>
10002a8a:	0030      	movs	r0, r6
10002a8c:	e7d1      	b.n	10002a32 <_hw_endpoint_xfer_continue+0x7e>
10002a8e:	4807      	ldr	r0, [pc, #28]	; (10002aac <_hw_endpoint_xfer_continue+0xf8>)
10002a90:	f7fe fcfa 	bl	10001488 <panic>
10002a94:	237f      	movs	r3, #127	; 0x7f
10002a96:	7881      	ldrb	r1, [r0, #2]
10002a98:	4a05      	ldr	r2, [pc, #20]	; (10002ab0 <_hw_endpoint_xfer_continue+0xfc>)
10002a9a:	4806      	ldr	r0, [pc, #24]	; (10002ab4 <_hw_endpoint_xfer_continue+0x100>)
10002a9c:	4019      	ands	r1, r3
10002a9e:	f7fe fcf3 	bl	10001488 <panic>
10002aa2:	0020      	movs	r0, r4
10002aa4:	f7ff ff28 	bl	100028f8 <_hw_endpoint_buffer_control_update32.part.0>
10002aa8:	fffffbff 	.word	0xfffffbff
10002aac:	10008160 	.word	0x10008160
10002ab0:	200004a4 	.word	0x200004a4
10002ab4:	10008134 	.word	0x10008134

10002ab8 <_hw_endpoint_xfer>:
10002ab8:	b570      	push	{r4, r5, r6, lr}
10002aba:	0004      	movs	r4, r0
10002abc:	2b00      	cmp	r3, #0
10002abe:	d049      	beq.n	10002b54 <_hw_endpoint_xfer+0x9c>
10002ac0:	7c43      	ldrb	r3, [r0, #17]
10002ac2:	2b00      	cmp	r3, #0
10002ac4:	d001      	beq.n	10002aca <_hw_endpoint_xfer+0x12>
10002ac6:	2300      	movs	r3, #0
10002ac8:	7403      	strb	r3, [r0, #16]
10002aca:	2300      	movs	r3, #0
10002acc:	8ba0      	ldrh	r0, [r4, #28]
10002ace:	82a3      	strh	r3, [r4, #20]
10002ad0:	8262      	strh	r2, [r4, #18]
10002ad2:	1c03      	adds	r3, r0, #0
10002ad4:	283f      	cmp	r0, #63	; 0x3f
10002ad6:	d930      	bls.n	10002b3a <_hw_endpoint_xfer+0x82>
10002ad8:	b298      	uxth	r0, r3
10002ada:	4290      	cmp	r0, r2
10002adc:	d823      	bhi.n	10002b26 <_hw_endpoint_xfer+0x6e>
10002ade:	b29d      	uxth	r5, r3
10002ae0:	82e3      	strh	r3, [r4, #22]
10002ae2:	2301      	movs	r3, #1
10002ae4:	7463      	strb	r3, [r4, #17]
10002ae6:	7863      	ldrb	r3, [r4, #1]
10002ae8:	61a1      	str	r1, [r4, #24]
10002aea:	2b00      	cmp	r3, #0
10002aec:	d02a      	beq.n	10002b44 <_hw_endpoint_xfer+0x8c>
10002aee:	2280      	movs	r2, #128	; 0x80
10002af0:	00d2      	lsls	r2, r2, #3
10002af2:	432a      	orrs	r2, r5
10002af4:	78e3      	ldrb	r3, [r4, #3]
10002af6:	2b00      	cmp	r3, #0
10002af8:	d002      	beq.n	10002b00 <_hw_endpoint_xfer+0x48>
10002afa:	2180      	movs	r1, #128	; 0x80
10002afc:	0189      	lsls	r1, r1, #6
10002afe:	430a      	orrs	r2, r1
10002b00:	2101      	movs	r1, #1
10002b02:	404b      	eors	r3, r1
10002b04:	68a1      	ldr	r1, [r4, #8]
10002b06:	70e3      	strb	r3, [r4, #3]
10002b08:	680b      	ldr	r3, [r1, #0]
10002b0a:	055b      	lsls	r3, r3, #21
10002b0c:	d425      	bmi.n	10002b5a <_hw_endpoint_xfer+0xa2>
10002b0e:	4b14      	ldr	r3, [pc, #80]	; (10002b60 <_hw_endpoint_xfer+0xa8>)
10002b10:	4013      	ands	r3, r2
10002b12:	600b      	str	r3, [r1, #0]
10002b14:	e7ff      	b.n	10002b16 <_hw_endpoint_xfer+0x5e>
10002b16:	e7ff      	b.n	10002b18 <_hw_endpoint_xfer+0x60>
10002b18:	e7ff      	b.n	10002b1a <_hw_endpoint_xfer+0x62>
10002b1a:	e7ff      	b.n	10002b1c <_hw_endpoint_xfer+0x64>
10002b1c:	e7ff      	b.n	10002b1e <_hw_endpoint_xfer+0x66>
10002b1e:	e7ff      	b.n	10002b20 <_hw_endpoint_xfer+0x68>
10002b20:	68a3      	ldr	r3, [r4, #8]
10002b22:	601a      	str	r2, [r3, #0]
10002b24:	bd70      	pop	{r4, r5, r6, pc}
10002b26:	1c13      	adds	r3, r2, #0
10002b28:	b29d      	uxth	r5, r3
10002b2a:	82e3      	strh	r3, [r4, #22]
10002b2c:	2301      	movs	r3, #1
10002b2e:	7463      	strb	r3, [r4, #17]
10002b30:	7863      	ldrb	r3, [r4, #1]
10002b32:	61a1      	str	r1, [r4, #24]
10002b34:	2b00      	cmp	r3, #0
10002b36:	d1da      	bne.n	10002aee <_hw_endpoint_xfer+0x36>
10002b38:	e004      	b.n	10002b44 <_hw_endpoint_xfer+0x8c>
10002b3a:	2340      	movs	r3, #64	; 0x40
10002b3c:	b298      	uxth	r0, r3
10002b3e:	4290      	cmp	r0, r2
10002b40:	d9cd      	bls.n	10002ade <_hw_endpoint_xfer+0x26>
10002b42:	e7f0      	b.n	10002b26 <_hw_endpoint_xfer+0x6e>
10002b44:	002a      	movs	r2, r5
10002b46:	68e0      	ldr	r0, [r4, #12]
10002b48:	f7ff f9e2 	bl	10001f10 <__wrap___aeabi_memcpy>
10002b4c:	2284      	movs	r2, #132	; 0x84
10002b4e:	0212      	lsls	r2, r2, #8
10002b50:	432a      	orrs	r2, r5
10002b52:	e7cf      	b.n	10002af4 <_hw_endpoint_xfer+0x3c>
10002b54:	f7ff ff2e 	bl	100029b4 <_hw_endpoint_xfer_continue>
10002b58:	e7e4      	b.n	10002b24 <_hw_endpoint_xfer+0x6c>
10002b5a:	0020      	movs	r0, r4
10002b5c:	f7ff fecc 	bl	100028f8 <_hw_endpoint_buffer_control_update32.part.0>
10002b60:	fffffbff 	.word	0xfffffbff

10002b64 <tud_mounted>:
10002b64:	4b02      	ldr	r3, [pc, #8]	; (10002b70 <tud_mounted+0xc>)
10002b66:	7858      	ldrb	r0, [r3, #1]
10002b68:	1e43      	subs	r3, r0, #1
10002b6a:	4198      	sbcs	r0, r3
10002b6c:	b2c0      	uxtb	r0, r0
10002b6e:	4770      	bx	lr
10002b70:	20001308 	.word	0x20001308

10002b74 <tud_suspended>:
10002b74:	4b02      	ldr	r3, [pc, #8]	; (10002b80 <tud_suspended+0xc>)
10002b76:	7818      	ldrb	r0, [r3, #0]
10002b78:	0740      	lsls	r0, r0, #29
10002b7a:	0fc0      	lsrs	r0, r0, #31
10002b7c:	4770      	bx	lr
10002b7e:	46c0      	nop			; (mov r8, r8)
10002b80:	20001308 	.word	0x20001308

10002b84 <tud_inited>:
10002b84:	4b01      	ldr	r3, [pc, #4]	; (10002b8c <tud_inited+0x8>)
10002b86:	7818      	ldrb	r0, [r3, #0]
10002b88:	4770      	bx	lr
10002b8a:	46c0      	nop			; (mov r8, r8)
10002b8c:	20001951 	.word	0x20001951

10002b90 <tud_init>:
10002b90:	b5f8      	push	{r3, r4, r5, r6, r7, lr}
10002b92:	4647      	mov	r7, r8
10002b94:	46ce      	mov	lr, r9
10002b96:	b580      	push	{r7, lr}
10002b98:	4f29      	ldr	r7, [pc, #164]	; (10002c40 <tud_init+0xb0>)
10002b9a:	0005      	movs	r5, r0
10002b9c:	783b      	ldrb	r3, [r7, #0]
10002b9e:	2b00      	cmp	r3, #0
10002ba0:	d004      	beq.n	10002bac <tud_init+0x1c>
10002ba2:	2001      	movs	r0, #1
10002ba4:	bc0c      	pop	{r2, r3}
10002ba6:	4690      	mov	r8, r2
10002ba8:	4699      	mov	r9, r3
10002baa:	bdf8      	pop	{r3, r4, r5, r6, r7, pc}
10002bac:	2237      	movs	r2, #55	; 0x37
10002bae:	2100      	movs	r1, #0
10002bb0:	4824      	ldr	r0, [pc, #144]	; (10002c44 <tud_init+0xb4>)
10002bb2:	f7ff f9a7 	bl	10001f04 <__wrap_memset>
10002bb6:	4c24      	ldr	r4, [pc, #144]	; (10002c48 <tud_init+0xb8>)
10002bb8:	0020      	movs	r0, r4
10002bba:	f7fe f9af 	bl	10000f1c <mutex_init>
10002bbe:	4b23      	ldr	r3, [pc, #140]	; (10002c4c <tud_init+0xbc>)
10002bc0:	601c      	str	r4, [r3, #0]
10002bc2:	4c23      	ldr	r4, [pc, #140]	; (10002c50 <tud_init+0xc0>)
10002bc4:	0020      	movs	r0, r4
10002bc6:	301c      	adds	r0, #28
10002bc8:	f7fe f9c4 	bl	10000f54 <critical_section_init>
10002bcc:	0020      	movs	r0, r4
10002bce:	f001 fc55 	bl	1000447c <tu_fifo_clear>
10002bd2:	4b20      	ldr	r3, [pc, #128]	; (10002c54 <tud_init+0xc4>)
10002bd4:	4e20      	ldr	r6, [pc, #128]	; (10002c58 <tud_init+0xc8>)
10002bd6:	601c      	str	r4, [r3, #0]
10002bd8:	4b20      	ldr	r3, [pc, #128]	; (10002c5c <tud_init+0xcc>)
10002bda:	4698      	mov	r8, r3
10002bdc:	2b00      	cmp	r3, #0
10002bde:	d004      	beq.n	10002bea <tud_init+0x5a>
10002be0:	0030      	movs	r0, r6
10002be2:	f7ff fafb 	bl	100021dc <usbd_app_driver_get_cb>
10002be6:	4b1e      	ldr	r3, [pc, #120]	; (10002c60 <tud_init+0xd0>)
10002be8:	6018      	str	r0, [r3, #0]
10002bea:	4642      	mov	r2, r8
10002bec:	2400      	movs	r4, #0
10002bee:	7833      	ldrb	r3, [r6, #0]
10002bf0:	2a00      	cmp	r2, #0
10002bf2:	d01d      	beq.n	10002c30 <tud_init+0xa0>
10002bf4:	4a1b      	ldr	r2, [pc, #108]	; (10002c64 <tud_init+0xd4>)
10002bf6:	4690      	mov	r8, r2
10002bf8:	4a19      	ldr	r2, [pc, #100]	; (10002c60 <tud_init+0xd0>)
10002bfa:	4691      	mov	r9, r2
10002bfc:	429c      	cmp	r4, r3
10002bfe:	d310      	bcc.n	10002c22 <tud_init+0x92>
10002c00:	d11b      	bne.n	10002c3a <tud_init+0xaa>
10002c02:	4643      	mov	r3, r8
10002c04:	4798      	blx	r3
10002c06:	3401      	adds	r4, #1
10002c08:	7833      	ldrb	r3, [r6, #0]
10002c0a:	b2e4      	uxtb	r4, r4
10002c0c:	42a3      	cmp	r3, r4
10002c0e:	d2f5      	bcs.n	10002bfc <tud_init+0x6c>
10002c10:	0028      	movs	r0, r5
10002c12:	f7ff fd15 	bl	10002640 <dcd_init>
10002c16:	0028      	movs	r0, r5
10002c18:	f7ff fcf0 	bl	100025fc <dcd_int_enable>
10002c1c:	2301      	movs	r3, #1
10002c1e:	703b      	strb	r3, [r7, #0]
10002c20:	e7bf      	b.n	10002ba2 <tud_init+0x12>
10002c22:	464a      	mov	r2, r9
10002c24:	0063      	lsls	r3, r4, #1
10002c26:	6812      	ldr	r2, [r2, #0]
10002c28:	191b      	adds	r3, r3, r4
10002c2a:	00db      	lsls	r3, r3, #3
10002c2c:	589b      	ldr	r3, [r3, r2]
10002c2e:	e7e9      	b.n	10002c04 <tud_init+0x74>
10002c30:	f001 f81e 	bl	10003c70 <cdcd_init>
10002c34:	7833      	ldrb	r3, [r6, #0]
10002c36:	2b00      	cmp	r3, #0
10002c38:	d0ea      	beq.n	10002c10 <tud_init+0x80>
10002c3a:	2300      	movs	r3, #0
10002c3c:	681b      	ldr	r3, [r3, #0]
10002c3e:	deff      	udf	#255	; 0xff
10002c40:	20001951 	.word	0x20001951
10002c44:	20001308 	.word	0x20001308
10002c48:	200012c0 	.word	0x200012c0
10002c4c:	20001340 	.word	0x20001340
10002c50:	200004ac 	.word	0x200004ac
10002c54:	20001344 	.word	0x20001344
10002c58:	20001950 	.word	0x20001950
10002c5c:	100021dd 	.word	0x100021dd
10002c60:	20000fd0 	.word	0x20000fd0
10002c64:	10003c71 	.word	0x10003c71

10002c68 <tud_task>:
10002c68:	b5f0      	push	{r4, r5, r6, r7, lr}
10002c6a:	46de      	mov	lr, fp
10002c6c:	4657      	mov	r7, sl
10002c6e:	464e      	mov	r6, r9
10002c70:	4645      	mov	r5, r8
10002c72:	b5e0      	push	{r5, r6, r7, lr}
10002c74:	b08b      	sub	sp, #44	; 0x2c
10002c76:	f001 fa07 	bl	10004088 <tusb_inited>
10002c7a:	2800      	cmp	r0, #0
10002c7c:	d100      	bne.n	10002c80 <tud_task+0x18>
10002c7e:	e132      	b.n	10002ee6 <tud_task+0x27e>
10002c80:	4bb9      	ldr	r3, [pc, #740]	; (10002f68 <tud_task+0x300>)
10002c82:	ac07      	add	r4, sp, #28
10002c84:	469a      	mov	sl, r3
10002c86:	4bb9      	ldr	r3, [pc, #740]	; (10002f6c <tud_task+0x304>)
10002c88:	469b      	mov	fp, r3
10002c8a:	4653      	mov	r3, sl
10002c8c:	681d      	ldr	r5, [r3, #0]
10002c8e:	69ea      	ldr	r2, [r5, #28]
10002c90:	f3ef 8310 	mrs	r3, PRIMASK
10002c94:	b672      	cpsid	i
10002c96:	6811      	ldr	r1, [r2, #0]
10002c98:	2900      	cmp	r1, #0
10002c9a:	d0fc      	beq.n	10002c96 <tud_task+0x2e>
10002c9c:	f3bf 8f5f 	dmb	sy
10002ca0:	622b      	str	r3, [r5, #32]
10002ca2:	0021      	movs	r1, r4
10002ca4:	0028      	movs	r0, r5
10002ca6:	f001 fa55 	bl	10004154 <tu_fifo_read>
10002caa:	69ea      	ldr	r2, [r5, #28]
10002cac:	6a2b      	ldr	r3, [r5, #32]
10002cae:	f3bf 8f5f 	dmb	sy
10002cb2:	2100      	movs	r1, #0
10002cb4:	6011      	str	r1, [r2, #0]
10002cb6:	f383 8810 	msr	PRIMASK, r3
10002cba:	2800      	cmp	r0, #0
10002cbc:	d100      	bne.n	10002cc0 <tud_task+0x58>
10002cbe:	e112      	b.n	10002ee6 <tud_task+0x27e>
10002cc0:	7863      	ldrb	r3, [r4, #1]
10002cc2:	2b08      	cmp	r3, #8
10002cc4:	d8e1      	bhi.n	10002c8a <tud_task+0x22>
10002cc6:	465a      	mov	r2, fp
10002cc8:	009b      	lsls	r3, r3, #2
10002cca:	58d3      	ldr	r3, [r2, r3]
10002ccc:	469f      	mov	pc, r3
10002cce:	6863      	ldr	r3, [r4, #4]
10002cd0:	2b00      	cmp	r3, #0
10002cd2:	d0da      	beq.n	10002c8a <tud_task+0x22>
10002cd4:	68a0      	ldr	r0, [r4, #8]
10002cd6:	4798      	blx	r3
10002cd8:	e7d7      	b.n	10002c8a <tud_task+0x22>
10002cda:	227f      	movs	r2, #127	; 0x7f
10002cdc:	7921      	ldrb	r1, [r4, #4]
10002cde:	4ba4      	ldr	r3, [pc, #656]	; (10002f70 <tud_task+0x308>)
10002ce0:	400a      	ands	r2, r1
10002ce2:	0055      	lsls	r5, r2, #1
10002ce4:	09c8      	lsrs	r0, r1, #7
10002ce6:	195b      	adds	r3, r3, r5
10002ce8:	181b      	adds	r3, r3, r0
10002cea:	0018      	movs	r0, r3
10002cec:	2601      	movs	r6, #1
10002cee:	3020      	adds	r0, #32
10002cf0:	7945      	ldrb	r5, [r0, #5]
10002cf2:	43b5      	bics	r5, r6
10002cf4:	7145      	strb	r5, [r0, #5]
10002cf6:	7945      	ldrb	r5, [r0, #5]
10002cf8:	3603      	adds	r6, #3
10002cfa:	43b5      	bics	r5, r6
10002cfc:	7145      	strb	r5, [r0, #5]
10002cfe:	2a00      	cmp	r2, #0
10002d00:	d100      	bne.n	10002d04 <tud_task+0x9c>
10002d02:	e0f7      	b.n	10002ef4 <tud_task+0x28c>
10002d04:	4a9b      	ldr	r2, [pc, #620]	; (10002f74 <tud_task+0x30c>)
10002d06:	7cdb      	ldrb	r3, [r3, #19]
10002d08:	2a00      	cmp	r2, #0
10002d0a:	d006      	beq.n	10002d1a <tud_task+0xb2>
10002d0c:	4a9a      	ldr	r2, [pc, #616]	; (10002f78 <tud_task+0x310>)
10002d0e:	7812      	ldrb	r2, [r2, #0]
10002d10:	4293      	cmp	r3, r2
10002d12:	d200      	bcs.n	10002d16 <tud_task+0xae>
10002d14:	e179      	b.n	1000300a <tud_task+0x3a2>
10002d16:	1a9b      	subs	r3, r3, r2
10002d18:	b2db      	uxtb	r3, r3
10002d1a:	2b00      	cmp	r3, #0
10002d1c:	d000      	beq.n	10002d20 <tud_task+0xb8>
10002d1e:	e0e2      	b.n	10002ee6 <tud_task+0x27e>
10002d20:	4d96      	ldr	r5, [pc, #600]	; (10002f7c <tud_task+0x314>)
10002d22:	7962      	ldrb	r2, [r4, #5]
10002d24:	7820      	ldrb	r0, [r4, #0]
10002d26:	68a3      	ldr	r3, [r4, #8]
10002d28:	47a8      	blx	r5
10002d2a:	e7ae      	b.n	10002c8a <tud_task+0x22>
10002d2c:	2201      	movs	r2, #1
10002d2e:	4f90      	ldr	r7, [pc, #576]	; (10002f70 <tud_task+0x308>)
10002d30:	2101      	movs	r1, #1
10002d32:	783b      	ldrb	r3, [r7, #0]
10002d34:	2004      	movs	r0, #4
10002d36:	4313      	orrs	r3, r2
10002d38:	703b      	strb	r3, [r7, #0]
10002d3a:	2325      	movs	r3, #37	; 0x25
10002d3c:	5cfa      	ldrb	r2, [r7, r3]
10002d3e:	438a      	bics	r2, r1
10002d40:	54fa      	strb	r2, [r7, r3]
10002d42:	5cfa      	ldrb	r2, [r7, r3]
10002d44:	4382      	bics	r2, r0
10002d46:	54fa      	strb	r2, [r7, r3]
10002d48:	3301      	adds	r3, #1
10002d4a:	5cfa      	ldrb	r2, [r7, r3]
10002d4c:	438a      	bics	r2, r1
10002d4e:	54fa      	strb	r2, [r7, r3]
10002d50:	5cfa      	ldrb	r2, [r7, r3]
10002d52:	4382      	bics	r2, r0
10002d54:	54fa      	strb	r2, [r7, r3]
10002d56:	7823      	ldrb	r3, [r4, #0]
10002d58:	2000      	movs	r0, #0
10002d5a:	9300      	str	r3, [sp, #0]
10002d5c:	f000 fe3a 	bl	100039d4 <usbd_control_set_complete_callback>
10002d60:	2260      	movs	r2, #96	; 0x60
10002d62:	7923      	ldrb	r3, [r4, #4]
10002d64:	401a      	ands	r2, r3
10002d66:	2a60      	cmp	r2, #96	; 0x60
10002d68:	d00d      	beq.n	10002d86 <tud_task+0x11e>
10002d6a:	2a40      	cmp	r2, #64	; 0x40
10002d6c:	d100      	bne.n	10002d70 <tud_task+0x108>
10002d6e:	e0dd      	b.n	10002f2c <tud_task+0x2c4>
10002d70:	06db      	lsls	r3, r3, #27
10002d72:	0edb      	lsrs	r3, r3, #27
10002d74:	2b01      	cmp	r3, #1
10002d76:	d100      	bne.n	10002d7a <tud_task+0x112>
10002d78:	e152      	b.n	10003020 <tud_task+0x3b8>
10002d7a:	2b02      	cmp	r3, #2
10002d7c:	d100      	bne.n	10002d80 <tud_task+0x118>
10002d7e:	e10f      	b.n	10002fa0 <tud_task+0x338>
10002d80:	2b00      	cmp	r3, #0
10002d82:	d100      	bne.n	10002d86 <tud_task+0x11e>
10002d84:	e0e1      	b.n	10002f4a <tud_task+0x2e2>
10002d86:	7820      	ldrb	r0, [r4, #0]
10002d88:	2100      	movs	r1, #0
10002d8a:	f7ff fd6d 	bl	10002868 <dcd_edpt_stall>
10002d8e:	2180      	movs	r1, #128	; 0x80
10002d90:	7820      	ldrb	r0, [r4, #0]
10002d92:	f7ff fd69 	bl	10002868 <dcd_edpt_stall>
10002d96:	e778      	b.n	10002c8a <tud_task+0x22>
10002d98:	4b79      	ldr	r3, [pc, #484]	; (10002f80 <tud_task+0x318>)
10002d9a:	2b00      	cmp	r3, #0
10002d9c:	d100      	bne.n	10002da0 <tud_task+0x138>
10002d9e:	e774      	b.n	10002c8a <tud_task+0x22>
10002da0:	e000      	b.n	10002da4 <tud_task+0x13c>
10002da2:	bf00      	nop
10002da4:	e771      	b.n	10002c8a <tud_task+0x22>
10002da6:	4b77      	ldr	r3, [pc, #476]	; (10002f84 <tud_task+0x31c>)
10002da8:	2b00      	cmp	r3, #0
10002daa:	d100      	bne.n	10002dae <tud_task+0x146>
10002dac:	e76d      	b.n	10002c8a <tud_task+0x22>
10002dae:	4b70      	ldr	r3, [pc, #448]	; (10002f70 <tud_task+0x308>)
10002db0:	7818      	ldrb	r0, [r3, #0]
10002db2:	0700      	lsls	r0, r0, #28
10002db4:	0fc0      	lsrs	r0, r0, #31
10002db6:	e000      	b.n	10002dba <tud_task+0x152>
10002db8:	bf00      	nop
10002dba:	e766      	b.n	10002c8a <tud_task+0x22>
10002dbc:	4e6e      	ldr	r6, [pc, #440]	; (10002f78 <tud_task+0x310>)
10002dbe:	4a6d      	ldr	r2, [pc, #436]	; (10002f74 <tud_task+0x30c>)
10002dc0:	2500      	movs	r5, #0
10002dc2:	7833      	ldrb	r3, [r6, #0]
10002dc4:	2a00      	cmp	r2, #0
10002dc6:	d100      	bne.n	10002dca <tud_task+0x162>
10002dc8:	e0a3      	b.n	10002f12 <tud_task+0x2aa>
10002dca:	4f6f      	ldr	r7, [pc, #444]	; (10002f88 <tud_task+0x320>)
10002dcc:	429d      	cmp	r5, r3
10002dce:	d308      	bcc.n	10002de2 <tud_task+0x17a>
10002dd0:	429d      	cmp	r5, r3
10002dd2:	d000      	beq.n	10002dd6 <tud_task+0x16e>
10002dd4:	e0a0      	b.n	10002f18 <tud_task+0x2b0>
10002dd6:	3501      	adds	r5, #1
10002dd8:	b2ed      	uxtb	r5, r5
10002dda:	429d      	cmp	r5, r3
10002ddc:	d900      	bls.n	10002de0 <tud_task+0x178>
10002dde:	e754      	b.n	10002c8a <tud_task+0x22>
10002de0:	d2f6      	bcs.n	10002dd0 <tud_task+0x168>
10002de2:	6839      	ldr	r1, [r7, #0]
10002de4:	006a      	lsls	r2, r5, #1
10002de6:	468c      	mov	ip, r1
10002de8:	1952      	adds	r2, r2, r5
10002dea:	00d2      	lsls	r2, r2, #3
10002dec:	4462      	add	r2, ip
10002dee:	6952      	ldr	r2, [r2, #20]
10002df0:	2a00      	cmp	r2, #0
10002df2:	d0f0      	beq.n	10002dd6 <tud_task+0x16e>
10002df4:	7820      	ldrb	r0, [r4, #0]
10002df6:	4790      	blx	r2
10002df8:	3501      	adds	r5, #1
10002dfa:	7833      	ldrb	r3, [r6, #0]
10002dfc:	b2ed      	uxtb	r5, r5
10002dfe:	429d      	cmp	r5, r3
10002e00:	d9e4      	bls.n	10002dcc <tud_task+0x164>
10002e02:	e742      	b.n	10002c8a <tud_task+0x22>
10002e04:	2237      	movs	r2, #55	; 0x37
10002e06:	2100      	movs	r1, #0
10002e08:	4859      	ldr	r0, [pc, #356]	; (10002f70 <tud_task+0x308>)
10002e0a:	7827      	ldrb	r7, [r4, #0]
10002e0c:	f7ff f87a 	bl	10001f04 <__wrap_memset>
10002e10:	2210      	movs	r2, #16
10002e12:	21ff      	movs	r1, #255	; 0xff
10002e14:	485d      	ldr	r0, [pc, #372]	; (10002f8c <tud_task+0x324>)
10002e16:	f7ff f875 	bl	10001f04 <__wrap_memset>
10002e1a:	4855      	ldr	r0, [pc, #340]	; (10002f70 <tud_task+0x308>)
10002e1c:	2212      	movs	r2, #18
10002e1e:	21ff      	movs	r1, #255	; 0xff
10002e20:	3013      	adds	r0, #19
10002e22:	f7ff f86f 	bl	10001f04 <__wrap_memset>
10002e26:	f000 fdcb 	bl	100039c0 <usbd_control_reset>
10002e2a:	4e53      	ldr	r6, [pc, #332]	; (10002f78 <tud_task+0x310>)
10002e2c:	4a51      	ldr	r2, [pc, #324]	; (10002f74 <tud_task+0x30c>)
10002e2e:	2500      	movs	r5, #0
10002e30:	7833      	ldrb	r3, [r6, #0]
10002e32:	2a00      	cmp	r2, #0
10002e34:	d064      	beq.n	10002f00 <tud_task+0x298>
10002e36:	4a56      	ldr	r2, [pc, #344]	; (10002f90 <tud_task+0x328>)
10002e38:	4690      	mov	r8, r2
10002e3a:	4a53      	ldr	r2, [pc, #332]	; (10002f88 <tud_task+0x320>)
10002e3c:	4691      	mov	r9, r2
10002e3e:	42ab      	cmp	r3, r5
10002e40:	d83f      	bhi.n	10002ec2 <tud_task+0x25a>
10002e42:	d163      	bne.n	10002f0c <tud_task+0x2a4>
10002e44:	4643      	mov	r3, r8
10002e46:	0038      	movs	r0, r7
10002e48:	4798      	blx	r3
10002e4a:	3501      	adds	r5, #1
10002e4c:	7833      	ldrb	r3, [r6, #0]
10002e4e:	b2ed      	uxtb	r5, r5
10002e50:	42ab      	cmp	r3, r5
10002e52:	d2f4      	bcs.n	10002e3e <tud_task+0x1d6>
10002e54:	4b4f      	ldr	r3, [pc, #316]	; (10002f94 <tud_task+0x32c>)
10002e56:	2b00      	cmp	r3, #0
10002e58:	d100      	bne.n	10002e5c <tud_task+0x1f4>
10002e5a:	e716      	b.n	10002c8a <tud_task+0x22>
10002e5c:	e000      	b.n	10002e60 <tud_task+0x1f8>
10002e5e:	bf00      	nop
10002e60:	e713      	b.n	10002c8a <tud_task+0x22>
10002e62:	4f43      	ldr	r7, [pc, #268]	; (10002f70 <tud_task+0x308>)
10002e64:	7823      	ldrb	r3, [r4, #0]
10002e66:	2237      	movs	r2, #55	; 0x37
10002e68:	2100      	movs	r1, #0
10002e6a:	0038      	movs	r0, r7
10002e6c:	4698      	mov	r8, r3
10002e6e:	f7ff f849 	bl	10001f04 <__wrap_memset>
10002e72:	2210      	movs	r2, #16
10002e74:	21ff      	movs	r1, #255	; 0xff
10002e76:	1cf8      	adds	r0, r7, #3
10002e78:	f7ff f844 	bl	10001f04 <__wrap_memset>
10002e7c:	0038      	movs	r0, r7
10002e7e:	2212      	movs	r2, #18
10002e80:	21ff      	movs	r1, #255	; 0xff
10002e82:	3013      	adds	r0, #19
10002e84:	f7ff f83e 	bl	10001f04 <__wrap_memset>
10002e88:	f000 fd9a 	bl	100039c0 <usbd_control_reset>
10002e8c:	4e3a      	ldr	r6, [pc, #232]	; (10002f78 <tud_task+0x310>)
10002e8e:	4a39      	ldr	r2, [pc, #228]	; (10002f74 <tud_task+0x30c>)
10002e90:	2500      	movs	r5, #0
10002e92:	7833      	ldrb	r3, [r6, #0]
10002e94:	2a00      	cmp	r2, #0
10002e96:	d042      	beq.n	10002f1e <tud_task+0x2b6>
10002e98:	4a3b      	ldr	r2, [pc, #236]	; (10002f88 <tud_task+0x320>)
10002e9a:	4691      	mov	r9, r2
10002e9c:	003a      	movs	r2, r7
10002e9e:	0037      	movs	r7, r6
10002ea0:	4646      	mov	r6, r8
10002ea2:	4690      	mov	r8, r2
10002ea4:	429d      	cmp	r5, r3
10002ea6:	d315      	bcc.n	10002ed4 <tud_task+0x26c>
10002ea8:	d130      	bne.n	10002f0c <tud_task+0x2a4>
10002eaa:	4b39      	ldr	r3, [pc, #228]	; (10002f90 <tud_task+0x328>)
10002eac:	0030      	movs	r0, r6
10002eae:	4798      	blx	r3
10002eb0:	3501      	adds	r5, #1
10002eb2:	783b      	ldrb	r3, [r7, #0]
10002eb4:	b2ed      	uxtb	r5, r5
10002eb6:	42ab      	cmp	r3, r5
10002eb8:	d2f4      	bcs.n	10002ea4 <tud_task+0x23c>
10002eba:	4647      	mov	r7, r8
10002ebc:	7923      	ldrb	r3, [r4, #4]
10002ebe:	70bb      	strb	r3, [r7, #2]
10002ec0:	e6e3      	b.n	10002c8a <tud_task+0x22>
10002ec2:	464a      	mov	r2, r9
10002ec4:	6812      	ldr	r2, [r2, #0]
10002ec6:	006b      	lsls	r3, r5, #1
10002ec8:	4694      	mov	ip, r2
10002eca:	195b      	adds	r3, r3, r5
10002ecc:	00db      	lsls	r3, r3, #3
10002ece:	4463      	add	r3, ip
10002ed0:	685b      	ldr	r3, [r3, #4]
10002ed2:	e7b8      	b.n	10002e46 <tud_task+0x1de>
10002ed4:	464a      	mov	r2, r9
10002ed6:	6812      	ldr	r2, [r2, #0]
10002ed8:	006b      	lsls	r3, r5, #1
10002eda:	4694      	mov	ip, r2
10002edc:	195b      	adds	r3, r3, r5
10002ede:	00db      	lsls	r3, r3, #3
10002ee0:	4463      	add	r3, ip
10002ee2:	685b      	ldr	r3, [r3, #4]
10002ee4:	e7e2      	b.n	10002eac <tud_task+0x244>
10002ee6:	b00b      	add	sp, #44	; 0x2c
10002ee8:	bc3c      	pop	{r2, r3, r4, r5}
10002eea:	4690      	mov	r8, r2
10002eec:	4699      	mov	r9, r3
10002eee:	46a2      	mov	sl, r4
10002ef0:	46ab      	mov	fp, r5
10002ef2:	bdf0      	pop	{r4, r5, r6, r7, pc}
10002ef4:	7962      	ldrb	r2, [r4, #5]
10002ef6:	7820      	ldrb	r0, [r4, #0]
10002ef8:	68a3      	ldr	r3, [r4, #8]
10002efa:	f000 fd7f 	bl	100039fc <usbd_control_xfer_cb>
10002efe:	e6c4      	b.n	10002c8a <tud_task+0x22>
10002f00:	0038      	movs	r0, r7
10002f02:	f000 fef3 	bl	10003cec <cdcd_reset>
10002f06:	7833      	ldrb	r3, [r6, #0]
10002f08:	2b00      	cmp	r3, #0
10002f0a:	d0a3      	beq.n	10002e54 <tud_task+0x1ec>
10002f0c:	2300      	movs	r3, #0
10002f0e:	685b      	ldr	r3, [r3, #4]
10002f10:	deff      	udf	#255	; 0xff
10002f12:	2b00      	cmp	r3, #0
10002f14:	d100      	bne.n	10002f18 <tud_task+0x2b0>
10002f16:	e6b8      	b.n	10002c8a <tud_task+0x22>
10002f18:	2300      	movs	r3, #0
10002f1a:	695b      	ldr	r3, [r3, #20]
10002f1c:	deff      	udf	#255	; 0xff
10002f1e:	4640      	mov	r0, r8
10002f20:	f000 fee4 	bl	10003cec <cdcd_reset>
10002f24:	7833      	ldrb	r3, [r6, #0]
10002f26:	2b00      	cmp	r3, #0
10002f28:	d0c8      	beq.n	10002ebc <tud_task+0x254>
10002f2a:	e7ef      	b.n	10002f0c <tud_task+0x2a4>
10002f2c:	481a      	ldr	r0, [pc, #104]	; (10002f98 <tud_task+0x330>)
10002f2e:	2800      	cmp	r0, #0
10002f30:	d100      	bne.n	10002f34 <tud_task+0x2cc>
10002f32:	e728      	b.n	10002d86 <tud_task+0x11e>
10002f34:	f000 fd4e 	bl	100039d4 <usbd_control_set_complete_callback>
10002f38:	2100      	movs	r1, #0
10002f3a:	9800      	ldr	r0, [sp, #0]
10002f3c:	aa08      	add	r2, sp, #32
10002f3e:	e000      	b.n	10002f42 <tud_task+0x2da>
10002f40:	bf00      	nop
10002f42:	2800      	cmp	r0, #0
10002f44:	d000      	beq.n	10002f48 <tud_task+0x2e0>
10002f46:	e6a0      	b.n	10002c8a <tud_task+0x22>
10002f48:	e71d      	b.n	10002d86 <tud_task+0x11e>
10002f4a:	2a20      	cmp	r2, #32
10002f4c:	d100      	bne.n	10002f50 <tud_task+0x2e8>
10002f4e:	e098      	b.n	10003082 <tud_task+0x41a>
10002f50:	2a00      	cmp	r2, #0
10002f52:	d000      	beq.n	10002f56 <tud_task+0x2ee>
10002f54:	e717      	b.n	10002d86 <tud_task+0x11e>
10002f56:	7963      	ldrb	r3, [r4, #5]
10002f58:	2b09      	cmp	r3, #9
10002f5a:	d900      	bls.n	10002f5e <tud_task+0x2f6>
10002f5c:	e713      	b.n	10002d86 <tud_task+0x11e>
10002f5e:	4a0f      	ldr	r2, [pc, #60]	; (10002f9c <tud_task+0x334>)
10002f60:	009b      	lsls	r3, r3, #2
10002f62:	58d3      	ldr	r3, [r2, r3]
10002f64:	469f      	mov	pc, r3
10002f66:	46c0      	nop			; (mov r8, r8)
10002f68:	20001344 	.word	0x20001344
10002f6c:	1000818c 	.word	0x1000818c
10002f70:	20001308 	.word	0x20001308
10002f74:	100021dd 	.word	0x100021dd
10002f78:	20001950 	.word	0x20001950
10002f7c:	10003ee5 	.word	0x10003ee5
	...
10002f88:	20000fd0 	.word	0x20000fd0
10002f8c:	2000130b 	.word	0x2000130b
10002f90:	10003ced 	.word	0x10003ced
	...
10002f9c:	100081b0 	.word	0x100081b0
10002fa0:	257f      	movs	r5, #127	; 0x7f
10002fa2:	7a21      	ldrb	r1, [r4, #8]
10002fa4:	400d      	ands	r5, r1
10002fa6:	2d08      	cmp	r5, #8
10002fa8:	d900      	bls.n	10002fac <tud_task+0x344>
10002faa:	e6ec      	b.n	10002d86 <tud_task+0x11e>
10002fac:	09cb      	lsrs	r3, r1, #7
10002fae:	4698      	mov	r8, r3
10002fb0:	006d      	lsls	r5, r5, #1
10002fb2:	197b      	adds	r3, r7, r5
10002fb4:	48bf      	ldr	r0, [pc, #764]	; (100032b4 <tud_task+0x64c>)
10002fb6:	4443      	add	r3, r8
10002fb8:	7cdb      	ldrb	r3, [r3, #19]
10002fba:	2800      	cmp	r0, #0
10002fbc:	d005      	beq.n	10002fca <tud_task+0x362>
10002fbe:	48be      	ldr	r0, [pc, #760]	; (100032b8 <tud_task+0x650>)
10002fc0:	7800      	ldrb	r0, [r0, #0]
10002fc2:	4283      	cmp	r3, r0
10002fc4:	d37e      	bcc.n	100030c4 <tud_task+0x45c>
10002fc6:	1a1b      	subs	r3, r3, r0
10002fc8:	b2db      	uxtb	r3, r3
10002fca:	2b00      	cmp	r3, #0
10002fcc:	d176      	bne.n	100030bc <tud_task+0x454>
10002fce:	2a00      	cmp	r2, #0
10002fd0:	d000      	beq.n	10002fd4 <tud_task+0x36c>
10002fd2:	e122      	b.n	1000321a <tud_task+0x5b2>
10002fd4:	4eb9      	ldr	r6, [pc, #740]	; (100032bc <tud_task+0x654>)
10002fd6:	2202      	movs	r2, #2
10002fd8:	7963      	ldrb	r3, [r4, #5]
10002fda:	4699      	mov	r9, r3
10002fdc:	4393      	bics	r3, r2
10002fde:	2b01      	cmp	r3, #1
10002fe0:	d100      	bne.n	10002fe4 <tud_task+0x37c>
10002fe2:	e11d      	b.n	10003220 <tud_task+0x5b8>
10002fe4:	464b      	mov	r3, r9
10002fe6:	2b00      	cmp	r3, #0
10002fe8:	d000      	beq.n	10002fec <tud_task+0x384>
10002fea:	e6cc      	b.n	10002d86 <tud_task+0x11e>
10002fec:	197b      	adds	r3, r7, r5
10002fee:	4443      	add	r3, r8
10002ff0:	3320      	adds	r3, #32
10002ff2:	795b      	ldrb	r3, [r3, #5]
10002ff4:	aa06      	add	r2, sp, #24
10002ff6:	079b      	lsls	r3, r3, #30
10002ff8:	0fdb      	lsrs	r3, r3, #31
10002ffa:	3202      	adds	r2, #2
10002ffc:	8013      	strh	r3, [r2, #0]
10002ffe:	9800      	ldr	r0, [sp, #0]
10003000:	2302      	movs	r3, #2
10003002:	a908      	add	r1, sp, #32
10003004:	f000 fc80 	bl	10003908 <tud_control_xfer>
10003008:	e63f      	b.n	10002c8a <tud_task+0x22>
1000300a:	005a      	lsls	r2, r3, #1
1000300c:	18d3      	adds	r3, r2, r3
1000300e:	4aac      	ldr	r2, [pc, #688]	; (100032c0 <tud_task+0x658>)
10003010:	00db      	lsls	r3, r3, #3
10003012:	6812      	ldr	r2, [r2, #0]
10003014:	18d3      	adds	r3, r2, r3
10003016:	2b00      	cmp	r3, #0
10003018:	d100      	bne.n	1000301c <tud_task+0x3b4>
1000301a:	e764      	b.n	10002ee6 <tud_task+0x27e>
1000301c:	691d      	ldr	r5, [r3, #16]
1000301e:	e680      	b.n	10002d22 <tud_task+0xba>
10003020:	7a23      	ldrb	r3, [r4, #8]
10003022:	2b0f      	cmp	r3, #15
10003024:	d900      	bls.n	10003028 <tud_task+0x3c0>
10003026:	e6ae      	b.n	10002d86 <tud_task+0x11e>
10003028:	4aa2      	ldr	r2, [pc, #648]	; (100032b4 <tud_task+0x64c>)
1000302a:	18fb      	adds	r3, r7, r3
1000302c:	78db      	ldrb	r3, [r3, #3]
1000302e:	2a00      	cmp	r2, #0
10003030:	d005      	beq.n	1000303e <tud_task+0x3d6>
10003032:	4aa1      	ldr	r2, [pc, #644]	; (100032b8 <tud_task+0x650>)
10003034:	7812      	ldrb	r2, [r2, #0]
10003036:	4293      	cmp	r3, r2
10003038:	d358      	bcc.n	100030ec <tud_task+0x484>
1000303a:	1a9b      	subs	r3, r3, r2
1000303c:	b2db      	uxtb	r3, r3
1000303e:	2b00      	cmp	r3, #0
10003040:	d000      	beq.n	10003044 <tud_task+0x3dc>
10003042:	e6a0      	b.n	10002d86 <tud_task+0x11e>
10003044:	489f      	ldr	r0, [pc, #636]	; (100032c4 <tud_task+0x65c>)
10003046:	4d9d      	ldr	r5, [pc, #628]	; (100032bc <tud_task+0x654>)
10003048:	f000 fcc4 	bl	100039d4 <usbd_control_set_complete_callback>
1000304c:	2100      	movs	r1, #0
1000304e:	68eb      	ldr	r3, [r5, #12]
10003050:	9800      	ldr	r0, [sp, #0]
10003052:	aa08      	add	r2, sp, #32
10003054:	4798      	blx	r3
10003056:	2800      	cmp	r0, #0
10003058:	d000      	beq.n	1000305c <tud_task+0x3f4>
1000305a:	e616      	b.n	10002c8a <tud_task+0x22>
1000305c:	2260      	movs	r2, #96	; 0x60
1000305e:	0011      	movs	r1, r2
10003060:	7923      	ldrb	r3, [r4, #4]
10003062:	4019      	ands	r1, r3
10003064:	421a      	tst	r2, r3
10003066:	d000      	beq.n	1000306a <tud_task+0x402>
10003068:	e68d      	b.n	10002d86 <tud_task+0x11e>
1000306a:	7963      	ldrb	r3, [r4, #5]
1000306c:	2b0a      	cmp	r3, #10
1000306e:	d100      	bne.n	10003072 <tud_task+0x40a>
10003070:	e109      	b.n	10003286 <tud_task+0x61e>
10003072:	2b0b      	cmp	r3, #11
10003074:	d000      	beq.n	10003078 <tud_task+0x410>
10003076:	e686      	b.n	10002d86 <tud_task+0x11e>
10003078:	9800      	ldr	r0, [sp, #0]
1000307a:	a908      	add	r1, sp, #32
1000307c:	f000 fc2c 	bl	100038d8 <tud_control_status>
10003080:	e603      	b.n	10002c8a <tud_task+0x22>
10003082:	7a23      	ldrb	r3, [r4, #8]
10003084:	2b0f      	cmp	r3, #15
10003086:	d900      	bls.n	1000308a <tud_task+0x422>
10003088:	e67d      	b.n	10002d86 <tud_task+0x11e>
1000308a:	4a8a      	ldr	r2, [pc, #552]	; (100032b4 <tud_task+0x64c>)
1000308c:	18fb      	adds	r3, r7, r3
1000308e:	78db      	ldrb	r3, [r3, #3]
10003090:	2a00      	cmp	r2, #0
10003092:	d006      	beq.n	100030a2 <tud_task+0x43a>
10003094:	4a88      	ldr	r2, [pc, #544]	; (100032b8 <tud_task+0x650>)
10003096:	7812      	ldrb	r2, [r2, #0]
10003098:	4293      	cmp	r3, r2
1000309a:	d200      	bcs.n	1000309e <tud_task+0x436>
1000309c:	e0e8      	b.n	10003270 <tud_task+0x608>
1000309e:	1a9b      	subs	r3, r3, r2
100030a0:	b2db      	uxtb	r3, r3
100030a2:	2b00      	cmp	r3, #0
100030a4:	d000      	beq.n	100030a8 <tud_task+0x440>
100030a6:	e66e      	b.n	10002d86 <tud_task+0x11e>
100030a8:	4886      	ldr	r0, [pc, #536]	; (100032c4 <tud_task+0x65c>)
100030aa:	4d84      	ldr	r5, [pc, #528]	; (100032bc <tud_task+0x654>)
100030ac:	f000 fc92 	bl	100039d4 <usbd_control_set_complete_callback>
100030b0:	2100      	movs	r1, #0
100030b2:	68eb      	ldr	r3, [r5, #12]
100030b4:	9800      	ldr	r0, [sp, #0]
100030b6:	aa08      	add	r2, sp, #32
100030b8:	4798      	blx	r3
100030ba:	e742      	b.n	10002f42 <tud_task+0x2da>
100030bc:	2600      	movs	r6, #0
100030be:	2a00      	cmp	r2, #0
100030c0:	d089      	beq.n	10002fd6 <tud_task+0x36e>
100030c2:	e660      	b.n	10002d86 <tud_task+0x11e>
100030c4:	487e      	ldr	r0, [pc, #504]	; (100032c0 <tud_task+0x658>)
100030c6:	005e      	lsls	r6, r3, #1
100030c8:	18f3      	adds	r3, r6, r3
100030ca:	6806      	ldr	r6, [r0, #0]
100030cc:	00db      	lsls	r3, r3, #3
100030ce:	18f6      	adds	r6, r6, r3
100030d0:	2a00      	cmp	r2, #0
100030d2:	d080      	beq.n	10002fd6 <tud_task+0x36e>
100030d4:	2e00      	cmp	r6, #0
100030d6:	d100      	bne.n	100030da <tud_task+0x472>
100030d8:	e655      	b.n	10002d86 <tud_task+0x11e>
100030da:	68f0      	ldr	r0, [r6, #12]
100030dc:	f000 fc7a 	bl	100039d4 <usbd_control_set_complete_callback>
100030e0:	2100      	movs	r1, #0
100030e2:	68f3      	ldr	r3, [r6, #12]
100030e4:	9800      	ldr	r0, [sp, #0]
100030e6:	aa08      	add	r2, sp, #32
100030e8:	4798      	blx	r3
100030ea:	e72a      	b.n	10002f42 <tud_task+0x2da>
100030ec:	4a74      	ldr	r2, [pc, #464]	; (100032c0 <tud_task+0x658>)
100030ee:	005d      	lsls	r5, r3, #1
100030f0:	18eb      	adds	r3, r5, r3
100030f2:	6815      	ldr	r5, [r2, #0]
100030f4:	00db      	lsls	r3, r3, #3
100030f6:	18ed      	adds	r5, r5, r3
100030f8:	2d00      	cmp	r5, #0
100030fa:	d100      	bne.n	100030fe <tud_task+0x496>
100030fc:	e643      	b.n	10002d86 <tud_task+0x11e>
100030fe:	68e8      	ldr	r0, [r5, #12]
10003100:	e7a2      	b.n	10003048 <tud_task+0x3e0>
10003102:	88e3      	ldrh	r3, [r4, #6]
10003104:	2b01      	cmp	r3, #1
10003106:	d000      	beq.n	1000310a <tud_task+0x4a2>
10003108:	e63d      	b.n	10002d86 <tud_task+0x11e>
1000310a:	2208      	movs	r2, #8
1000310c:	783b      	ldrb	r3, [r7, #0]
1000310e:	9800      	ldr	r0, [sp, #0]
10003110:	4393      	bics	r3, r2
10003112:	a908      	add	r1, sp, #32
10003114:	703b      	strb	r3, [r7, #0]
10003116:	f000 fbdf 	bl	100038d8 <tud_control_status>
1000311a:	e5b6      	b.n	10002c8a <tud_task+0x22>
1000311c:	2002      	movs	r0, #2
1000311e:	7839      	ldrb	r1, [r7, #0]
10003120:	ab06      	add	r3, sp, #24
10003122:	1c9a      	adds	r2, r3, #2
10003124:	068b      	lsls	r3, r1, #26
10003126:	0889      	lsrs	r1, r1, #2
10003128:	0fdb      	lsrs	r3, r3, #31
1000312a:	4001      	ands	r1, r0
1000312c:	430b      	orrs	r3, r1
1000312e:	e765      	b.n	10002ffc <tud_task+0x394>
10003130:	79a3      	ldrb	r3, [r4, #6]
10003132:	9303      	str	r3, [sp, #12]
10003134:	001a      	movs	r2, r3
10003136:	787b      	ldrb	r3, [r7, #1]
10003138:	2b00      	cmp	r3, #0
1000313a:	d102      	bne.n	10003142 <tud_task+0x4da>
1000313c:	2a00      	cmp	r2, #0
1000313e:	d000      	beq.n	10003142 <tud_task+0x4da>
10003140:	e0c8      	b.n	100032d4 <tud_task+0x66c>
10003142:	9b03      	ldr	r3, [sp, #12]
10003144:	9800      	ldr	r0, [sp, #0]
10003146:	a908      	add	r1, sp, #32
10003148:	707b      	strb	r3, [r7, #1]
1000314a:	f000 fbc5 	bl	100038d8 <tud_control_status>
1000314e:	e59c      	b.n	10002c8a <tud_task+0x22>
10003150:	787b      	ldrb	r3, [r7, #1]
10003152:	aa06      	add	r2, sp, #24
10003154:	3202      	adds	r2, #2
10003156:	7013      	strb	r3, [r2, #0]
10003158:	9800      	ldr	r0, [sp, #0]
1000315a:	2301      	movs	r3, #1
1000315c:	a908      	add	r1, sp, #32
1000315e:	f000 fbd3 	bl	10003908 <tud_control_xfer>
10003162:	e592      	b.n	10002c8a <tud_task+0x22>
10003164:	88e3      	ldrh	r3, [r4, #6]
10003166:	79a0      	ldrb	r0, [r4, #6]
10003168:	0a1b      	lsrs	r3, r3, #8
1000316a:	2b0f      	cmp	r3, #15
1000316c:	d900      	bls.n	10003170 <tud_task+0x508>
1000316e:	e60a      	b.n	10002d86 <tud_task+0x11e>
10003170:	4a55      	ldr	r2, [pc, #340]	; (100032c8 <tud_task+0x660>)
10003172:	009b      	lsls	r3, r3, #2
10003174:	58d3      	ldr	r3, [r2, r3]
10003176:	469f      	mov	pc, r3
10003178:	a808      	add	r0, sp, #32
1000317a:	f000 fc31 	bl	100039e0 <usbd_control_set_request>
1000317e:	79a1      	ldrb	r1, [r4, #6]
10003180:	9800      	ldr	r0, [sp, #0]
10003182:	f7ff fa41 	bl	10002608 <dcd_set_address>
10003186:	2202      	movs	r2, #2
10003188:	783b      	ldrb	r3, [r7, #0]
1000318a:	4313      	orrs	r3, r2
1000318c:	703b      	strb	r3, [r7, #0]
1000318e:	e57c      	b.n	10002c8a <tud_task+0x22>
10003190:	88e3      	ldrh	r3, [r4, #6]
10003192:	2b01      	cmp	r3, #1
10003194:	d000      	beq.n	10003198 <tud_task+0x530>
10003196:	e5f6      	b.n	10002d86 <tud_task+0x11e>
10003198:	2208      	movs	r2, #8
1000319a:	783b      	ldrb	r3, [r7, #0]
1000319c:	9800      	ldr	r0, [sp, #0]
1000319e:	4313      	orrs	r3, r2
100031a0:	a908      	add	r1, sp, #32
100031a2:	703b      	strb	r3, [r7, #0]
100031a4:	f000 fb98 	bl	100038d8 <tud_control_status>
100031a8:	e56f      	b.n	10002c8a <tud_task+0x22>
100031aa:	4b48      	ldr	r3, [pc, #288]	; (100032cc <tud_task+0x664>)
100031ac:	2b00      	cmp	r3, #0
100031ae:	d100      	bne.n	100031b2 <tud_task+0x54a>
100031b0:	e5e9      	b.n	10002d86 <tud_task+0x11e>
100031b2:	e000      	b.n	100031b6 <tud_task+0x54e>
100031b4:	bf00      	nop
100031b6:	0005      	movs	r5, r0
100031b8:	ab06      	add	r3, sp, #24
100031ba:	1c9e      	adds	r6, r3, #2
100031bc:	1ca9      	adds	r1, r5, #2
100031be:	2202      	movs	r2, #2
100031c0:	0030      	movs	r0, r6
100031c2:	f7fe fea5 	bl	10001f10 <__wrap___aeabi_memcpy>
100031c6:	002a      	movs	r2, r5
100031c8:	8833      	ldrh	r3, [r6, #0]
100031ca:	9800      	ldr	r0, [sp, #0]
100031cc:	a908      	add	r1, sp, #32
100031ce:	f000 fb9b 	bl	10003908 <tud_control_xfer>
100031d2:	e6b6      	b.n	10002f42 <tud_task+0x2da>
100031d4:	4b3e      	ldr	r3, [pc, #248]	; (100032d0 <tud_task+0x668>)
100031d6:	2b00      	cmp	r3, #0
100031d8:	d100      	bne.n	100031dc <tud_task+0x574>
100031da:	e5d4      	b.n	10002d86 <tud_task+0x11e>
100031dc:	e000      	b.n	100031e0 <tud_task+0x578>
100031de:	bf00      	nop
100031e0:	1e02      	subs	r2, r0, #0
100031e2:	d100      	bne.n	100031e6 <tud_task+0x57e>
100031e4:	e5cf      	b.n	10002d86 <tud_task+0x11e>
100031e6:	7813      	ldrb	r3, [r2, #0]
100031e8:	9800      	ldr	r0, [sp, #0]
100031ea:	a908      	add	r1, sp, #32
100031ec:	f000 fb8c 	bl	10003908 <tud_control_xfer>
100031f0:	e6a7      	b.n	10002f42 <tud_task+0x2da>
100031f2:	8921      	ldrh	r1, [r4, #8]
100031f4:	f7ff f926 	bl	10002444 <tud_descriptor_string_cb>
100031f8:	1e02      	subs	r2, r0, #0
100031fa:	d1f4      	bne.n	100031e6 <tud_task+0x57e>
100031fc:	e5c3      	b.n	10002d86 <tud_task+0x11e>
100031fe:	f7ff f91d 	bl	1000243c <tud_descriptor_configuration_cb>
10003202:	1e05      	subs	r5, r0, #0
10003204:	d1d8      	bne.n	100031b8 <tud_task+0x550>
10003206:	e5be      	b.n	10002d86 <tud_task+0x11e>
10003208:	f7ff f914 	bl	10002434 <tud_descriptor_device_cb>
1000320c:	2312      	movs	r3, #18
1000320e:	0002      	movs	r2, r0
10003210:	a908      	add	r1, sp, #32
10003212:	9800      	ldr	r0, [sp, #0]
10003214:	f000 fb78 	bl	10003908 <tud_control_xfer>
10003218:	e693      	b.n	10002f42 <tud_task+0x2da>
1000321a:	482a      	ldr	r0, [pc, #168]	; (100032c4 <tud_task+0x65c>)
1000321c:	4e27      	ldr	r6, [pc, #156]	; (100032bc <tud_task+0x654>)
1000321e:	e75d      	b.n	100030dc <tud_task+0x474>
10003220:	88e3      	ldrh	r3, [r4, #6]
10003222:	2b00      	cmp	r3, #0
10003224:	d110      	bne.n	10003248 <tud_task+0x5e0>
10003226:	464b      	mov	r3, r9
10003228:	9800      	ldr	r0, [sp, #0]
1000322a:	2b01      	cmp	r3, #1
1000322c:	d034      	beq.n	10003298 <tud_task+0x630>
1000322e:	f7ff fb1b 	bl	10002868 <dcd_edpt_stall>
10003232:	2102      	movs	r1, #2
10003234:	197b      	adds	r3, r7, r5
10003236:	4443      	add	r3, r8
10003238:	3320      	adds	r3, #32
1000323a:	795a      	ldrb	r2, [r3, #5]
1000323c:	430a      	orrs	r2, r1
1000323e:	2101      	movs	r1, #1
10003240:	715a      	strb	r2, [r3, #5]
10003242:	795a      	ldrb	r2, [r3, #5]
10003244:	430a      	orrs	r2, r1
10003246:	715a      	strb	r2, [r3, #5]
10003248:	2e00      	cmp	r6, #0
1000324a:	d100      	bne.n	1000324e <tud_task+0x5e6>
1000324c:	e51d      	b.n	10002c8a <tud_task+0x22>
1000324e:	68f0      	ldr	r0, [r6, #12]
10003250:	f000 fbc0 	bl	100039d4 <usbd_control_set_complete_callback>
10003254:	68f3      	ldr	r3, [r6, #12]
10003256:	2100      	movs	r1, #0
10003258:	aa08      	add	r2, sp, #32
1000325a:	9800      	ldr	r0, [sp, #0]
1000325c:	4798      	blx	r3
1000325e:	2000      	movs	r0, #0
10003260:	f000 fbb8 	bl	100039d4 <usbd_control_set_complete_callback>
10003264:	2326      	movs	r3, #38	; 0x26
10003266:	5cfb      	ldrb	r3, [r7, r3]
10003268:	07db      	lsls	r3, r3, #31
1000326a:	d500      	bpl.n	1000326e <tud_task+0x606>
1000326c:	e50d      	b.n	10002c8a <tud_task+0x22>
1000326e:	e703      	b.n	10003078 <tud_task+0x410>
10003270:	4a13      	ldr	r2, [pc, #76]	; (100032c0 <tud_task+0x658>)
10003272:	005d      	lsls	r5, r3, #1
10003274:	18eb      	adds	r3, r5, r3
10003276:	6815      	ldr	r5, [r2, #0]
10003278:	00db      	lsls	r3, r3, #3
1000327a:	18ed      	adds	r5, r5, r3
1000327c:	2d00      	cmp	r5, #0
1000327e:	d100      	bne.n	10003282 <tud_task+0x61a>
10003280:	e581      	b.n	10002d86 <tud_task+0x11e>
10003282:	68e8      	ldr	r0, [r5, #12]
10003284:	e712      	b.n	100030ac <tud_task+0x444>
10003286:	ab06      	add	r3, sp, #24
10003288:	1c9a      	adds	r2, r3, #2
1000328a:	7011      	strb	r1, [r2, #0]
1000328c:	2301      	movs	r3, #1
1000328e:	9800      	ldr	r0, [sp, #0]
10003290:	a908      	add	r1, sp, #32
10003292:	f000 fb39 	bl	10003908 <tud_control_xfer>
10003296:	e4f8      	b.n	10002c8a <tud_task+0x22>
10003298:	f7ff fb0a 	bl	100028b0 <dcd_edpt_clear_stall>
1000329c:	2102      	movs	r1, #2
1000329e:	197b      	adds	r3, r7, r5
100032a0:	4443      	add	r3, r8
100032a2:	3320      	adds	r3, #32
100032a4:	795a      	ldrb	r2, [r3, #5]
100032a6:	438a      	bics	r2, r1
100032a8:	4649      	mov	r1, r9
100032aa:	715a      	strb	r2, [r3, #5]
100032ac:	795a      	ldrb	r2, [r3, #5]
100032ae:	438a      	bics	r2, r1
100032b0:	715a      	strb	r2, [r3, #5]
100032b2:	e7c9      	b.n	10003248 <tud_task+0x5e0>
100032b4:	100021dd 	.word	0x100021dd
100032b8:	20001950 	.word	0x20001950
100032bc:	10008218 	.word	0x10008218
100032c0:	20000fd0 	.word	0x20000fd0
100032c4:	10003e05 	.word	0x10003e05
100032c8:	100081d8 	.word	0x100081d8
	...
100032d4:	1e50      	subs	r0, r2, #1
100032d6:	b2c0      	uxtb	r0, r0
100032d8:	f7ff f8b0 	bl	1000243c <tud_descriptor_configuration_cb>
100032dc:	2800      	cmp	r0, #0
100032de:	d100      	bne.n	100032e2 <tud_task+0x67a>
100032e0:	e551      	b.n	10002d86 <tud_task+0x11e>
100032e2:	7843      	ldrb	r3, [r0, #1]
100032e4:	2b02      	cmp	r3, #2
100032e6:	d000      	beq.n	100032ea <tud_task+0x682>
100032e8:	e54d      	b.n	10002d86 <tud_task+0x11e>
100032ea:	2101      	movs	r1, #1
100032ec:	0006      	movs	r6, r0
100032ee:	79c2      	ldrb	r2, [r0, #7]
100032f0:	3609      	adds	r6, #9
100032f2:	1193      	asrs	r3, r2, #6
100032f4:	1152      	asrs	r2, r2, #5
100032f6:	400b      	ands	r3, r1
100032f8:	400a      	ands	r2, r1
100032fa:	0112      	lsls	r2, r2, #4
100032fc:	015b      	lsls	r3, r3, #5
100032fe:	4313      	orrs	r3, r2
10003300:	783a      	ldrb	r2, [r7, #0]
10003302:	312f      	adds	r1, #47	; 0x2f
10003304:	438a      	bics	r2, r1
10003306:	4313      	orrs	r3, r2
10003308:	703b      	strb	r3, [r7, #0]
1000330a:	78c3      	ldrb	r3, [r0, #3]
1000330c:	7882      	ldrb	r2, [r0, #2]
1000330e:	021b      	lsls	r3, r3, #8
10003310:	4313      	orrs	r3, r2
10003312:	18c3      	adds	r3, r0, r3
10003314:	9304      	str	r3, [sp, #16]
10003316:	4b4d      	ldr	r3, [pc, #308]	; (1000344c <tud_task+0x7e4>)
10003318:	46b8      	mov	r8, r7
1000331a:	4699      	mov	r9, r3
1000331c:	0037      	movs	r7, r6
1000331e:	9b04      	ldr	r3, [sp, #16]
10003320:	42bb      	cmp	r3, r7
10003322:	d800      	bhi.n	10003326 <tud_task+0x6be>
10003324:	e088      	b.n	10003438 <tud_task+0x7d0>
10003326:	2300      	movs	r3, #0
10003328:	787a      	ldrb	r2, [r7, #1]
1000332a:	9302      	str	r3, [sp, #8]
1000332c:	2a0b      	cmp	r2, #11
1000332e:	d104      	bne.n	1000333a <tud_task+0x6d2>
10003330:	783b      	ldrb	r3, [r7, #0]
10003332:	9702      	str	r7, [sp, #8]
10003334:	18fb      	adds	r3, r7, r3
10003336:	001f      	movs	r7, r3
10003338:	785a      	ldrb	r2, [r3, #1]
1000333a:	2a04      	cmp	r2, #4
1000333c:	d000      	beq.n	10003340 <tud_task+0x6d8>
1000333e:	e522      	b.n	10002d86 <tud_task+0x11e>
10003340:	9b04      	ldr	r3, [sp, #16]
10003342:	4a43      	ldr	r2, [pc, #268]	; (10003450 <tud_task+0x7e8>)
10003344:	1bdb      	subs	r3, r3, r7
10003346:	b29b      	uxth	r3, r3
10003348:	9301      	str	r3, [sp, #4]
1000334a:	464b      	mov	r3, r9
1000334c:	2500      	movs	r5, #0
1000334e:	781b      	ldrb	r3, [r3, #0]
10003350:	2a00      	cmp	r2, #0
10003352:	d110      	bne.n	10003376 <tud_task+0x70e>
10003354:	e01c      	b.n	10003390 <tud_task+0x728>
10003356:	429d      	cmp	r5, r3
10003358:	d126      	bne.n	100033a8 <tud_task+0x740>
1000335a:	4b3e      	ldr	r3, [pc, #248]	; (10003454 <tud_task+0x7ec>)
1000335c:	0039      	movs	r1, r7
1000335e:	9a01      	ldr	r2, [sp, #4]
10003360:	9800      	ldr	r0, [sp, #0]
10003362:	4798      	blx	r3
10003364:	2800      	cmp	r0, #0
10003366:	d122      	bne.n	100033ae <tud_task+0x746>
10003368:	464b      	mov	r3, r9
1000336a:	3501      	adds	r5, #1
1000336c:	781b      	ldrb	r3, [r3, #0]
1000336e:	b2ed      	uxtb	r5, r5
10003370:	42ab      	cmp	r3, r5
10003372:	d200      	bcs.n	10003376 <tud_task+0x70e>
10003374:	e507      	b.n	10002d86 <tud_task+0x11e>
10003376:	429d      	cmp	r5, r3
10003378:	d2ed      	bcs.n	10003356 <tud_task+0x6ee>
1000337a:	4b37      	ldr	r3, [pc, #220]	; (10003458 <tud_task+0x7f0>)
1000337c:	681b      	ldr	r3, [r3, #0]
1000337e:	9305      	str	r3, [sp, #20]
10003380:	9a05      	ldr	r2, [sp, #20]
10003382:	006b      	lsls	r3, r5, #1
10003384:	4694      	mov	ip, r2
10003386:	195b      	adds	r3, r3, r5
10003388:	00db      	lsls	r3, r3, #3
1000338a:	4463      	add	r3, ip
1000338c:	689b      	ldr	r3, [r3, #8]
1000338e:	e7e5      	b.n	1000335c <tud_task+0x6f4>
10003390:	0039      	movs	r1, r7
10003392:	9a01      	ldr	r2, [sp, #4]
10003394:	9800      	ldr	r0, [sp, #0]
10003396:	f000 fcbf 	bl	10003d18 <cdcd_open>
1000339a:	1e06      	subs	r6, r0, #0
1000339c:	d154      	bne.n	10003448 <tud_task+0x7e0>
1000339e:	464b      	mov	r3, r9
100033a0:	781b      	ldrb	r3, [r3, #0]
100033a2:	2b00      	cmp	r3, #0
100033a4:	d100      	bne.n	100033a8 <tud_task+0x740>
100033a6:	e4ee      	b.n	10002d86 <tud_task+0x11e>
100033a8:	2300      	movs	r3, #0
100033aa:	689b      	ldr	r3, [r3, #8]
100033ac:	deff      	udf	#255	; 0xff
100033ae:	0006      	movs	r6, r0
100033b0:	2e08      	cmp	r6, #8
100033b2:	d800      	bhi.n	100033b6 <tud_task+0x74e>
100033b4:	e4e7      	b.n	10002d86 <tud_task+0x11e>
100033b6:	9b01      	ldr	r3, [sp, #4]
100033b8:	42b3      	cmp	r3, r6
100033ba:	d200      	bcs.n	100033be <tud_task+0x756>
100033bc:	e4e3      	b.n	10002d86 <tud_task+0x11e>
100033be:	4642      	mov	r2, r8
100033c0:	78bb      	ldrb	r3, [r7, #2]
100033c2:	18d2      	adds	r2, r2, r3
100033c4:	78d1      	ldrb	r1, [r2, #3]
100033c6:	29ff      	cmp	r1, #255	; 0xff
100033c8:	d000      	beq.n	100033cc <tud_task+0x764>
100033ca:	e4dc      	b.n	10002d86 <tud_task+0x11e>
100033cc:	70d5      	strb	r5, [r2, #3]
100033ce:	9a02      	ldr	r2, [sp, #8]
100033d0:	2a00      	cmp	r2, #0
100033d2:	d015      	beq.n	10003400 <tud_task+0x798>
100033d4:	7891      	ldrb	r1, [r2, #2]
100033d6:	0010      	movs	r0, r2
100033d8:	4299      	cmp	r1, r3
100033da:	d000      	beq.n	100033de <tud_task+0x776>
100033dc:	e4d3      	b.n	10002d86 <tud_task+0x11e>
100033de:	7912      	ldrb	r2, [r2, #4]
100033e0:	797b      	ldrb	r3, [r7, #5]
100033e2:	429a      	cmp	r2, r3
100033e4:	d000      	beq.n	100033e8 <tud_task+0x780>
100033e6:	e4ce      	b.n	10002d86 <tud_task+0x11e>
100033e8:	78c2      	ldrb	r2, [r0, #3]
100033ea:	2a01      	cmp	r2, #1
100033ec:	d908      	bls.n	10003400 <tud_task+0x798>
100033ee:	3a02      	subs	r2, #2
100033f0:	3104      	adds	r1, #4
100033f2:	4441      	add	r1, r8
100033f4:	b2d2      	uxtb	r2, r2
100033f6:	0008      	movs	r0, r1
100033f8:	3201      	adds	r2, #1
100033fa:	0029      	movs	r1, r5
100033fc:	f7fe fd82 	bl	10001f04 <__wrap_memset>
10003400:	217f      	movs	r1, #127	; 0x7f
10003402:	003a      	movs	r2, r7
10003404:	2300      	movs	r3, #0
10003406:	468c      	mov	ip, r1
10003408:	7851      	ldrb	r1, [r2, #1]
1000340a:	2905      	cmp	r1, #5
1000340c:	d107      	bne.n	1000341e <tud_task+0x7b6>
1000340e:	4661      	mov	r1, ip
10003410:	7890      	ldrb	r0, [r2, #2]
10003412:	4001      	ands	r1, r0
10003414:	0049      	lsls	r1, r1, #1
10003416:	4441      	add	r1, r8
10003418:	3113      	adds	r1, #19
1000341a:	09c0      	lsrs	r0, r0, #7
1000341c:	540d      	strb	r5, [r1, r0]
1000341e:	7811      	ldrb	r1, [r2, #0]
10003420:	185b      	adds	r3, r3, r1
10003422:	b29b      	uxth	r3, r3
10003424:	1852      	adds	r2, r2, r1
10003426:	42b3      	cmp	r3, r6
10003428:	d3ee      	bcc.n	10003408 <tud_task+0x7a0>
1000342a:	464b      	mov	r3, r9
1000342c:	781b      	ldrb	r3, [r3, #0]
1000342e:	19bf      	adds	r7, r7, r6
10003430:	42ab      	cmp	r3, r5
10003432:	d300      	bcc.n	10003436 <tud_task+0x7ce>
10003434:	e773      	b.n	1000331e <tud_task+0x6b6>
10003436:	e4a6      	b.n	10002d86 <tud_task+0x11e>
10003438:	4b08      	ldr	r3, [pc, #32]	; (1000345c <tud_task+0x7f4>)
1000343a:	4647      	mov	r7, r8
1000343c:	2b00      	cmp	r3, #0
1000343e:	d100      	bne.n	10003442 <tud_task+0x7da>
10003440:	e67f      	b.n	10003142 <tud_task+0x4da>
10003442:	e000      	b.n	10003446 <tud_task+0x7de>
10003444:	bf00      	nop
10003446:	e67c      	b.n	10003142 <tud_task+0x4da>
10003448:	4d01      	ldr	r5, [pc, #4]	; (10003450 <tud_task+0x7e8>)
1000344a:	e7b1      	b.n	100033b0 <tud_task+0x748>
1000344c:	20001950 	.word	0x20001950
10003450:	100021dd 	.word	0x100021dd
10003454:	10003d19 	.word	0x10003d19
10003458:	20000fd0 	.word	0x20000fd0
1000345c:	00000000 	.word	0x00000000

10003460 <dcd_event_bus_signal>:
10003460:	b530      	push	{r4, r5, lr}
10003462:	b085      	sub	sp, #20
10003464:	0005      	movs	r5, r0
10003466:	000c      	movs	r4, r1
10003468:	220c      	movs	r2, #12
1000346a:	2100      	movs	r1, #0
1000346c:	a801      	add	r0, sp, #4
1000346e:	f7fe fd49 	bl	10001f04 <__wrap_memset>
10003472:	466b      	mov	r3, sp
10003474:	711d      	strb	r5, [r3, #4]
10003476:	715c      	strb	r4, [r3, #5]
10003478:	2c04      	cmp	r4, #4
1000347a:	d029      	beq.n	100034d0 <dcd_event_bus_signal+0x70>
1000347c:	d805      	bhi.n	1000348a <dcd_event_bus_signal+0x2a>
1000347e:	2c02      	cmp	r4, #2
10003480:	d038      	beq.n	100034f4 <dcd_event_bus_signal+0x94>
10003482:	2c03      	cmp	r4, #3
10003484:	d151      	bne.n	1000352a <dcd_event_bus_signal+0xca>
10003486:	b005      	add	sp, #20
10003488:	bd30      	pop	{r4, r5, pc}
1000348a:	2c05      	cmp	r4, #5
1000348c:	d14d      	bne.n	1000352a <dcd_event_bus_signal+0xca>
1000348e:	4b2c      	ldr	r3, [pc, #176]	; (10003540 <dcd_event_bus_signal+0xe0>)
10003490:	781a      	ldrb	r2, [r3, #0]
10003492:	07d2      	lsls	r2, r2, #31
10003494:	d5f7      	bpl.n	10003486 <dcd_event_bus_signal+0x26>
10003496:	2104      	movs	r1, #4
10003498:	781a      	ldrb	r2, [r3, #0]
1000349a:	438a      	bics	r2, r1
1000349c:	701a      	strb	r2, [r3, #0]
1000349e:	4b29      	ldr	r3, [pc, #164]	; (10003544 <dcd_event_bus_signal+0xe4>)
100034a0:	681c      	ldr	r4, [r3, #0]
100034a2:	69e2      	ldr	r2, [r4, #28]
100034a4:	f3ef 8110 	mrs	r1, PRIMASK
100034a8:	b672      	cpsid	i
100034aa:	6813      	ldr	r3, [r2, #0]
100034ac:	2b00      	cmp	r3, #0
100034ae:	d0fc      	beq.n	100034aa <dcd_event_bus_signal+0x4a>
100034b0:	f3bf 8f5f 	dmb	sy
100034b4:	6221      	str	r1, [r4, #32]
100034b6:	0020      	movs	r0, r4
100034b8:	a901      	add	r1, sp, #4
100034ba:	f000 ff17 	bl	100042ec <tu_fifo_write>
100034be:	69e2      	ldr	r2, [r4, #28]
100034c0:	6a23      	ldr	r3, [r4, #32]
100034c2:	f3bf 8f5f 	dmb	sy
100034c6:	2100      	movs	r1, #0
100034c8:	6011      	str	r1, [r2, #0]
100034ca:	f383 8810 	msr	PRIMASK, r3
100034ce:	e7da      	b.n	10003486 <dcd_event_bus_signal+0x26>
100034d0:	4b1b      	ldr	r3, [pc, #108]	; (10003540 <dcd_event_bus_signal+0xe0>)
100034d2:	781a      	ldrb	r2, [r3, #0]
100034d4:	07d2      	lsls	r2, r2, #31
100034d6:	d5d6      	bpl.n	10003486 <dcd_event_bus_signal+0x26>
100034d8:	2104      	movs	r1, #4
100034da:	781a      	ldrb	r2, [r3, #0]
100034dc:	430a      	orrs	r2, r1
100034de:	701a      	strb	r2, [r3, #0]
100034e0:	4b18      	ldr	r3, [pc, #96]	; (10003544 <dcd_event_bus_signal+0xe4>)
100034e2:	681c      	ldr	r4, [r3, #0]
100034e4:	69e2      	ldr	r2, [r4, #28]
100034e6:	f3ef 8110 	mrs	r1, PRIMASK
100034ea:	b672      	cpsid	i
100034ec:	6813      	ldr	r3, [r2, #0]
100034ee:	2b00      	cmp	r3, #0
100034f0:	d1de      	bne.n	100034b0 <dcd_event_bus_signal+0x50>
100034f2:	e7fb      	b.n	100034ec <dcd_event_bus_signal+0x8c>
100034f4:	4b12      	ldr	r3, [pc, #72]	; (10003540 <dcd_event_bus_signal+0xe0>)
100034f6:	781a      	ldrb	r2, [r3, #0]
100034f8:	07d2      	lsls	r2, r2, #31
100034fa:	d5c4      	bpl.n	10003486 <dcd_event_bus_signal+0x26>
100034fc:	2101      	movs	r1, #1
100034fe:	781a      	ldrb	r2, [r3, #0]
10003500:	438a      	bics	r2, r1
10003502:	701a      	strb	r2, [r3, #0]
10003504:	781a      	ldrb	r2, [r3, #0]
10003506:	3103      	adds	r1, #3
10003508:	43a2      	bics	r2, r4
1000350a:	701a      	strb	r2, [r3, #0]
1000350c:	2200      	movs	r2, #0
1000350e:	705a      	strb	r2, [r3, #1]
10003510:	781a      	ldrb	r2, [r3, #0]
10003512:	438a      	bics	r2, r1
10003514:	701a      	strb	r2, [r3, #0]
10003516:	4b0b      	ldr	r3, [pc, #44]	; (10003544 <dcd_event_bus_signal+0xe4>)
10003518:	681c      	ldr	r4, [r3, #0]
1000351a:	69e2      	ldr	r2, [r4, #28]
1000351c:	f3ef 8110 	mrs	r1, PRIMASK
10003520:	b672      	cpsid	i
10003522:	6813      	ldr	r3, [r2, #0]
10003524:	2b00      	cmp	r3, #0
10003526:	d1c3      	bne.n	100034b0 <dcd_event_bus_signal+0x50>
10003528:	e7fb      	b.n	10003522 <dcd_event_bus_signal+0xc2>
1000352a:	4b06      	ldr	r3, [pc, #24]	; (10003544 <dcd_event_bus_signal+0xe4>)
1000352c:	681c      	ldr	r4, [r3, #0]
1000352e:	69e2      	ldr	r2, [r4, #28]
10003530:	f3ef 8110 	mrs	r1, PRIMASK
10003534:	b672      	cpsid	i
10003536:	6813      	ldr	r3, [r2, #0]
10003538:	2b00      	cmp	r3, #0
1000353a:	d1b9      	bne.n	100034b0 <dcd_event_bus_signal+0x50>
1000353c:	e7fb      	b.n	10003536 <dcd_event_bus_signal+0xd6>
1000353e:	46c0      	nop			; (mov r8, r8)
10003540:	20001308 	.word	0x20001308
10003544:	20001344 	.word	0x20001344

10003548 <dcd_event_bus_reset>:
10003548:	b570      	push	{r4, r5, r6, lr}
1000354a:	b084      	sub	sp, #16
1000354c:	ad01      	add	r5, sp, #4
1000354e:	0006      	movs	r6, r0
10003550:	000c      	movs	r4, r1
10003552:	220c      	movs	r2, #12
10003554:	2100      	movs	r1, #0
10003556:	0028      	movs	r0, r5
10003558:	f7fe fcd4 	bl	10001f04 <__wrap_memset>
1000355c:	2301      	movs	r3, #1
1000355e:	706b      	strb	r3, [r5, #1]
10003560:	4b0d      	ldr	r3, [pc, #52]	; (10003598 <dcd_event_bus_reset+0x50>)
10003562:	712c      	strb	r4, [r5, #4]
10003564:	681c      	ldr	r4, [r3, #0]
10003566:	702e      	strb	r6, [r5, #0]
10003568:	69e2      	ldr	r2, [r4, #28]
1000356a:	f3ef 8310 	mrs	r3, PRIMASK
1000356e:	b672      	cpsid	i
10003570:	6811      	ldr	r1, [r2, #0]
10003572:	2900      	cmp	r1, #0
10003574:	d0fc      	beq.n	10003570 <dcd_event_bus_reset+0x28>
10003576:	f3bf 8f5f 	dmb	sy
1000357a:	6223      	str	r3, [r4, #32]
1000357c:	0029      	movs	r1, r5
1000357e:	0020      	movs	r0, r4
10003580:	f000 feb4 	bl	100042ec <tu_fifo_write>
10003584:	69e2      	ldr	r2, [r4, #28]
10003586:	6a23      	ldr	r3, [r4, #32]
10003588:	f3bf 8f5f 	dmb	sy
1000358c:	2100      	movs	r1, #0
1000358e:	6011      	str	r1, [r2, #0]
10003590:	f383 8810 	msr	PRIMASK, r3
10003594:	b004      	add	sp, #16
10003596:	bd70      	pop	{r4, r5, r6, pc}
10003598:	20001344 	.word	0x20001344

1000359c <dcd_event_setup_received>:
1000359c:	2300      	movs	r3, #0
1000359e:	b530      	push	{r4, r5, lr}
100035a0:	b085      	sub	sp, #20
100035a2:	ad01      	add	r5, sp, #4
100035a4:	806b      	strh	r3, [r5, #2]
100035a6:	7028      	strb	r0, [r5, #0]
100035a8:	3306      	adds	r3, #6
100035aa:	2208      	movs	r2, #8
100035ac:	a802      	add	r0, sp, #8
100035ae:	706b      	strb	r3, [r5, #1]
100035b0:	f7fe fcae 	bl	10001f10 <__wrap___aeabi_memcpy>
100035b4:	4b0c      	ldr	r3, [pc, #48]	; (100035e8 <dcd_event_setup_received+0x4c>)
100035b6:	681c      	ldr	r4, [r3, #0]
100035b8:	69e2      	ldr	r2, [r4, #28]
100035ba:	f3ef 8310 	mrs	r3, PRIMASK
100035be:	b672      	cpsid	i
100035c0:	6811      	ldr	r1, [r2, #0]
100035c2:	2900      	cmp	r1, #0
100035c4:	d0fc      	beq.n	100035c0 <dcd_event_setup_received+0x24>
100035c6:	f3bf 8f5f 	dmb	sy
100035ca:	6223      	str	r3, [r4, #32]
100035cc:	0029      	movs	r1, r5
100035ce:	0020      	movs	r0, r4
100035d0:	f000 fe8c 	bl	100042ec <tu_fifo_write>
100035d4:	69e2      	ldr	r2, [r4, #28]
100035d6:	6a23      	ldr	r3, [r4, #32]
100035d8:	f3bf 8f5f 	dmb	sy
100035dc:	2100      	movs	r1, #0
100035de:	6011      	str	r1, [r2, #0]
100035e0:	f383 8810 	msr	PRIMASK, r3
100035e4:	b005      	add	sp, #20
100035e6:	bd30      	pop	{r4, r5, pc}
100035e8:	20001344 	.word	0x20001344

100035ec <dcd_event_xfer_complete>:
100035ec:	b5f0      	push	{r4, r5, r6, r7, lr}
100035ee:	46c6      	mov	lr, r8
100035f0:	4680      	mov	r8, r0
100035f2:	b500      	push	{lr}
100035f4:	b084      	sub	sp, #16
100035f6:	ac01      	add	r4, sp, #4
100035f8:	000f      	movs	r7, r1
100035fa:	0016      	movs	r6, r2
100035fc:	2100      	movs	r1, #0
100035fe:	2208      	movs	r2, #8
10003600:	0020      	movs	r0, r4
10003602:	001d      	movs	r5, r3
10003604:	f7fe fc7e 	bl	10001f04 <__wrap_memset>
10003608:	4643      	mov	r3, r8
1000360a:	7023      	strb	r3, [r4, #0]
1000360c:	2307      	movs	r3, #7
1000360e:	7063      	strb	r3, [r4, #1]
10003610:	4b0f      	ldr	r3, [pc, #60]	; (10003650 <dcd_event_xfer_complete+0x64>)
10003612:	7165      	strb	r5, [r4, #5]
10003614:	681d      	ldr	r5, [r3, #0]
10003616:	7127      	strb	r7, [r4, #4]
10003618:	60a6      	str	r6, [r4, #8]
1000361a:	69ea      	ldr	r2, [r5, #28]
1000361c:	f3ef 8310 	mrs	r3, PRIMASK
10003620:	b672      	cpsid	i
10003622:	6811      	ldr	r1, [r2, #0]
10003624:	2900      	cmp	r1, #0
10003626:	d0fc      	beq.n	10003622 <dcd_event_xfer_complete+0x36>
10003628:	f3bf 8f5f 	dmb	sy
1000362c:	622b      	str	r3, [r5, #32]
1000362e:	0021      	movs	r1, r4
10003630:	0028      	movs	r0, r5
10003632:	f000 fe5b 	bl	100042ec <tu_fifo_write>
10003636:	69ea      	ldr	r2, [r5, #28]
10003638:	6a2b      	ldr	r3, [r5, #32]
1000363a:	f3bf 8f5f 	dmb	sy
1000363e:	2100      	movs	r1, #0
10003640:	6011      	str	r1, [r2, #0]
10003642:	f383 8810 	msr	PRIMASK, r3
10003646:	b004      	add	sp, #16
10003648:	bc04      	pop	{r2}
1000364a:	4690      	mov	r8, r2
1000364c:	bdf0      	pop	{r4, r5, r6, r7, pc}
1000364e:	46c0      	nop			; (mov r8, r8)
10003650:	20001344 	.word	0x20001344

10003654 <usbd_open_edpt_pair>:
10003654:	b5f8      	push	{r3, r4, r5, r6, r7, lr}
10003656:	4645      	mov	r5, r8
10003658:	4657      	mov	r7, sl
1000365a:	464e      	mov	r6, r9
1000365c:	46de      	mov	lr, fp
1000365e:	4680      	mov	r8, r0
10003660:	b5e0      	push	{r5, r6, r7, lr}
10003662:	000c      	movs	r4, r1
10003664:	0017      	movs	r7, r2
10003666:	001d      	movs	r5, r3
10003668:	2600      	movs	r6, #0
1000366a:	2a00      	cmp	r2, #0
1000366c:	d039      	beq.n	100036e2 <usbd_open_edpt_pair+0x8e>
1000366e:	4b30      	ldr	r3, [pc, #192]	; (10003730 <usbd_open_edpt_pair+0xdc>)
10003670:	469a      	mov	sl, r3
10003672:	469b      	mov	fp, r3
10003674:	4699      	mov	r9, r3
10003676:	7863      	ldrb	r3, [r4, #1]
10003678:	2b05      	cmp	r3, #5
1000367a:	d10a      	bne.n	10003692 <usbd_open_edpt_pair+0x3e>
1000367c:	78e3      	ldrb	r3, [r4, #3]
1000367e:	079b      	lsls	r3, r3, #30
10003680:	0f9b      	lsrs	r3, r3, #30
10003682:	42ab      	cmp	r3, r5
10003684:	d105      	bne.n	10003692 <usbd_open_edpt_pair+0x3e>
10003686:	2d02      	cmp	r5, #2
10003688:	d03a      	beq.n	10003700 <usbd_open_edpt_pair+0xac>
1000368a:	2d03      	cmp	r5, #3
1000368c:	d02d      	beq.n	100036ea <usbd_open_edpt_pair+0x96>
1000368e:	2d01      	cmp	r5, #1
10003690:	d006      	beq.n	100036a0 <usbd_open_edpt_pair+0x4c>
10003692:	2000      	movs	r0, #0
10003694:	bc3c      	pop	{r2, r3, r4, r5}
10003696:	4690      	mov	r8, r2
10003698:	4699      	mov	r9, r3
1000369a:	46a2      	mov	sl, r4
1000369c:	46ab      	mov	fp, r5
1000369e:	bdf8      	pop	{r3, r4, r5, r6, r7, pc}
100036a0:	464b      	mov	r3, r9
100036a2:	789b      	ldrb	r3, [r3, #2]
100036a4:	3b02      	subs	r3, #2
100036a6:	425a      	negs	r2, r3
100036a8:	4153      	adcs	r3, r2
100036aa:	4a22      	ldr	r2, [pc, #136]	; (10003734 <usbd_open_edpt_pair+0xe0>)
100036ac:	4694      	mov	ip, r2
100036ae:	4463      	add	r3, ip
100036b0:	2207      	movs	r2, #7
100036b2:	7960      	ldrb	r0, [r4, #5]
100036b4:	7921      	ldrb	r1, [r4, #4]
100036b6:	4002      	ands	r2, r0
100036b8:	0212      	lsls	r2, r2, #8
100036ba:	430a      	orrs	r2, r1
100036bc:	4293      	cmp	r3, r2
100036be:	dbe8      	blt.n	10003692 <usbd_open_edpt_pair+0x3e>
100036c0:	0021      	movs	r1, r4
100036c2:	4640      	mov	r0, r8
100036c4:	f7ff f824 	bl	10002710 <dcd_edpt_open>
100036c8:	2800      	cmp	r0, #0
100036ca:	d0e2      	beq.n	10003692 <usbd_open_edpt_pair+0x3e>
100036cc:	78a3      	ldrb	r3, [r4, #2]
100036ce:	09da      	lsrs	r2, r3, #7
100036d0:	2a01      	cmp	r2, #1
100036d2:	d008      	beq.n	100036e6 <usbd_open_edpt_pair+0x92>
100036d4:	9a0a      	ldr	r2, [sp, #40]	; 0x28
100036d6:	7013      	strb	r3, [r2, #0]
100036d8:	7823      	ldrb	r3, [r4, #0]
100036da:	3601      	adds	r6, #1
100036dc:	18e4      	adds	r4, r4, r3
100036de:	42be      	cmp	r6, r7
100036e0:	dbc9      	blt.n	10003676 <usbd_open_edpt_pair+0x22>
100036e2:	2001      	movs	r0, #1
100036e4:	e7d6      	b.n	10003694 <usbd_open_edpt_pair+0x40>
100036e6:	9a0b      	ldr	r2, [sp, #44]	; 0x2c
100036e8:	e7f5      	b.n	100036d6 <usbd_open_edpt_pair+0x82>
100036ea:	465b      	mov	r3, fp
100036ec:	789b      	ldrb	r3, [r3, #2]
100036ee:	3b02      	subs	r3, #2
100036f0:	425a      	negs	r2, r3
100036f2:	4153      	adcs	r3, r2
100036f4:	22f0      	movs	r2, #240	; 0xf0
100036f6:	425b      	negs	r3, r3
100036f8:	0092      	lsls	r2, r2, #2
100036fa:	4013      	ands	r3, r2
100036fc:	3340      	adds	r3, #64	; 0x40
100036fe:	e7d7      	b.n	100036b0 <usbd_open_edpt_pair+0x5c>
10003700:	4653      	mov	r3, sl
10003702:	789b      	ldrb	r3, [r3, #2]
10003704:	2b02      	cmp	r3, #2
10003706:	d008      	beq.n	1000371a <usbd_open_edpt_pair+0xc6>
10003708:	2307      	movs	r3, #7
1000370a:	7961      	ldrb	r1, [r4, #5]
1000370c:	7922      	ldrb	r2, [r4, #4]
1000370e:	400b      	ands	r3, r1
10003710:	021b      	lsls	r3, r3, #8
10003712:	4313      	orrs	r3, r2
10003714:	2b40      	cmp	r3, #64	; 0x40
10003716:	d9d3      	bls.n	100036c0 <usbd_open_edpt_pair+0x6c>
10003718:	e7bb      	b.n	10003692 <usbd_open_edpt_pair+0x3e>
1000371a:	7962      	ldrb	r2, [r4, #5]
1000371c:	3305      	adds	r3, #5
1000371e:	4013      	ands	r3, r2
10003720:	2280      	movs	r2, #128	; 0x80
10003722:	7921      	ldrb	r1, [r4, #4]
10003724:	021b      	lsls	r3, r3, #8
10003726:	0092      	lsls	r2, r2, #2
10003728:	430b      	orrs	r3, r1
1000372a:	4293      	cmp	r3, r2
1000372c:	d1b1      	bne.n	10003692 <usbd_open_edpt_pair+0x3e>
1000372e:	e7c7      	b.n	100036c0 <usbd_open_edpt_pair+0x6c>
10003730:	20001308 	.word	0x20001308
10003734:	000003ff 	.word	0x000003ff

10003738 <usbd_edpt_open>:
10003738:	78cb      	ldrb	r3, [r1, #3]
1000373a:	0002      	movs	r2, r0
1000373c:	079b      	lsls	r3, r3, #30
1000373e:	b570      	push	{r4, r5, r6, lr}
10003740:	0f9b      	lsrs	r3, r3, #30
10003742:	2b02      	cmp	r3, #2
10003744:	d005      	beq.n	10003752 <usbd_edpt_open+0x1a>
10003746:	2b03      	cmp	r3, #3
10003748:	d027      	beq.n	1000379a <usbd_edpt_open+0x62>
1000374a:	2000      	movs	r0, #0
1000374c:	2b01      	cmp	r3, #1
1000374e:	d010      	beq.n	10003772 <usbd_edpt_open+0x3a>
10003750:	bd70      	pop	{r4, r5, r6, pc}
10003752:	4b21      	ldr	r3, [pc, #132]	; (100037d8 <usbd_edpt_open+0xa0>)
10003754:	7908      	ldrb	r0, [r1, #4]
10003756:	789b      	ldrb	r3, [r3, #2]
10003758:	794c      	ldrb	r4, [r1, #5]
1000375a:	2b02      	cmp	r3, #2
1000375c:	d031      	beq.n	100037c2 <usbd_edpt_open+0x8a>
1000375e:	2307      	movs	r3, #7
10003760:	4023      	ands	r3, r4
10003762:	021b      	lsls	r3, r3, #8
10003764:	4303      	orrs	r3, r0
10003766:	2b40      	cmp	r3, #64	; 0x40
10003768:	d829      	bhi.n	100037be <usbd_edpt_open+0x86>
1000376a:	0010      	movs	r0, r2
1000376c:	f7fe ffd0 	bl	10002710 <dcd_edpt_open>
10003770:	e7ee      	b.n	10003750 <usbd_edpt_open+0x18>
10003772:	4b19      	ldr	r3, [pc, #100]	; (100037d8 <usbd_edpt_open+0xa0>)
10003774:	794e      	ldrb	r6, [r1, #5]
10003776:	789b      	ldrb	r3, [r3, #2]
10003778:	790d      	ldrb	r5, [r1, #4]
1000377a:	3b02      	subs	r3, #2
1000377c:	425c      	negs	r4, r3
1000377e:	4163      	adcs	r3, r4
10003780:	4c16      	ldr	r4, [pc, #88]	; (100037dc <usbd_edpt_open+0xa4>)
10003782:	46a4      	mov	ip, r4
10003784:	2407      	movs	r4, #7
10003786:	4034      	ands	r4, r6
10003788:	0224      	lsls	r4, r4, #8
1000378a:	4463      	add	r3, ip
1000378c:	432c      	orrs	r4, r5
1000378e:	429c      	cmp	r4, r3
10003790:	dcde      	bgt.n	10003750 <usbd_edpt_open+0x18>
10003792:	0010      	movs	r0, r2
10003794:	f7fe ffbc 	bl	10002710 <dcd_edpt_open>
10003798:	e7da      	b.n	10003750 <usbd_edpt_open+0x18>
1000379a:	4b0f      	ldr	r3, [pc, #60]	; (100037d8 <usbd_edpt_open+0xa0>)
1000379c:	794d      	ldrb	r5, [r1, #5]
1000379e:	789b      	ldrb	r3, [r3, #2]
100037a0:	790c      	ldrb	r4, [r1, #4]
100037a2:	3b02      	subs	r3, #2
100037a4:	4258      	negs	r0, r3
100037a6:	4143      	adcs	r3, r0
100037a8:	20f0      	movs	r0, #240	; 0xf0
100037aa:	425b      	negs	r3, r3
100037ac:	0080      	lsls	r0, r0, #2
100037ae:	4003      	ands	r3, r0
100037b0:	2007      	movs	r0, #7
100037b2:	4028      	ands	r0, r5
100037b4:	0200      	lsls	r0, r0, #8
100037b6:	3340      	adds	r3, #64	; 0x40
100037b8:	4320      	orrs	r0, r4
100037ba:	4298      	cmp	r0, r3
100037bc:	ddd5      	ble.n	1000376a <usbd_edpt_open+0x32>
100037be:	2000      	movs	r0, #0
100037c0:	e7c6      	b.n	10003750 <usbd_edpt_open+0x18>
100037c2:	3305      	adds	r3, #5
100037c4:	4023      	ands	r3, r4
100037c6:	2480      	movs	r4, #128	; 0x80
100037c8:	021b      	lsls	r3, r3, #8
100037ca:	4303      	orrs	r3, r0
100037cc:	00a4      	lsls	r4, r4, #2
100037ce:	2000      	movs	r0, #0
100037d0:	42a3      	cmp	r3, r4
100037d2:	d1bd      	bne.n	10003750 <usbd_edpt_open+0x18>
100037d4:	e7c9      	b.n	1000376a <usbd_edpt_open+0x32>
100037d6:	46c0      	nop			; (mov r8, r8)
100037d8:	20001308 	.word	0x20001308
100037dc:	000003ff 	.word	0x000003ff

100037e0 <usbd_edpt_claim>:
100037e0:	b570      	push	{r4, r5, r6, lr}
100037e2:	247f      	movs	r4, #127	; 0x7f
100037e4:	400c      	ands	r4, r1
100037e6:	0063      	lsls	r3, r4, #1
100037e8:	4c14      	ldr	r4, [pc, #80]	; (1000383c <usbd_edpt_claim+0x5c>)
100037ea:	09c9      	lsrs	r1, r1, #7
100037ec:	18e4      	adds	r4, r4, r3
100037ee:	1864      	adds	r4, r4, r1
100037f0:	3420      	adds	r4, #32
100037f2:	7963      	ldrb	r3, [r4, #5]
100037f4:	07db      	lsls	r3, r3, #31
100037f6:	0fdd      	lsrs	r5, r3, #31
100037f8:	2b00      	cmp	r3, #0
100037fa:	d118      	bne.n	1000382e <usbd_edpt_claim+0x4e>
100037fc:	7963      	ldrb	r3, [r4, #5]
100037fe:	075b      	lsls	r3, r3, #29
10003800:	d501      	bpl.n	10003806 <usbd_edpt_claim+0x26>
10003802:	0028      	movs	r0, r5
10003804:	bd70      	pop	{r4, r5, r6, pc}
10003806:	2101      	movs	r1, #1
10003808:	4e0d      	ldr	r6, [pc, #52]	; (10003840 <usbd_edpt_claim+0x60>)
1000380a:	4249      	negs	r1, r1
1000380c:	6830      	ldr	r0, [r6, #0]
1000380e:	f004 fb53 	bl	10007eb8 <__mutex_enter_timeout_ms_veneer>
10003812:	7963      	ldrb	r3, [r4, #5]
10003814:	07db      	lsls	r3, r3, #31
10003816:	0fdd      	lsrs	r5, r3, #31
10003818:	2b00      	cmp	r3, #0
1000381a:	d10a      	bne.n	10003832 <usbd_edpt_claim+0x52>
1000381c:	7963      	ldrb	r3, [r4, #5]
1000381e:	075b      	lsls	r3, r3, #29
10003820:	d408      	bmi.n	10003834 <usbd_edpt_claim+0x54>
10003822:	2204      	movs	r2, #4
10003824:	7963      	ldrb	r3, [r4, #5]
10003826:	2501      	movs	r5, #1
10003828:	4313      	orrs	r3, r2
1000382a:	7163      	strb	r3, [r4, #5]
1000382c:	e002      	b.n	10003834 <usbd_edpt_claim+0x54>
1000382e:	2500      	movs	r5, #0
10003830:	e7e7      	b.n	10003802 <usbd_edpt_claim+0x22>
10003832:	2500      	movs	r5, #0
10003834:	6830      	ldr	r0, [r6, #0]
10003836:	f004 fb27 	bl	10007e88 <__mutex_exit_veneer>
1000383a:	e7e2      	b.n	10003802 <usbd_edpt_claim+0x22>
1000383c:	20001308 	.word	0x20001308
10003840:	20001340 	.word	0x20001340

10003844 <usbd_edpt_release>:
10003844:	b570      	push	{r4, r5, r6, lr}
10003846:	000c      	movs	r4, r1
10003848:	2101      	movs	r1, #1
1000384a:	4d0f      	ldr	r5, [pc, #60]	; (10003888 <usbd_edpt_release+0x44>)
1000384c:	4249      	negs	r1, r1
1000384e:	6828      	ldr	r0, [r5, #0]
10003850:	f004 fb32 	bl	10007eb8 <__mutex_enter_timeout_ms_veneer>
10003854:	217f      	movs	r1, #127	; 0x7f
10003856:	4021      	ands	r1, r4
10003858:	004b      	lsls	r3, r1, #1
1000385a:	490c      	ldr	r1, [pc, #48]	; (1000388c <usbd_edpt_release+0x48>)
1000385c:	09e4      	lsrs	r4, r4, #7
1000385e:	18c9      	adds	r1, r1, r3
10003860:	1909      	adds	r1, r1, r4
10003862:	3120      	adds	r1, #32
10003864:	794b      	ldrb	r3, [r1, #5]
10003866:	2400      	movs	r4, #0
10003868:	07db      	lsls	r3, r3, #31
1000386a:	d408      	bmi.n	1000387e <usbd_edpt_release+0x3a>
1000386c:	794b      	ldrb	r3, [r1, #5]
1000386e:	075b      	lsls	r3, r3, #29
10003870:	0fdc      	lsrs	r4, r3, #31
10003872:	2b00      	cmp	r3, #0
10003874:	da03      	bge.n	1000387e <usbd_edpt_release+0x3a>
10003876:	2204      	movs	r2, #4
10003878:	794b      	ldrb	r3, [r1, #5]
1000387a:	4393      	bics	r3, r2
1000387c:	714b      	strb	r3, [r1, #5]
1000387e:	6828      	ldr	r0, [r5, #0]
10003880:	f004 fb02 	bl	10007e88 <__mutex_exit_veneer>
10003884:	0020      	movs	r0, r4
10003886:	bd70      	pop	{r4, r5, r6, pc}
10003888:	20001340 	.word	0x20001340
1000388c:	20001308 	.word	0x20001308

10003890 <usbd_edpt_xfer>:
10003890:	b570      	push	{r4, r5, r6, lr}
10003892:	247f      	movs	r4, #127	; 0x7f
10003894:	400c      	ands	r4, r1
10003896:	0065      	lsls	r5, r4, #1
10003898:	4c0e      	ldr	r4, [pc, #56]	; (100038d4 <usbd_edpt_xfer+0x44>)
1000389a:	0006      	movs	r6, r0
1000389c:	1964      	adds	r4, r4, r5
1000389e:	09c8      	lsrs	r0, r1, #7
100038a0:	1824      	adds	r4, r4, r0
100038a2:	3420      	adds	r4, #32
100038a4:	7965      	ldrb	r5, [r4, #5]
100038a6:	2000      	movs	r0, #0
100038a8:	07ed      	lsls	r5, r5, #31
100038aa:	d500      	bpl.n	100038ae <usbd_edpt_xfer+0x1e>
100038ac:	bd70      	pop	{r4, r5, r6, pc}
100038ae:	2501      	movs	r5, #1
100038b0:	7960      	ldrb	r0, [r4, #5]
100038b2:	4328      	orrs	r0, r5
100038b4:	7160      	strb	r0, [r4, #5]
100038b6:	0030      	movs	r0, r6
100038b8:	f7fe ffc2 	bl	10002840 <dcd_edpt_xfer>
100038bc:	2800      	cmp	r0, #0
100038be:	d1f5      	bne.n	100038ac <usbd_edpt_xfer+0x1c>
100038c0:	2201      	movs	r2, #1
100038c2:	7963      	ldrb	r3, [r4, #5]
100038c4:	4393      	bics	r3, r2
100038c6:	7163      	strb	r3, [r4, #5]
100038c8:	7963      	ldrb	r3, [r4, #5]
100038ca:	3203      	adds	r2, #3
100038cc:	4393      	bics	r3, r2
100038ce:	7163      	strb	r3, [r4, #5]
100038d0:	e7ec      	b.n	100038ac <usbd_edpt_xfer+0x1c>
100038d2:	46c0      	nop			; (mov r8, r8)
100038d4:	20001308 	.word	0x20001308

100038d8 <tud_control_status>:
100038d8:	b570      	push	{r4, r5, r6, lr}
100038da:	4e0a      	ldr	r6, [pc, #40]	; (10003904 <tud_control_status+0x2c>)
100038dc:	0005      	movs	r5, r0
100038de:	2208      	movs	r2, #8
100038e0:	0030      	movs	r0, r6
100038e2:	000c      	movs	r4, r1
100038e4:	f7fe fb14 	bl	10001f10 <__wrap___aeabi_memcpy>
100038e8:	2100      	movs	r1, #0
100038ea:	5661      	ldrsb	r1, [r4, r1]
100038ec:	2300      	movs	r3, #0
100038ee:	43c9      	mvns	r1, r1
100038f0:	0fc9      	lsrs	r1, r1, #31
100038f2:	0028      	movs	r0, r5
100038f4:	60f3      	str	r3, [r6, #12]
100038f6:	2200      	movs	r2, #0
100038f8:	01c9      	lsls	r1, r1, #7
100038fa:	60b3      	str	r3, [r6, #8]
100038fc:	f7ff ffc8 	bl	10003890 <usbd_edpt_xfer>
10003900:	bd70      	pop	{r4, r5, r6, pc}
10003902:	46c0      	nop			; (mov r8, r8)
10003904:	200012ac 	.word	0x200012ac

10003908 <tud_control_xfer>:
10003908:	b5f8      	push	{r3, r4, r5, r6, r7, lr}
1000390a:	46ce      	mov	lr, r9
1000390c:	4647      	mov	r7, r8
1000390e:	4690      	mov	r8, r2
10003910:	4e29      	ldr	r6, [pc, #164]	; (100039b8 <tud_control_xfer+0xb0>)
10003912:	b580      	push	{r7, lr}
10003914:	4681      	mov	r9, r0
10003916:	2208      	movs	r2, #8
10003918:	0030      	movs	r0, r6
1000391a:	000d      	movs	r5, r1
1000391c:	001f      	movs	r7, r3
1000391e:	f7fe faf7 	bl	10001f10 <__wrap___aeabi_memcpy>
10003922:	4643      	mov	r3, r8
10003924:	60b3      	str	r3, [r6, #8]
10003926:	2300      	movs	r3, #0
10003928:	81f3      	strh	r3, [r6, #14]
1000392a:	79ec      	ldrb	r4, [r5, #7]
1000392c:	79ab      	ldrb	r3, [r5, #6]
1000392e:	0224      	lsls	r4, r4, #8
10003930:	431c      	orrs	r4, r3
10003932:	1c23      	adds	r3, r4, #0
10003934:	42bc      	cmp	r4, r7
10003936:	d900      	bls.n	1000393a <tud_control_xfer+0x32>
10003938:	1c3b      	adds	r3, r7, #0
1000393a:	b29f      	uxth	r7, r3
1000393c:	81b3      	strh	r3, [r6, #12]
1000393e:	2c00      	cmp	r4, #0
10003940:	d012      	beq.n	10003968 <tud_control_xfer+0x60>
10003942:	2f00      	cmp	r7, #0
10003944:	d01e      	beq.n	10003984 <tud_control_xfer+0x7c>
10003946:	4643      	mov	r3, r8
10003948:	2b00      	cmp	r3, #0
1000394a:	d032      	beq.n	100039b2 <tud_control_xfer+0xaa>
1000394c:	1c3b      	adds	r3, r7, #0
1000394e:	2f40      	cmp	r7, #64	; 0x40
10003950:	d81e      	bhi.n	10003990 <tud_control_xfer+0x88>
10003952:	b29f      	uxth	r7, r3
10003954:	7833      	ldrb	r3, [r6, #0]
10003956:	2b7f      	cmp	r3, #127	; 0x7f
10003958:	d81f      	bhi.n	1000399a <tud_control_xfer+0x92>
1000395a:	2100      	movs	r1, #0
1000395c:	4a17      	ldr	r2, [pc, #92]	; (100039bc <tud_control_xfer+0xb4>)
1000395e:	003b      	movs	r3, r7
10003960:	4648      	mov	r0, r9
10003962:	f7ff ff95 	bl	10003890 <usbd_edpt_xfer>
10003966:	e009      	b.n	1000397c <tud_control_xfer+0x74>
10003968:	2100      	movs	r1, #0
1000396a:	5669      	ldrsb	r1, [r5, r1]
1000396c:	2300      	movs	r3, #0
1000396e:	43c9      	mvns	r1, r1
10003970:	0fc9      	lsrs	r1, r1, #31
10003972:	2200      	movs	r2, #0
10003974:	4648      	mov	r0, r9
10003976:	01c9      	lsls	r1, r1, #7
10003978:	f7ff ff8a 	bl	10003890 <usbd_edpt_xfer>
1000397c:	bc0c      	pop	{r2, r3}
1000397e:	4690      	mov	r8, r2
10003980:	4699      	mov	r9, r3
10003982:	bdf8      	pop	{r3, r4, r5, r6, r7, pc}
10003984:	7833      	ldrb	r3, [r6, #0]
10003986:	2b7f      	cmp	r3, #127	; 0x7f
10003988:	d910      	bls.n	100039ac <tud_control_xfer+0xa4>
1000398a:	2180      	movs	r1, #128	; 0x80
1000398c:	2200      	movs	r2, #0
1000398e:	e7e6      	b.n	1000395e <tud_control_xfer+0x56>
10003990:	2340      	movs	r3, #64	; 0x40
10003992:	b29f      	uxth	r7, r3
10003994:	7833      	ldrb	r3, [r6, #0]
10003996:	2b7f      	cmp	r3, #127	; 0x7f
10003998:	d9df      	bls.n	1000395a <tud_control_xfer+0x52>
1000399a:	4c08      	ldr	r4, [pc, #32]	; (100039bc <tud_control_xfer+0xb4>)
1000399c:	003a      	movs	r2, r7
1000399e:	4641      	mov	r1, r8
100039a0:	0020      	movs	r0, r4
100039a2:	f7fe fab5 	bl	10001f10 <__wrap___aeabi_memcpy>
100039a6:	2180      	movs	r1, #128	; 0x80
100039a8:	0022      	movs	r2, r4
100039aa:	e7d8      	b.n	1000395e <tud_control_xfer+0x56>
100039ac:	2100      	movs	r1, #0
100039ae:	2200      	movs	r2, #0
100039b0:	e7d5      	b.n	1000395e <tud_control_xfer+0x56>
100039b2:	2000      	movs	r0, #0
100039b4:	e7e2      	b.n	1000397c <tud_control_xfer+0x74>
100039b6:	46c0      	nop			; (mov r8, r8)
100039b8:	200012ac 	.word	0x200012ac
100039bc:	200012c8 	.word	0x200012c8

100039c0 <usbd_control_reset>:
100039c0:	b510      	push	{r4, lr}
100039c2:	2214      	movs	r2, #20
100039c4:	2100      	movs	r1, #0
100039c6:	4802      	ldr	r0, [pc, #8]	; (100039d0 <usbd_control_reset+0x10>)
100039c8:	f7fe fa9c 	bl	10001f04 <__wrap_memset>
100039cc:	bd10      	pop	{r4, pc}
100039ce:	46c0      	nop			; (mov r8, r8)
100039d0:	200012ac 	.word	0x200012ac

100039d4 <usbd_control_set_complete_callback>:
100039d4:	4b01      	ldr	r3, [pc, #4]	; (100039dc <usbd_control_set_complete_callback+0x8>)
100039d6:	6118      	str	r0, [r3, #16]
100039d8:	4770      	bx	lr
100039da:	46c0      	nop			; (mov r8, r8)
100039dc:	200012ac 	.word	0x200012ac

100039e0 <usbd_control_set_request>:
100039e0:	b510      	push	{r4, lr}
100039e2:	4c05      	ldr	r4, [pc, #20]	; (100039f8 <usbd_control_set_request+0x18>)
100039e4:	0001      	movs	r1, r0
100039e6:	2208      	movs	r2, #8
100039e8:	0020      	movs	r0, r4
100039ea:	f7fe fa91 	bl	10001f10 <__wrap___aeabi_memcpy>
100039ee:	2300      	movs	r3, #0
100039f0:	60a3      	str	r3, [r4, #8]
100039f2:	60e3      	str	r3, [r4, #12]
100039f4:	bd10      	pop	{r4, pc}
100039f6:	46c0      	nop			; (mov r8, r8)
100039f8:	200012ac 	.word	0x200012ac

100039fc <usbd_control_xfer_cb>:
100039fc:	b5f8      	push	{r3, r4, r5, r6, r7, lr}
100039fe:	4c3a      	ldr	r4, [pc, #232]	; (10003ae8 <usbd_control_xfer_cb+0xec>)
10003a00:	001d      	movs	r5, r3
10003a02:	7823      	ldrb	r3, [r4, #0]
10003a04:	0006      	movs	r6, r0
10003a06:	09da      	lsrs	r2, r3, #7
10003a08:	09c9      	lsrs	r1, r1, #7
10003a0a:	428a      	cmp	r2, r1
10003a0c:	d013      	beq.n	10003a36 <usbd_control_xfer_cb+0x3a>
10003a0e:	2000      	movs	r0, #0
10003a10:	2d00      	cmp	r5, #0
10003a12:	d000      	beq.n	10003a16 <usbd_control_xfer_cb+0x1a>
10003a14:	bdf8      	pop	{r3, r4, r5, r6, r7, pc}
10003a16:	4b35      	ldr	r3, [pc, #212]	; (10003aec <usbd_control_xfer_cb+0xf0>)
10003a18:	2b00      	cmp	r3, #0
10003a1a:	d003      	beq.n	10003a24 <usbd_control_xfer_cb+0x28>
10003a1c:	0021      	movs	r1, r4
10003a1e:	0030      	movs	r0, r6
10003a20:	f7fe fe5e 	bl	100026e0 <dcd_edpt0_status_complete>
10003a24:	6923      	ldr	r3, [r4, #16]
10003a26:	2b00      	cmp	r3, #0
10003a28:	d043      	beq.n	10003ab2 <usbd_control_xfer_cb+0xb6>
10003a2a:	0022      	movs	r2, r4
10003a2c:	2102      	movs	r1, #2
10003a2e:	0030      	movs	r0, r6
10003a30:	4798      	blx	r3
10003a32:	2001      	movs	r0, #1
10003a34:	e7ee      	b.n	10003a14 <usbd_control_xfer_cb+0x18>
10003a36:	2b7f      	cmp	r3, #127	; 0x7f
10003a38:	d806      	bhi.n	10003a48 <usbd_control_xfer_cb+0x4c>
10003a3a:	68a0      	ldr	r0, [r4, #8]
10003a3c:	2800      	cmp	r0, #0
10003a3e:	d036      	beq.n	10003aae <usbd_control_xfer_cb+0xb2>
10003a40:	002a      	movs	r2, r5
10003a42:	492b      	ldr	r1, [pc, #172]	; (10003af0 <usbd_control_xfer_cb+0xf4>)
10003a44:	f7fe fa64 	bl	10001f10 <__wrap___aeabi_memcpy>
10003a48:	68a3      	ldr	r3, [r4, #8]
10003a4a:	89e2      	ldrh	r2, [r4, #14]
10003a4c:	1959      	adds	r1, r3, r5
10003a4e:	1952      	adds	r2, r2, r5
10003a50:	88e3      	ldrh	r3, [r4, #6]
10003a52:	b292      	uxth	r2, r2
10003a54:	81e2      	strh	r2, [r4, #14]
10003a56:	60a1      	str	r1, [r4, #8]
10003a58:	4293      	cmp	r3, r2
10003a5a:	d014      	beq.n	10003a86 <usbd_control_xfer_cb+0x8a>
10003a5c:	2d3f      	cmp	r5, #63	; 0x3f
10003a5e:	d912      	bls.n	10003a86 <usbd_control_xfer_cb+0x8a>
10003a60:	89a5      	ldrh	r5, [r4, #12]
10003a62:	1aa8      	subs	r0, r5, r2
10003a64:	1c07      	adds	r7, r0, #0
10003a66:	b280      	uxth	r0, r0
10003a68:	2840      	cmp	r0, #64	; 0x40
10003a6a:	d82e      	bhi.n	10003aca <usbd_control_xfer_cb+0xce>
10003a6c:	7823      	ldrb	r3, [r4, #0]
10003a6e:	b2bf      	uxth	r7, r7
10003a70:	2b7f      	cmp	r3, #127	; 0x7f
10003a72:	d82c      	bhi.n	10003ace <usbd_control_xfer_cb+0xd2>
10003a74:	2100      	movs	r1, #0
10003a76:	42aa      	cmp	r2, r5
10003a78:	d034      	beq.n	10003ae4 <usbd_control_xfer_cb+0xe8>
10003a7a:	4a1d      	ldr	r2, [pc, #116]	; (10003af0 <usbd_control_xfer_cb+0xf4>)
10003a7c:	003b      	movs	r3, r7
10003a7e:	0030      	movs	r0, r6
10003a80:	f7ff ff06 	bl	10003890 <usbd_edpt_xfer>
10003a84:	e7c6      	b.n	10003a14 <usbd_control_xfer_cb+0x18>
10003a86:	6923      	ldr	r3, [r4, #16]
10003a88:	2b00      	cmp	r3, #0
10003a8a:	d005      	beq.n	10003a98 <usbd_control_xfer_cb+0x9c>
10003a8c:	0022      	movs	r2, r4
10003a8e:	2101      	movs	r1, #1
10003a90:	0030      	movs	r0, r6
10003a92:	4798      	blx	r3
10003a94:	2800      	cmp	r0, #0
10003a96:	d00e      	beq.n	10003ab6 <usbd_control_xfer_cb+0xba>
10003a98:	2100      	movs	r1, #0
10003a9a:	5661      	ldrsb	r1, [r4, r1]
10003a9c:	2300      	movs	r3, #0
10003a9e:	43c9      	mvns	r1, r1
10003aa0:	0fc9      	lsrs	r1, r1, #31
10003aa2:	2200      	movs	r2, #0
10003aa4:	0030      	movs	r0, r6
10003aa6:	01c9      	lsls	r1, r1, #7
10003aa8:	f7ff fef2 	bl	10003890 <usbd_edpt_xfer>
10003aac:	e7b2      	b.n	10003a14 <usbd_control_xfer_cb+0x18>
10003aae:	2000      	movs	r0, #0
10003ab0:	e7b0      	b.n	10003a14 <usbd_control_xfer_cb+0x18>
10003ab2:	2001      	movs	r0, #1
10003ab4:	e7ae      	b.n	10003a14 <usbd_control_xfer_cb+0x18>
10003ab6:	2100      	movs	r1, #0
10003ab8:	0030      	movs	r0, r6
10003aba:	f7fe fed5 	bl	10002868 <dcd_edpt_stall>
10003abe:	0030      	movs	r0, r6
10003ac0:	2180      	movs	r1, #128	; 0x80
10003ac2:	f7fe fed1 	bl	10002868 <dcd_edpt_stall>
10003ac6:	2001      	movs	r0, #1
10003ac8:	e7a4      	b.n	10003a14 <usbd_control_xfer_cb+0x18>
10003aca:	2740      	movs	r7, #64	; 0x40
10003acc:	e7ce      	b.n	10003a6c <usbd_control_xfer_cb+0x70>
10003ace:	42aa      	cmp	r2, r5
10003ad0:	d007      	beq.n	10003ae2 <usbd_control_xfer_cb+0xe6>
10003ad2:	4c07      	ldr	r4, [pc, #28]	; (10003af0 <usbd_control_xfer_cb+0xf4>)
10003ad4:	003a      	movs	r2, r7
10003ad6:	0020      	movs	r0, r4
10003ad8:	f7fe fa1a 	bl	10001f10 <__wrap___aeabi_memcpy>
10003adc:	2180      	movs	r1, #128	; 0x80
10003ade:	0022      	movs	r2, r4
10003ae0:	e7cc      	b.n	10003a7c <usbd_control_xfer_cb+0x80>
10003ae2:	2180      	movs	r1, #128	; 0x80
10003ae4:	2200      	movs	r2, #0
10003ae6:	e7c9      	b.n	10003a7c <usbd_control_xfer_cb+0x80>
10003ae8:	200012ac 	.word	0x200012ac
10003aec:	100026e1 	.word	0x100026e1
10003af0:	200012c8 	.word	0x200012c8

10003af4 <tud_cdc_n_connected>:
10003af4:	b510      	push	{r4, lr}
10003af6:	0004      	movs	r4, r0
10003af8:	f7ff f834 	bl	10002b64 <tud_mounted>
10003afc:	2800      	cmp	r0, #0
10003afe:	d101      	bne.n	10003b04 <tud_cdc_n_connected+0x10>
10003b00:	2000      	movs	r0, #0
10003b02:	bd10      	pop	{r4, pc}
10003b04:	f7ff f836 	bl	10002b74 <tud_suspended>
10003b08:	2800      	cmp	r0, #0
10003b0a:	d1f9      	bne.n	10003b00 <tud_cdc_n_connected+0xc>
10003b0c:	20b6      	movs	r0, #182	; 0xb6
10003b0e:	0080      	lsls	r0, r0, #2
10003b10:	4344      	muls	r4, r0
10003b12:	4803      	ldr	r0, [pc, #12]	; (10003b20 <tud_cdc_n_connected+0x2c>)
10003b14:	1900      	adds	r0, r0, r4
10003b16:	7903      	ldrb	r3, [r0, #4]
10003b18:	2001      	movs	r0, #1
10003b1a:	4018      	ands	r0, r3
10003b1c:	e7f1      	b.n	10003b02 <tud_cdc_n_connected+0xe>
10003b1e:	46c0      	nop			; (mov r8, r8)
10003b20:	20000fd4 	.word	0x20000fd4

10003b24 <tud_cdc_n_available>:
10003b24:	23b6      	movs	r3, #182	; 0xb6
10003b26:	009b      	lsls	r3, r3, #2
10003b28:	4358      	muls	r0, r3
10003b2a:	b510      	push	{r4, lr}
10003b2c:	4b02      	ldr	r3, [pc, #8]	; (10003b38 <tud_cdc_n_available+0x14>)
10003b2e:	3010      	adds	r0, #16
10003b30:	18c0      	adds	r0, r0, r3
10003b32:	f000 fae9 	bl	10004108 <tu_fifo_count>
10003b36:	bd10      	pop	{r4, pc}
10003b38:	20000fd4 	.word	0x20000fd4

10003b3c <tud_cdc_n_read>:
10003b3c:	b5f0      	push	{r4, r5, r6, r7, lr}
10003b3e:	25b6      	movs	r5, #182	; 0xb6
10003b40:	00ad      	lsls	r5, r5, #2
10003b42:	4345      	muls	r5, r0
10003b44:	002c      	movs	r4, r5
10003b46:	46c6      	mov	lr, r8
10003b48:	4f17      	ldr	r7, [pc, #92]	; (10003ba8 <tud_cdc_n_read+0x6c>)
10003b4a:	3410      	adds	r4, #16
10003b4c:	19e4      	adds	r4, r4, r7
10003b4e:	b500      	push	{lr}
10003b50:	0020      	movs	r0, r4
10003b52:	b292      	uxth	r2, r2
10003b54:	f000 fb4c 	bl	100041f0 <tu_fifo_read_n>
10003b58:	0006      	movs	r6, r0
10003b5a:	0020      	movs	r0, r4
10003b5c:	f000 faec 	bl	10004138 <tu_fifo_remaining>
10003b60:	283f      	cmp	r0, #63	; 0x3f
10003b62:	d803      	bhi.n	10003b6c <tud_cdc_n_read+0x30>
10003b64:	0030      	movs	r0, r6
10003b66:	bc04      	pop	{r2}
10003b68:	4690      	mov	r8, r2
10003b6a:	bdf0      	pop	{r4, r5, r6, r7, pc}
10003b6c:	197b      	adds	r3, r7, r5
10003b6e:	2000      	movs	r0, #0
10003b70:	78d9      	ldrb	r1, [r3, #3]
10003b72:	4698      	mov	r8, r3
10003b74:	f7ff fe34 	bl	100037e0 <usbd_edpt_claim>
10003b78:	2800      	cmp	r0, #0
10003b7a:	d0f3      	beq.n	10003b64 <tud_cdc_n_read+0x28>
10003b7c:	0020      	movs	r0, r4
10003b7e:	f000 fadb 	bl	10004138 <tu_fifo_remaining>
10003b82:	283f      	cmp	r0, #63	; 0x3f
10003b84:	d90a      	bls.n	10003b9c <tud_cdc_n_read+0x60>
10003b86:	2396      	movs	r3, #150	; 0x96
10003b88:	009b      	lsls	r3, r3, #2
10003b8a:	18ea      	adds	r2, r5, r3
10003b8c:	4643      	mov	r3, r8
10003b8e:	19d2      	adds	r2, r2, r7
10003b90:	78d9      	ldrb	r1, [r3, #3]
10003b92:	2000      	movs	r0, #0
10003b94:	2340      	movs	r3, #64	; 0x40
10003b96:	f7ff fe7b 	bl	10003890 <usbd_edpt_xfer>
10003b9a:	e7e3      	b.n	10003b64 <tud_cdc_n_read+0x28>
10003b9c:	4643      	mov	r3, r8
10003b9e:	2000      	movs	r0, #0
10003ba0:	78d9      	ldrb	r1, [r3, #3]
10003ba2:	f7ff fe4f 	bl	10003844 <usbd_edpt_release>
10003ba6:	e7dd      	b.n	10003b64 <tud_cdc_n_read+0x28>
10003ba8:	20000fd4 	.word	0x20000fd4

10003bac <tud_cdc_n_write_flush>:
10003bac:	b5f8      	push	{r3, r4, r5, r6, r7, lr}
10003bae:	0004      	movs	r4, r0
10003bb0:	f7fe ffd8 	bl	10002b64 <tud_mounted>
10003bb4:	2800      	cmp	r0, #0
10003bb6:	d101      	bne.n	10003bbc <tud_cdc_n_write_flush+0x10>
10003bb8:	2000      	movs	r0, #0
10003bba:	bdf8      	pop	{r3, r4, r5, r6, r7, pc}
10003bbc:	f7fe ffda 	bl	10002b74 <tud_suspended>
10003bc0:	2800      	cmp	r0, #0
10003bc2:	d1f9      	bne.n	10003bb8 <tud_cdc_n_write_flush+0xc>
10003bc4:	20b6      	movs	r0, #182	; 0xb6
10003bc6:	0080      	lsls	r0, r0, #2
10003bc8:	4344      	muls	r4, r0
10003bca:	0025      	movs	r5, r4
10003bcc:	4e14      	ldr	r6, [pc, #80]	; (10003c20 <tud_cdc_n_write_flush+0x74>)
10003bce:	352c      	adds	r5, #44	; 0x2c
10003bd0:	19ad      	adds	r5, r5, r6
10003bd2:	0028      	movs	r0, r5
10003bd4:	f000 fa98 	bl	10004108 <tu_fifo_count>
10003bd8:	2800      	cmp	r0, #0
10003bda:	d0ed      	beq.n	10003bb8 <tud_cdc_n_write_flush+0xc>
10003bdc:	1937      	adds	r7, r6, r4
10003bde:	2000      	movs	r0, #0
10003be0:	78b9      	ldrb	r1, [r7, #2]
10003be2:	f7ff fdfd 	bl	100037e0 <usbd_edpt_claim>
10003be6:	2800      	cmp	r0, #0
10003be8:	d0e6      	beq.n	10003bb8 <tud_cdc_n_write_flush+0xc>
10003bea:	23a6      	movs	r3, #166	; 0xa6
10003bec:	009b      	lsls	r3, r3, #2
10003bee:	469c      	mov	ip, r3
10003bf0:	4464      	add	r4, ip
10003bf2:	19a4      	adds	r4, r4, r6
10003bf4:	0021      	movs	r1, r4
10003bf6:	0028      	movs	r0, r5
10003bf8:	2240      	movs	r2, #64	; 0x40
10003bfa:	f000 faf9 	bl	100041f0 <tu_fifo_read_n>
10003bfe:	78b9      	ldrb	r1, [r7, #2]
10003c00:	1e05      	subs	r5, r0, #0
10003c02:	d008      	beq.n	10003c16 <tud_cdc_n_write_flush+0x6a>
10003c04:	0003      	movs	r3, r0
10003c06:	0022      	movs	r2, r4
10003c08:	2000      	movs	r0, #0
10003c0a:	f7ff fe41 	bl	10003890 <usbd_edpt_xfer>
10003c0e:	2800      	cmp	r0, #0
10003c10:	d0d2      	beq.n	10003bb8 <tud_cdc_n_write_flush+0xc>
10003c12:	0028      	movs	r0, r5
10003c14:	e7d1      	b.n	10003bba <tud_cdc_n_write_flush+0xe>
10003c16:	2000      	movs	r0, #0
10003c18:	f7ff fe14 	bl	10003844 <usbd_edpt_release>
10003c1c:	e7cc      	b.n	10003bb8 <tud_cdc_n_write_flush+0xc>
10003c1e:	46c0      	nop			; (mov r8, r8)
10003c20:	20000fd4 	.word	0x20000fd4

10003c24 <tud_cdc_n_write>:
10003c24:	b570      	push	{r4, r5, r6, lr}
10003c26:	24b6      	movs	r4, #182	; 0xb6
10003c28:	00a4      	lsls	r4, r4, #2
10003c2a:	4344      	muls	r4, r0
10003c2c:	4b09      	ldr	r3, [pc, #36]	; (10003c54 <tud_cdc_n_write+0x30>)
10003c2e:	342c      	adds	r4, #44	; 0x2c
10003c30:	18e4      	adds	r4, r4, r3
10003c32:	0005      	movs	r5, r0
10003c34:	b292      	uxth	r2, r2
10003c36:	0020      	movs	r0, r4
10003c38:	f000 fb94 	bl	10004364 <tu_fifo_write_n>
10003c3c:	0006      	movs	r6, r0
10003c3e:	0020      	movs	r0, r4
10003c40:	f000 fa62 	bl	10004108 <tu_fifo_count>
10003c44:	283f      	cmp	r0, #63	; 0x3f
10003c46:	d801      	bhi.n	10003c4c <tud_cdc_n_write+0x28>
10003c48:	0030      	movs	r0, r6
10003c4a:	bd70      	pop	{r4, r5, r6, pc}
10003c4c:	0028      	movs	r0, r5
10003c4e:	f7ff ffad 	bl	10003bac <tud_cdc_n_write_flush>
10003c52:	e7f9      	b.n	10003c48 <tud_cdc_n_write+0x24>
10003c54:	20000fd4 	.word	0x20000fd4

10003c58 <tud_cdc_n_write_available>:
10003c58:	23b6      	movs	r3, #182	; 0xb6
10003c5a:	009b      	lsls	r3, r3, #2
10003c5c:	4358      	muls	r0, r3
10003c5e:	b510      	push	{r4, lr}
10003c60:	4b02      	ldr	r3, [pc, #8]	; (10003c6c <tud_cdc_n_write_available+0x14>)
10003c62:	302c      	adds	r0, #44	; 0x2c
10003c64:	18c0      	adds	r0, r0, r3
10003c66:	f000 fa67 	bl	10004138 <tu_fifo_remaining>
10003c6a:	bd10      	pop	{r4, pc}
10003c6c:	20000fd4 	.word	0x20000fd4

10003c70 <cdcd_init>:
10003c70:	22b6      	movs	r2, #182	; 0xb6
10003c72:	b5f0      	push	{r4, r5, r6, r7, lr}
10003c74:	4c1b      	ldr	r4, [pc, #108]	; (10003ce4 <cdcd_init+0x74>)
10003c76:	b083      	sub	sp, #12
10003c78:	2100      	movs	r1, #0
10003c7a:	0020      	movs	r0, r4
10003c7c:	0092      	lsls	r2, r2, #2
10003c7e:	f7fe f941 	bl	10001f04 <__wrap_memset>
10003c82:	23ff      	movs	r3, #255	; 0xff
10003c84:	7163      	strb	r3, [r4, #5]
10003c86:	4b18      	ldr	r3, [pc, #96]	; (10003ce8 <cdcd_init+0x78>)
10003c88:	2680      	movs	r6, #128	; 0x80
10003c8a:	2500      	movs	r5, #0
10003c8c:	80e3      	strh	r3, [r4, #6]
10003c8e:	2701      	movs	r7, #1
10003c90:	2308      	movs	r3, #8
10003c92:	0021      	movs	r1, r4
10003c94:	0020      	movs	r0, r4
10003c96:	0076      	lsls	r6, r6, #1
10003c98:	7323      	strb	r3, [r4, #12]
10003c9a:	0032      	movs	r2, r6
10003c9c:	8127      	strh	r7, [r4, #8]
10003c9e:	8165      	strh	r5, [r4, #10]
10003ca0:	3148      	adds	r1, #72	; 0x48
10003ca2:	9500      	str	r5, [sp, #0]
10003ca4:	3b07      	subs	r3, #7
10003ca6:	3010      	adds	r0, #16
10003ca8:	f000 f9f2 	bl	10004090 <tu_fifo_config>
10003cac:	0021      	movs	r1, r4
10003cae:	0020      	movs	r0, r4
10003cb0:	3149      	adds	r1, #73	; 0x49
10003cb2:	0032      	movs	r2, r6
10003cb4:	31ff      	adds	r1, #255	; 0xff
10003cb6:	2301      	movs	r3, #1
10003cb8:	9700      	str	r7, [sp, #0]
10003cba:	302c      	adds	r0, #44	; 0x2c
10003cbc:	f000 f9e8 	bl	10004090 <tu_fifo_config>
10003cc0:	2392      	movs	r3, #146	; 0x92
10003cc2:	009b      	lsls	r3, r3, #2
10003cc4:	18e6      	adds	r6, r4, r3
10003cc6:	0030      	movs	r0, r6
10003cc8:	f7fd f928 	bl	10000f1c <mutex_init>
10003ccc:	2394      	movs	r3, #148	; 0x94
10003cce:	009b      	lsls	r3, r3, #2
10003cd0:	62a6      	str	r6, [r4, #40]	; 0x28
10003cd2:	18e6      	adds	r6, r4, r3
10003cd4:	0030      	movs	r0, r6
10003cd6:	6265      	str	r5, [r4, #36]	; 0x24
10003cd8:	f7fd f920 	bl	10000f1c <mutex_init>
10003cdc:	6426      	str	r6, [r4, #64]	; 0x40
10003cde:	6465      	str	r5, [r4, #68]	; 0x44
10003ce0:	b003      	add	sp, #12
10003ce2:	bdf0      	pop	{r4, r5, r6, r7, pc}
10003ce4:	20000fd4 	.word	0x20000fd4
10003ce8:	ffffc200 	.word	0xffffc200

10003cec <cdcd_reset>:
10003cec:	b510      	push	{r4, lr}
10003cee:	4c09      	ldr	r4, [pc, #36]	; (10003d14 <cdcd_reset+0x28>)
10003cf0:	2205      	movs	r2, #5
10003cf2:	2100      	movs	r1, #0
10003cf4:	0020      	movs	r0, r4
10003cf6:	f7fe f905 	bl	10001f04 <__wrap_memset>
10003cfa:	0020      	movs	r0, r4
10003cfc:	342c      	adds	r4, #44	; 0x2c
10003cfe:	3010      	adds	r0, #16
10003d00:	f000 fbbc 	bl	1000447c <tu_fifo_clear>
10003d04:	0020      	movs	r0, r4
10003d06:	f000 fbb9 	bl	1000447c <tu_fifo_clear>
10003d0a:	2101      	movs	r1, #1
10003d0c:	0020      	movs	r0, r4
10003d0e:	f000 fbdb 	bl	100044c8 <tu_fifo_set_overwritable>
10003d12:	bd10      	pop	{r4, pc}
10003d14:	20000fd4 	.word	0x20000fd4

10003d18 <cdcd_open>:
10003d18:	b5f0      	push	{r4, r5, r6, r7, lr}
10003d1a:	794b      	ldrb	r3, [r1, #5]
10003d1c:	0006      	movs	r6, r0
10003d1e:	b083      	sub	sp, #12
10003d20:	2b02      	cmp	r3, #2
10003d22:	d102      	bne.n	10003d2a <cdcd_open+0x12>
10003d24:	798b      	ldrb	r3, [r1, #6]
10003d26:	2b02      	cmp	r3, #2
10003d28:	d003      	beq.n	10003d32 <cdcd_open+0x1a>
10003d2a:	2500      	movs	r5, #0
10003d2c:	0028      	movs	r0, r5
10003d2e:	b003      	add	sp, #12
10003d30:	bdf0      	pop	{r4, r5, r6, r7, pc}
10003d32:	79cb      	ldrb	r3, [r1, #7]
10003d34:	2b06      	cmp	r3, #6
10003d36:	d8f8      	bhi.n	10003d2a <cdcd_open+0x12>
10003d38:	4f2f      	ldr	r7, [pc, #188]	; (10003df8 <cdcd_open+0xe0>)
10003d3a:	78bb      	ldrb	r3, [r7, #2]
10003d3c:	2b00      	cmp	r3, #0
10003d3e:	d1f4      	bne.n	10003d2a <cdcd_open+0x12>
10003d40:	788b      	ldrb	r3, [r1, #2]
10003d42:	2509      	movs	r5, #9
10003d44:	703b      	strb	r3, [r7, #0]
10003d46:	780c      	ldrb	r4, [r1, #0]
10003d48:	190c      	adds	r4, r1, r4
10003d4a:	7863      	ldrb	r3, [r4, #1]
10003d4c:	2b24      	cmp	r3, #36	; 0x24
10003d4e:	d10b      	bne.n	10003d68 <cdcd_open+0x50>
10003d50:	2a08      	cmp	r2, #8
10003d52:	d802      	bhi.n	10003d5a <cdcd_open+0x42>
10003d54:	e00f      	b.n	10003d76 <cdcd_open+0x5e>
10003d56:	42aa      	cmp	r2, r5
10003d58:	d30d      	bcc.n	10003d76 <cdcd_open+0x5e>
10003d5a:	7823      	ldrb	r3, [r4, #0]
10003d5c:	18e4      	adds	r4, r4, r3
10003d5e:	18ed      	adds	r5, r5, r3
10003d60:	7863      	ldrb	r3, [r4, #1]
10003d62:	b2ad      	uxth	r5, r5
10003d64:	2b24      	cmp	r3, #36	; 0x24
10003d66:	d0f6      	beq.n	10003d56 <cdcd_open+0x3e>
10003d68:	2b05      	cmp	r3, #5
10003d6a:	d020      	beq.n	10003dae <cdcd_open+0x96>
10003d6c:	2b04      	cmp	r3, #4
10003d6e:	d102      	bne.n	10003d76 <cdcd_open+0x5e>
10003d70:	7963      	ldrb	r3, [r4, #5]
10003d72:	2b0a      	cmp	r3, #10
10003d74:	d02e      	beq.n	10003dd4 <cdcd_open+0xbc>
10003d76:	4c21      	ldr	r4, [pc, #132]	; (10003dfc <cdcd_open+0xe4>)
10003d78:	0020      	movs	r0, r4
10003d7a:	f000 f9dd 	bl	10004138 <tu_fifo_remaining>
10003d7e:	283f      	cmp	r0, #63	; 0x3f
10003d80:	d9d4      	bls.n	10003d2c <cdcd_open+0x14>
10003d82:	0026      	movs	r6, r4
10003d84:	3e10      	subs	r6, #16
10003d86:	2000      	movs	r0, #0
10003d88:	78f1      	ldrb	r1, [r6, #3]
10003d8a:	f7ff fd29 	bl	100037e0 <usbd_edpt_claim>
10003d8e:	2800      	cmp	r0, #0
10003d90:	d0cc      	beq.n	10003d2c <cdcd_open+0x14>
10003d92:	0020      	movs	r0, r4
10003d94:	f000 f9d0 	bl	10004138 <tu_fifo_remaining>
10003d98:	283f      	cmp	r0, #63	; 0x3f
10003d9a:	d916      	bls.n	10003dca <cdcd_open+0xb2>
10003d9c:	2392      	movs	r3, #146	; 0x92
10003d9e:	009b      	lsls	r3, r3, #2
10003da0:	18e2      	adds	r2, r4, r3
10003da2:	78f1      	ldrb	r1, [r6, #3]
10003da4:	2340      	movs	r3, #64	; 0x40
10003da6:	2000      	movs	r0, #0
10003da8:	f7ff fd72 	bl	10003890 <usbd_edpt_xfer>
10003dac:	e7be      	b.n	10003d2c <cdcd_open+0x14>
10003dae:	0021      	movs	r1, r4
10003db0:	0030      	movs	r0, r6
10003db2:	f7ff fcc1 	bl	10003738 <usbd_edpt_open>
10003db6:	2800      	cmp	r0, #0
10003db8:	d0b7      	beq.n	10003d2a <cdcd_open+0x12>
10003dba:	78a3      	ldrb	r3, [r4, #2]
10003dbc:	707b      	strb	r3, [r7, #1]
10003dbe:	7823      	ldrb	r3, [r4, #0]
10003dc0:	18ed      	adds	r5, r5, r3
10003dc2:	18e4      	adds	r4, r4, r3
10003dc4:	7863      	ldrb	r3, [r4, #1]
10003dc6:	b2ad      	uxth	r5, r5
10003dc8:	e7d0      	b.n	10003d6c <cdcd_open+0x54>
10003dca:	78f1      	ldrb	r1, [r6, #3]
10003dcc:	2000      	movs	r0, #0
10003dce:	f7ff fd39 	bl	10003844 <usbd_edpt_release>
10003dd2:	e7ab      	b.n	10003d2c <cdcd_open+0x14>
10003dd4:	4b0a      	ldr	r3, [pc, #40]	; (10003e00 <cdcd_open+0xe8>)
10003dd6:	7827      	ldrb	r7, [r4, #0]
10003dd8:	9301      	str	r3, [sp, #4]
10003dda:	3301      	adds	r3, #1
10003ddc:	9300      	str	r3, [sp, #0]
10003dde:	2202      	movs	r2, #2
10003de0:	2302      	movs	r3, #2
10003de2:	0030      	movs	r0, r6
10003de4:	19e1      	adds	r1, r4, r7
10003de6:	f7ff fc35 	bl	10003654 <usbd_open_edpt_pair>
10003dea:	2800      	cmp	r0, #0
10003dec:	d09d      	beq.n	10003d2a <cdcd_open+0x12>
10003dee:	350e      	adds	r5, #14
10003df0:	19ed      	adds	r5, r5, r7
10003df2:	b2ad      	uxth	r5, r5
10003df4:	e7bf      	b.n	10003d76 <cdcd_open+0x5e>
10003df6:	46c0      	nop			; (mov r8, r8)
10003df8:	20000fd4 	.word	0x20000fd4
10003dfc:	20000fe4 	.word	0x20000fe4
10003e00:	20000fd6 	.word	0x20000fd6

10003e04 <cdcd_control_xfer_cb>:
10003e04:	b5f8      	push	{r3, r4, r5, r6, r7, lr}
10003e06:	2360      	movs	r3, #96	; 0x60
10003e08:	0014      	movs	r4, r2
10003e0a:	7812      	ldrb	r2, [r2, #0]
10003e0c:	0005      	movs	r5, r0
10003e0e:	4013      	ands	r3, r2
10003e10:	2000      	movs	r0, #0
10003e12:	2b20      	cmp	r3, #32
10003e14:	d112      	bne.n	10003e3c <cdcd_control_xfer_cb+0x38>
10003e16:	4a2e      	ldr	r2, [pc, #184]	; (10003ed0 <cdcd_control_xfer_cb+0xcc>)
10003e18:	7963      	ldrb	r3, [r4, #5]
10003e1a:	7927      	ldrb	r7, [r4, #4]
10003e1c:	7816      	ldrb	r6, [r2, #0]
10003e1e:	021b      	lsls	r3, r3, #8
10003e20:	433b      	orrs	r3, r7
10003e22:	429e      	cmp	r6, r3
10003e24:	d10a      	bne.n	10003e3c <cdcd_control_xfer_cb+0x38>
10003e26:	7863      	ldrb	r3, [r4, #1]
10003e28:	2b22      	cmp	r3, #34	; 0x22
10003e2a:	d027      	beq.n	10003e7c <cdcd_control_xfer_cb+0x78>
10003e2c:	d807      	bhi.n	10003e3e <cdcd_control_xfer_cb+0x3a>
10003e2e:	2b20      	cmp	r3, #32
10003e30:	d017      	beq.n	10003e62 <cdcd_control_xfer_cb+0x5e>
10003e32:	2b21      	cmp	r3, #33	; 0x21
10003e34:	d102      	bne.n	10003e3c <cdcd_control_xfer_cb+0x38>
10003e36:	2900      	cmp	r1, #0
10003e38:	d03c      	beq.n	10003eb4 <cdcd_control_xfer_cb+0xb0>
10003e3a:	2001      	movs	r0, #1
10003e3c:	bdf8      	pop	{r3, r4, r5, r6, r7, pc}
10003e3e:	2b23      	cmp	r3, #35	; 0x23
10003e40:	d1fc      	bne.n	10003e3c <cdcd_control_xfer_cb+0x38>
10003e42:	2900      	cmp	r1, #0
10003e44:	d03e      	beq.n	10003ec4 <cdcd_control_xfer_cb+0xc0>
10003e46:	2902      	cmp	r1, #2
10003e48:	d1f7      	bne.n	10003e3a <cdcd_control_xfer_cb+0x36>
10003e4a:	4b22      	ldr	r3, [pc, #136]	; (10003ed4 <cdcd_control_xfer_cb+0xd0>)
10003e4c:	2b00      	cmp	r3, #0
10003e4e:	d0f4      	beq.n	10003e3a <cdcd_control_xfer_cb+0x36>
10003e50:	78e1      	ldrb	r1, [r4, #3]
10003e52:	78a3      	ldrb	r3, [r4, #2]
10003e54:	0209      	lsls	r1, r1, #8
10003e56:	2000      	movs	r0, #0
10003e58:	4319      	orrs	r1, r3
10003e5a:	e000      	b.n	10003e5e <cdcd_control_xfer_cb+0x5a>
10003e5c:	bf00      	nop
10003e5e:	2001      	movs	r0, #1
10003e60:	e7ec      	b.n	10003e3c <cdcd_control_xfer_cb+0x38>
10003e62:	2900      	cmp	r1, #0
10003e64:	d026      	beq.n	10003eb4 <cdcd_control_xfer_cb+0xb0>
10003e66:	2902      	cmp	r1, #2
10003e68:	d1e7      	bne.n	10003e3a <cdcd_control_xfer_cb+0x36>
10003e6a:	4b1b      	ldr	r3, [pc, #108]	; (10003ed8 <cdcd_control_xfer_cb+0xd4>)
10003e6c:	2b00      	cmp	r3, #0
10003e6e:	d0e4      	beq.n	10003e3a <cdcd_control_xfer_cb+0x36>
10003e70:	2000      	movs	r0, #0
10003e72:	1d91      	adds	r1, r2, #6
10003e74:	f7fe f9b8 	bl	100021e8 <tud_cdc_line_coding_cb>
10003e78:	2001      	movs	r0, #1
10003e7a:	e7df      	b.n	10003e3c <cdcd_control_xfer_cb+0x38>
10003e7c:	2900      	cmp	r1, #0
10003e7e:	d021      	beq.n	10003ec4 <cdcd_control_xfer_cb+0xc0>
10003e80:	2902      	cmp	r1, #2
10003e82:	d1da      	bne.n	10003e3a <cdcd_control_xfer_cb+0x36>
10003e84:	2501      	movs	r5, #1
10003e86:	78a1      	ldrb	r1, [r4, #2]
10003e88:	78e4      	ldrb	r4, [r4, #3]
10003e8a:	0224      	lsls	r4, r4, #8
10003e8c:	430c      	orrs	r4, r1
10003e8e:	0029      	movs	r1, r5
10003e90:	7114      	strb	r4, [r2, #4]
10003e92:	322c      	adds	r2, #44	; 0x2c
10003e94:	0010      	movs	r0, r2
10003e96:	43a1      	bics	r1, r4
10003e98:	f000 fb16 	bl	100044c8 <tu_fifo_set_overwritable>
10003e9c:	4b0f      	ldr	r3, [pc, #60]	; (10003edc <cdcd_control_xfer_cb+0xd8>)
10003e9e:	2b00      	cmp	r3, #0
10003ea0:	d0cb      	beq.n	10003e3a <cdcd_control_xfer_cb+0x36>
10003ea2:	0029      	movs	r1, r5
10003ea4:	0862      	lsrs	r2, r4, #1
10003ea6:	2000      	movs	r0, #0
10003ea8:	402a      	ands	r2, r5
10003eaa:	4021      	ands	r1, r4
10003eac:	e000      	b.n	10003eb0 <cdcd_control_xfer_cb+0xac>
10003eae:	bf00      	nop
10003eb0:	2001      	movs	r0, #1
10003eb2:	e7c3      	b.n	10003e3c <cdcd_control_xfer_cb+0x38>
10003eb4:	2307      	movs	r3, #7
10003eb6:	0021      	movs	r1, r4
10003eb8:	0028      	movs	r0, r5
10003eba:	4a09      	ldr	r2, [pc, #36]	; (10003ee0 <cdcd_control_xfer_cb+0xdc>)
10003ebc:	f7ff fd24 	bl	10003908 <tud_control_xfer>
10003ec0:	2001      	movs	r0, #1
10003ec2:	e7bb      	b.n	10003e3c <cdcd_control_xfer_cb+0x38>
10003ec4:	0021      	movs	r1, r4
10003ec6:	0028      	movs	r0, r5
10003ec8:	f7ff fd06 	bl	100038d8 <tud_control_status>
10003ecc:	2001      	movs	r0, #1
10003ece:	e7b5      	b.n	10003e3c <cdcd_control_xfer_cb+0x38>
10003ed0:	20000fd4 	.word	0x20000fd4
10003ed4:	00000000 	.word	0x00000000
10003ed8:	100021e9 	.word	0x100021e9
10003edc:	00000000 	.word	0x00000000
10003ee0:	20000fda 	.word	0x20000fda

10003ee4 <cdcd_xfer_cb>:
10003ee4:	b5f8      	push	{r3, r4, r5, r6, r7, lr}
10003ee6:	4657      	mov	r7, sl
10003ee8:	464e      	mov	r6, r9
10003eea:	4645      	mov	r5, r8
10003eec:	46de      	mov	lr, fp
10003eee:	b5e0      	push	{r5, r6, r7, lr}
10003ef0:	4f5d      	ldr	r7, [pc, #372]	; (10004068 <cdcd_xfer_cb+0x184>)
10003ef2:	4680      	mov	r8, r0
10003ef4:	78fa      	ldrb	r2, [r7, #3]
10003ef6:	000c      	movs	r4, r1
10003ef8:	001e      	movs	r6, r3
10003efa:	428a      	cmp	r2, r1
10003efc:	d165      	bne.n	10003fca <cdcd_xfer_cb+0xe6>
10003efe:	b29a      	uxth	r2, r3
10003f00:	2396      	movs	r3, #150	; 0x96
10003f02:	009b      	lsls	r3, r3, #2
10003f04:	18fd      	adds	r5, r7, r3
10003f06:	2310      	movs	r3, #16
10003f08:	4699      	mov	r9, r3
10003f0a:	44b9      	add	r9, r7
10003f0c:	0029      	movs	r1, r5
10003f0e:	4648      	mov	r0, r9
10003f10:	f000 fa28 	bl	10004364 <tu_fifo_write_n>
10003f14:	4b55      	ldr	r3, [pc, #340]	; (1000406c <cdcd_xfer_cb+0x188>)
10003f16:	2b00      	cmp	r3, #0
10003f18:	d019      	beq.n	10003f4e <cdcd_xfer_cb+0x6a>
10003f1a:	797b      	ldrb	r3, [r7, #5]
10003f1c:	2bff      	cmp	r3, #255	; 0xff
10003f1e:	d016      	beq.n	10003f4e <cdcd_xfer_cb+0x6a>
10003f20:	2e00      	cmp	r6, #0
10003f22:	d014      	beq.n	10003f4e <cdcd_xfer_cb+0x6a>
10003f24:	19aa      	adds	r2, r5, r6
10003f26:	4692      	mov	sl, r2
10003f28:	46bb      	mov	fp, r7
10003f2a:	e003      	b.n	10003f34 <cdcd_xfer_cb+0x50>
10003f2c:	3501      	adds	r5, #1
10003f2e:	4555      	cmp	r5, sl
10003f30:	d00d      	beq.n	10003f4e <cdcd_xfer_cb+0x6a>
10003f32:	797b      	ldrb	r3, [r7, #5]
10003f34:	782a      	ldrb	r2, [r5, #0]
10003f36:	429a      	cmp	r2, r3
10003f38:	d1f8      	bne.n	10003f2c <cdcd_xfer_cb+0x48>
10003f3a:	4648      	mov	r0, r9
10003f3c:	f000 f8f4 	bl	10004128 <tu_fifo_empty>
10003f40:	2800      	cmp	r0, #0
10003f42:	d1f3      	bne.n	10003f2c <cdcd_xfer_cb+0x48>
10003f44:	465b      	mov	r3, fp
10003f46:	7959      	ldrb	r1, [r3, #5]
10003f48:	e000      	b.n	10003f4c <cdcd_xfer_cb+0x68>
10003f4a:	bf00      	nop
10003f4c:	e7ee      	b.n	10003f2c <cdcd_xfer_cb+0x48>
10003f4e:	4b48      	ldr	r3, [pc, #288]	; (10004070 <cdcd_xfer_cb+0x18c>)
10003f50:	2b00      	cmp	r3, #0
10003f52:	d005      	beq.n	10003f60 <cdcd_xfer_cb+0x7c>
10003f54:	4648      	mov	r0, r9
10003f56:	f000 f8e7 	bl	10004128 <tu_fifo_empty>
10003f5a:	2800      	cmp	r0, #0
10003f5c:	d100      	bne.n	10003f60 <cdcd_xfer_cb+0x7c>
10003f5e:	e076      	b.n	1000404e <cdcd_xfer_cb+0x16a>
10003f60:	4648      	mov	r0, r9
10003f62:	f000 f8e9 	bl	10004138 <tu_fifo_remaining>
10003f66:	283f      	cmp	r0, #63	; 0x3f
10003f68:	d858      	bhi.n	1000401c <cdcd_xfer_cb+0x138>
10003f6a:	464a      	mov	r2, r9
10003f6c:	3a10      	subs	r2, #16
10003f6e:	7893      	ldrb	r3, [r2, #2]
10003f70:	429c      	cmp	r4, r3
10003f72:	d007      	beq.n	10003f84 <cdcd_xfer_cb+0xa0>
10003f74:	2401      	movs	r4, #1
10003f76:	0020      	movs	r0, r4
10003f78:	bc3c      	pop	{r2, r3, r4, r5}
10003f7a:	4690      	mov	r8, r2
10003f7c:	4699      	mov	r9, r3
10003f7e:	46a2      	mov	sl, r4
10003f80:	46ab      	mov	fp, r5
10003f82:	bdf8      	pop	{r3, r4, r5, r6, r7, pc}
10003f84:	4b3b      	ldr	r3, [pc, #236]	; (10004074 <cdcd_xfer_cb+0x190>)
10003f86:	2b00      	cmp	r3, #0
10003f88:	d002      	beq.n	10003f90 <cdcd_xfer_cb+0xac>
10003f8a:	2000      	movs	r0, #0
10003f8c:	e000      	b.n	10003f90 <cdcd_xfer_cb+0xac>
10003f8e:	bf00      	nop
10003f90:	f7fe fde8 	bl	10002b64 <tud_mounted>
10003f94:	2800      	cmp	r0, #0
10003f96:	d11d      	bne.n	10003fd4 <cdcd_xfer_cb+0xf0>
10003f98:	4c37      	ldr	r4, [pc, #220]	; (10004078 <cdcd_xfer_cb+0x194>)
10003f9a:	0020      	movs	r0, r4
10003f9c:	f000 f8b4 	bl	10004108 <tu_fifo_count>
10003fa0:	2800      	cmp	r0, #0
10003fa2:	d1e7      	bne.n	10003f74 <cdcd_xfer_cb+0x90>
10003fa4:	2e00      	cmp	r6, #0
10003fa6:	d0e5      	beq.n	10003f74 <cdcd_xfer_cb+0x90>
10003fa8:	06b3      	lsls	r3, r6, #26
10003faa:	d1e3      	bne.n	10003f74 <cdcd_xfer_cb+0x90>
10003fac:	3c2c      	subs	r4, #44	; 0x2c
10003fae:	78a1      	ldrb	r1, [r4, #2]
10003fb0:	4640      	mov	r0, r8
10003fb2:	f7ff fc15 	bl	100037e0 <usbd_edpt_claim>
10003fb6:	0025      	movs	r5, r4
10003fb8:	1e04      	subs	r4, r0, #0
10003fba:	d0db      	beq.n	10003f74 <cdcd_xfer_cb+0x90>
10003fbc:	2300      	movs	r3, #0
10003fbe:	2200      	movs	r2, #0
10003fc0:	4640      	mov	r0, r8
10003fc2:	78a9      	ldrb	r1, [r5, #2]
10003fc4:	f7ff fc64 	bl	10003890 <usbd_edpt_xfer>
10003fc8:	e7d5      	b.n	10003f76 <cdcd_xfer_cb+0x92>
10003fca:	78bb      	ldrb	r3, [r7, #2]
10003fcc:	428b      	cmp	r3, r1
10003fce:	d0d9      	beq.n	10003f84 <cdcd_xfer_cb+0xa0>
10003fd0:	2400      	movs	r4, #0
10003fd2:	e7d0      	b.n	10003f76 <cdcd_xfer_cb+0x92>
10003fd4:	f7fe fdce 	bl	10002b74 <tud_suspended>
10003fd8:	4c27      	ldr	r4, [pc, #156]	; (10004078 <cdcd_xfer_cb+0x194>)
10003fda:	2800      	cmp	r0, #0
10003fdc:	d1dd      	bne.n	10003f9a <cdcd_xfer_cb+0xb6>
10003fde:	0020      	movs	r0, r4
10003fe0:	f000 f892 	bl	10004108 <tu_fifo_count>
10003fe4:	2800      	cmp	r0, #0
10003fe6:	d0d8      	beq.n	10003f9a <cdcd_xfer_cb+0xb6>
10003fe8:	0025      	movs	r5, r4
10003fea:	3d2c      	subs	r5, #44	; 0x2c
10003fec:	2000      	movs	r0, #0
10003fee:	78a9      	ldrb	r1, [r5, #2]
10003ff0:	f7ff fbf6 	bl	100037e0 <usbd_edpt_claim>
10003ff4:	2800      	cmp	r0, #0
10003ff6:	d0d0      	beq.n	10003f9a <cdcd_xfer_cb+0xb6>
10003ff8:	239b      	movs	r3, #155	; 0x9b
10003ffa:	009b      	lsls	r3, r3, #2
10003ffc:	18e7      	adds	r7, r4, r3
10003ffe:	0039      	movs	r1, r7
10004000:	2240      	movs	r2, #64	; 0x40
10004002:	0020      	movs	r0, r4
10004004:	f000 f8f4 	bl	100041f0 <tu_fifo_read_n>
10004008:	78a9      	ldrb	r1, [r5, #2]
1000400a:	1e03      	subs	r3, r0, #0
1000400c:	d028      	beq.n	10004060 <cdcd_xfer_cb+0x17c>
1000400e:	003a      	movs	r2, r7
10004010:	2000      	movs	r0, #0
10004012:	f7ff fc3d 	bl	10003890 <usbd_edpt_xfer>
10004016:	2800      	cmp	r0, #0
10004018:	d1ac      	bne.n	10003f74 <cdcd_xfer_cb+0x90>
1000401a:	e7be      	b.n	10003f9a <cdcd_xfer_cb+0xb6>
1000401c:	464d      	mov	r5, r9
1000401e:	3d10      	subs	r5, #16
10004020:	2000      	movs	r0, #0
10004022:	78e9      	ldrb	r1, [r5, #3]
10004024:	f7ff fbdc 	bl	100037e0 <usbd_edpt_claim>
10004028:	2800      	cmp	r0, #0
1000402a:	d101      	bne.n	10004030 <cdcd_xfer_cb+0x14c>
1000402c:	78ab      	ldrb	r3, [r5, #2]
1000402e:	e79f      	b.n	10003f70 <cdcd_xfer_cb+0x8c>
10004030:	4648      	mov	r0, r9
10004032:	f000 f881 	bl	10004138 <tu_fifo_remaining>
10004036:	283f      	cmp	r0, #63	; 0x3f
10004038:	d90c      	bls.n	10004054 <cdcd_xfer_cb+0x170>
1000403a:	2292      	movs	r2, #146	; 0x92
1000403c:	0092      	lsls	r2, r2, #2
1000403e:	2340      	movs	r3, #64	; 0x40
10004040:	2000      	movs	r0, #0
10004042:	78e9      	ldrb	r1, [r5, #3]
10004044:	444a      	add	r2, r9
10004046:	f7ff fc23 	bl	10003890 <usbd_edpt_xfer>
1000404a:	78ab      	ldrb	r3, [r5, #2]
1000404c:	e790      	b.n	10003f70 <cdcd_xfer_cb+0x8c>
1000404e:	e000      	b.n	10004052 <cdcd_xfer_cb+0x16e>
10004050:	bf00      	nop
10004052:	e785      	b.n	10003f60 <cdcd_xfer_cb+0x7c>
10004054:	2000      	movs	r0, #0
10004056:	78e9      	ldrb	r1, [r5, #3]
10004058:	f7ff fbf4 	bl	10003844 <usbd_edpt_release>
1000405c:	78ab      	ldrb	r3, [r5, #2]
1000405e:	e787      	b.n	10003f70 <cdcd_xfer_cb+0x8c>
10004060:	2000      	movs	r0, #0
10004062:	f7ff fbef 	bl	10003844 <usbd_edpt_release>
10004066:	e798      	b.n	10003f9a <cdcd_xfer_cb+0xb6>
10004068:	20000fd4 	.word	0x20000fd4
	...
10004078:	20001000 	.word	0x20001000

1000407c <tusb_init>:
1000407c:	b510      	push	{r4, lr}
1000407e:	2000      	movs	r0, #0
10004080:	f7fe fd86 	bl	10002b90 <tud_init>
10004084:	bd10      	pop	{r4, pc}
10004086:	46c0      	nop			; (mov r8, r8)

10004088 <tusb_inited>:
10004088:	b510      	push	{r4, lr}
1000408a:	f7fe fd7b 	bl	10002b84 <tud_inited>
1000408e:	bd10      	pop	{r4, pc}

10004090 <tu_fifo_config>:
10004090:	b5f0      	push	{r4, r5, r6, r7, lr}
10004092:	46c6      	mov	lr, r8
10004094:	b500      	push	{lr}
10004096:	0015      	movs	r5, r2
10004098:	aa06      	add	r2, sp, #24
1000409a:	001e      	movs	r6, r3
1000409c:	7813      	ldrb	r3, [r2, #0]
1000409e:	2280      	movs	r2, #128	; 0x80
100040a0:	0004      	movs	r4, r0
100040a2:	000f      	movs	r7, r1
100040a4:	4698      	mov	r8, r3
100040a6:	0212      	lsls	r2, r2, #8
100040a8:	4295      	cmp	r5, r2
100040aa:	d82a      	bhi.n	10004102 <tu_fifo_config+0x72>
100040ac:	6940      	ldr	r0, [r0, #20]
100040ae:	2800      	cmp	r0, #0
100040b0:	d003      	beq.n	100040ba <tu_fifo_config+0x2a>
100040b2:	2101      	movs	r1, #1
100040b4:	4249      	negs	r1, r1
100040b6:	f003 feff 	bl	10007eb8 <__mutex_enter_timeout_ms_veneer>
100040ba:	69a0      	ldr	r0, [r4, #24]
100040bc:	2800      	cmp	r0, #0
100040be:	d003      	beq.n	100040c8 <tu_fifo_config+0x38>
100040c0:	2101      	movs	r1, #1
100040c2:	4249      	negs	r1, r1
100040c4:	f003 fef8 	bl	10007eb8 <__mutex_enter_timeout_ms_veneer>
100040c8:	4643      	mov	r3, r8
100040ca:	80a5      	strh	r5, [r4, #4]
100040cc:	006d      	lsls	r5, r5, #1
100040ce:	b2ad      	uxth	r5, r5
100040d0:	7223      	strb	r3, [r4, #8]
100040d2:	1e6b      	subs	r3, r5, #1
100040d4:	81a3      	strh	r3, [r4, #12]
100040d6:	2300      	movs	r3, #0
100040d8:	6960      	ldr	r0, [r4, #20]
100040da:	426d      	negs	r5, r5
100040dc:	81e3      	strh	r3, [r4, #14]
100040de:	6027      	str	r7, [r4, #0]
100040e0:	80e6      	strh	r6, [r4, #6]
100040e2:	8165      	strh	r5, [r4, #10]
100040e4:	8223      	strh	r3, [r4, #16]
100040e6:	2800      	cmp	r0, #0
100040e8:	d001      	beq.n	100040ee <tu_fifo_config+0x5e>
100040ea:	f003 fecd 	bl	10007e88 <__mutex_exit_veneer>
100040ee:	69a0      	ldr	r0, [r4, #24]
100040f0:	2401      	movs	r4, #1
100040f2:	2800      	cmp	r0, #0
100040f4:	d001      	beq.n	100040fa <tu_fifo_config+0x6a>
100040f6:	f003 fec7 	bl	10007e88 <__mutex_exit_veneer>
100040fa:	0020      	movs	r0, r4
100040fc:	bc04      	pop	{r2}
100040fe:	4690      	mov	r8, r2
10004100:	bdf0      	pop	{r4, r5, r6, r7, pc}
10004102:	2400      	movs	r4, #0
10004104:	e7f9      	b.n	100040fa <tu_fifo_config+0x6a>
10004106:	46c0      	nop			; (mov r8, r8)

10004108 <tu_fifo_count>:
10004108:	89c1      	ldrh	r1, [r0, #14]
1000410a:	8a02      	ldrh	r2, [r0, #16]
1000410c:	1a8b      	subs	r3, r1, r2
1000410e:	b29b      	uxth	r3, r3
10004110:	4291      	cmp	r1, r2
10004112:	d202      	bcs.n	1000411a <tu_fifo_count+0x12>
10004114:	8942      	ldrh	r2, [r0, #10]
10004116:	1a9b      	subs	r3, r3, r2
10004118:	b29b      	uxth	r3, r3
1000411a:	8882      	ldrh	r2, [r0, #4]
1000411c:	1c10      	adds	r0, r2, #0
1000411e:	429a      	cmp	r2, r3
10004120:	d900      	bls.n	10004124 <tu_fifo_count+0x1c>
10004122:	1c18      	adds	r0, r3, #0
10004124:	b280      	uxth	r0, r0
10004126:	4770      	bx	lr

10004128 <tu_fifo_empty>:
10004128:	89c3      	ldrh	r3, [r0, #14]
1000412a:	8a00      	ldrh	r0, [r0, #16]
1000412c:	1a18      	subs	r0, r3, r0
1000412e:	4243      	negs	r3, r0
10004130:	4158      	adcs	r0, r3
10004132:	b2c0      	uxtb	r0, r0
10004134:	4770      	bx	lr
10004136:	46c0      	nop			; (mov r8, r8)

10004138 <tu_fifo_remaining>:
10004138:	b510      	push	{r4, lr}
1000413a:	89c4      	ldrh	r4, [r0, #14]
1000413c:	8a01      	ldrh	r1, [r0, #16]
1000413e:	8883      	ldrh	r3, [r0, #4]
10004140:	1a62      	subs	r2, r4, r1
10004142:	b292      	uxth	r2, r2
10004144:	428c      	cmp	r4, r1
10004146:	d202      	bcs.n	1000414e <tu_fifo_remaining+0x16>
10004148:	8940      	ldrh	r0, [r0, #10]
1000414a:	1a12      	subs	r2, r2, r0
1000414c:	b292      	uxth	r2, r2
1000414e:	1a98      	subs	r0, r3, r2
10004150:	b280      	uxth	r0, r0
10004152:	bd10      	pop	{r4, pc}

10004154 <tu_fifo_read>:
10004154:	b570      	push	{r4, r5, r6, lr}
10004156:	0004      	movs	r4, r0
10004158:	6980      	ldr	r0, [r0, #24]
1000415a:	000e      	movs	r6, r1
1000415c:	2800      	cmp	r0, #0
1000415e:	d003      	beq.n	10004168 <tu_fifo_read+0x14>
10004160:	2101      	movs	r1, #1
10004162:	4249      	negs	r1, r1
10004164:	f003 fea8 	bl	10007eb8 <__mutex_enter_timeout_ms_veneer>
10004168:	89e5      	ldrh	r5, [r4, #14]
1000416a:	8a20      	ldrh	r0, [r4, #16]
1000416c:	b2a9      	uxth	r1, r5
1000416e:	1a2a      	subs	r2, r5, r0
10004170:	b283      	uxth	r3, r0
10004172:	b292      	uxth	r2, r2
10004174:	4285      	cmp	r5, r0
10004176:	d202      	bcs.n	1000417e <tu_fifo_read+0x2a>
10004178:	8960      	ldrh	r0, [r4, #10]
1000417a:	1a12      	subs	r2, r2, r0
1000417c:	b292      	uxth	r2, r2
1000417e:	88a0      	ldrh	r0, [r4, #4]
10004180:	4290      	cmp	r0, r2
10004182:	d206      	bcs.n	10004192 <tu_fifo_read+0x3e>
10004184:	89a5      	ldrh	r5, [r4, #12]
10004186:	1a0a      	subs	r2, r1, r0
10004188:	42aa      	cmp	r2, r5
1000418a:	dc28      	bgt.n	100041de <tu_fifo_read+0x8a>
1000418c:	b292      	uxth	r2, r2
1000418e:	8222      	strh	r2, [r4, #16]
10004190:	0002      	movs	r2, r0
10004192:	2a00      	cmp	r2, #0
10004194:	d102      	bne.n	1000419c <tu_fifo_read+0x48>
10004196:	e027      	b.n	100041e8 <tu_fifo_read+0x94>
10004198:	1a1b      	subs	r3, r3, r0
1000419a:	b29b      	uxth	r3, r3
1000419c:	4298      	cmp	r0, r3
1000419e:	d9fb      	bls.n	10004198 <tu_fifo_read+0x44>
100041a0:	88e2      	ldrh	r2, [r4, #6]
100041a2:	6821      	ldr	r1, [r4, #0]
100041a4:	4353      	muls	r3, r2
100041a6:	0030      	movs	r0, r6
100041a8:	18c9      	adds	r1, r1, r3
100041aa:	f7fd feb1 	bl	10001f10 <__wrap___aeabi_memcpy>
100041ae:	2501      	movs	r5, #1
100041b0:	2001      	movs	r0, #1
100041b2:	2201      	movs	r2, #1
100041b4:	8a21      	ldrh	r1, [r4, #16]
100041b6:	b28b      	uxth	r3, r1
100041b8:	1809      	adds	r1, r1, r0
100041ba:	89a0      	ldrh	r0, [r4, #12]
100041bc:	4281      	cmp	r1, r0
100041be:	dd0b      	ble.n	100041d8 <tu_fifo_read+0x84>
100041c0:	8961      	ldrh	r1, [r4, #10]
100041c2:	185b      	adds	r3, r3, r1
100041c4:	18d3      	adds	r3, r2, r3
100041c6:	b29b      	uxth	r3, r3
100041c8:	69a0      	ldr	r0, [r4, #24]
100041ca:	8223      	strh	r3, [r4, #16]
100041cc:	2800      	cmp	r0, #0
100041ce:	d001      	beq.n	100041d4 <tu_fifo_read+0x80>
100041d0:	f003 fe5a 	bl	10007e88 <__mutex_exit_veneer>
100041d4:	0028      	movs	r0, r5
100041d6:	bd70      	pop	{r4, r5, r6, pc}
100041d8:	189b      	adds	r3, r3, r2
100041da:	b29b      	uxth	r3, r3
100041dc:	e7f4      	b.n	100041c8 <tu_fifo_read+0x74>
100041de:	8962      	ldrh	r2, [r4, #10]
100041e0:	1882      	adds	r2, r0, r2
100041e2:	1a8a      	subs	r2, r1, r2
100041e4:	b292      	uxth	r2, r2
100041e6:	e7d2      	b.n	1000418e <tu_fifo_read+0x3a>
100041e8:	2000      	movs	r0, #0
100041ea:	2500      	movs	r5, #0
100041ec:	e7e2      	b.n	100041b4 <tu_fifo_read+0x60>
100041ee:	46c0      	nop			; (mov r8, r8)

100041f0 <tu_fifo_read_n>:
100041f0:	b5f0      	push	{r4, r5, r6, r7, lr}
100041f2:	464f      	mov	r7, r9
100041f4:	4646      	mov	r6, r8
100041f6:	46d6      	mov	lr, sl
100041f8:	0004      	movs	r4, r0
100041fa:	6980      	ldr	r0, [r0, #24]
100041fc:	4688      	mov	r8, r1
100041fe:	4691      	mov	r9, r2
10004200:	b5c0      	push	{r6, r7, lr}
10004202:	2800      	cmp	r0, #0
10004204:	d003      	beq.n	1000420e <tu_fifo_read_n+0x1e>
10004206:	2101      	movs	r1, #1
10004208:	4249      	negs	r1, r1
1000420a:	f003 fe55 	bl	10007eb8 <__mutex_enter_timeout_ms_veneer>
1000420e:	89e2      	ldrh	r2, [r4, #14]
10004210:	8a23      	ldrh	r3, [r4, #16]
10004212:	b291      	uxth	r1, r2
10004214:	1ad5      	subs	r5, r2, r3
10004216:	b29e      	uxth	r6, r3
10004218:	b2ad      	uxth	r5, r5
1000421a:	429a      	cmp	r2, r3
1000421c:	d202      	bcs.n	10004224 <tu_fifo_read_n+0x34>
1000421e:	8963      	ldrh	r3, [r4, #10]
10004220:	1aed      	subs	r5, r5, r3
10004222:	b2ad      	uxth	r5, r5
10004224:	88a7      	ldrh	r7, [r4, #4]
10004226:	42af      	cmp	r7, r5
10004228:	d208      	bcs.n	1000423c <tu_fifo_read_n+0x4c>
1000422a:	89a2      	ldrh	r2, [r4, #12]
1000422c:	1bcb      	subs	r3, r1, r7
1000422e:	4293      	cmp	r3, r2
10004230:	dc55      	bgt.n	100042de <tu_fifo_read_n+0xee>
10004232:	b29b      	uxth	r3, r3
10004234:	003d      	movs	r5, r7
10004236:	8223      	strh	r3, [r4, #16]
10004238:	8a26      	ldrh	r6, [r4, #16]
1000423a:	b2b6      	uxth	r6, r6
1000423c:	2d00      	cmp	r5, #0
1000423e:	d053      	beq.n	100042e8 <tu_fifo_read_n+0xf8>
10004240:	464b      	mov	r3, r9
10004242:	45a9      	cmp	r9, r5
10004244:	d849      	bhi.n	100042da <tu_fifo_read_n+0xea>
10004246:	b29d      	uxth	r5, r3
10004248:	42b7      	cmp	r7, r6
1000424a:	d803      	bhi.n	10004254 <tu_fifo_read_n+0x64>
1000424c:	1bf6      	subs	r6, r6, r7
1000424e:	b2b6      	uxth	r6, r6
10004250:	42b7      	cmp	r7, r6
10004252:	d9fb      	bls.n	1000424c <tu_fifo_read_n+0x5c>
10004254:	88e3      	ldrh	r3, [r4, #6]
10004256:	1bb8      	subs	r0, r7, r6
10004258:	0019      	movs	r1, r3
1000425a:	4699      	mov	r9, r3
1000425c:	6823      	ldr	r3, [r4, #0]
1000425e:	4371      	muls	r1, r6
10004260:	469c      	mov	ip, r3
10004262:	b280      	uxth	r0, r0
10004264:	4461      	add	r1, ip
10004266:	4285      	cmp	r5, r0
10004268:	d928      	bls.n	100042bc <tu_fifo_read_n+0xcc>
1000426a:	464b      	mov	r3, r9
1000426c:	4358      	muls	r0, r3
1000426e:	b283      	uxth	r3, r0
10004270:	001a      	movs	r2, r3
10004272:	4640      	mov	r0, r8
10004274:	469a      	mov	sl, r3
10004276:	f7fd fe4b 	bl	10001f10 <__wrap___aeabi_memcpy>
1000427a:	464b      	mov	r3, r9
1000427c:	4640      	mov	r0, r8
1000427e:	1bef      	subs	r7, r5, r7
10004280:	19f6      	adds	r6, r6, r7
10004282:	435e      	muls	r6, r3
10004284:	6821      	ldr	r1, [r4, #0]
10004286:	4450      	add	r0, sl
10004288:	b2b2      	uxth	r2, r6
1000428a:	f7fd fe41 	bl	10001f10 <__wrap___aeabi_memcpy>
1000428e:	002f      	movs	r7, r5
10004290:	8a22      	ldrh	r2, [r4, #16]
10004292:	89a1      	ldrh	r1, [r4, #12]
10004294:	b293      	uxth	r3, r2
10004296:	19d2      	adds	r2, r2, r7
10004298:	428a      	cmp	r2, r1
1000429a:	dd1b      	ble.n	100042d4 <tu_fifo_read_n+0xe4>
1000429c:	8962      	ldrh	r2, [r4, #10]
1000429e:	189b      	adds	r3, r3, r2
100042a0:	18eb      	adds	r3, r5, r3
100042a2:	b29b      	uxth	r3, r3
100042a4:	69a0      	ldr	r0, [r4, #24]
100042a6:	8223      	strh	r3, [r4, #16]
100042a8:	2800      	cmp	r0, #0
100042aa:	d001      	beq.n	100042b0 <tu_fifo_read_n+0xc0>
100042ac:	f003 fdec 	bl	10007e88 <__mutex_exit_veneer>
100042b0:	0028      	movs	r0, r5
100042b2:	bc1c      	pop	{r2, r3, r4}
100042b4:	4690      	mov	r8, r2
100042b6:	4699      	mov	r9, r3
100042b8:	46a2      	mov	sl, r4
100042ba:	bdf0      	pop	{r4, r5, r6, r7, pc}
100042bc:	464a      	mov	r2, r9
100042be:	002f      	movs	r7, r5
100042c0:	436a      	muls	r2, r5
100042c2:	4640      	mov	r0, r8
100042c4:	f7fd fe24 	bl	10001f10 <__wrap___aeabi_memcpy>
100042c8:	8a22      	ldrh	r2, [r4, #16]
100042ca:	89a1      	ldrh	r1, [r4, #12]
100042cc:	b293      	uxth	r3, r2
100042ce:	19d2      	adds	r2, r2, r7
100042d0:	428a      	cmp	r2, r1
100042d2:	dce3      	bgt.n	1000429c <tu_fifo_read_n+0xac>
100042d4:	195b      	adds	r3, r3, r5
100042d6:	b29b      	uxth	r3, r3
100042d8:	e7e4      	b.n	100042a4 <tu_fifo_read_n+0xb4>
100042da:	1c2b      	adds	r3, r5, #0
100042dc:	e7b3      	b.n	10004246 <tu_fifo_read_n+0x56>
100042de:	8963      	ldrh	r3, [r4, #10]
100042e0:	18fb      	adds	r3, r7, r3
100042e2:	1acb      	subs	r3, r1, r3
100042e4:	b29b      	uxth	r3, r3
100042e6:	e7a5      	b.n	10004234 <tu_fifo_read_n+0x44>
100042e8:	2700      	movs	r7, #0
100042ea:	e7d1      	b.n	10004290 <tu_fifo_read_n+0xa0>

100042ec <tu_fifo_write>:
100042ec:	b5f8      	push	{r3, r4, r5, r6, r7, lr}
100042ee:	0004      	movs	r4, r0
100042f0:	6940      	ldr	r0, [r0, #20]
100042f2:	000e      	movs	r6, r1
100042f4:	2800      	cmp	r0, #0
100042f6:	d003      	beq.n	10004300 <tu_fifo_write+0x14>
100042f8:	2101      	movs	r1, #1
100042fa:	4249      	negs	r1, r1
100042fc:	f003 fddc 	bl	10007eb8 <__mutex_enter_timeout_ms_veneer>
10004300:	89e2      	ldrh	r2, [r4, #14]
10004302:	8a21      	ldrh	r1, [r4, #16]
10004304:	b295      	uxth	r5, r2
10004306:	1a53      	subs	r3, r2, r1
10004308:	b29b      	uxth	r3, r3
1000430a:	4291      	cmp	r1, r2
1000430c:	d902      	bls.n	10004314 <tu_fifo_write+0x28>
1000430e:	8962      	ldrh	r2, [r4, #10]
10004310:	1a9b      	subs	r3, r3, r2
10004312:	b29b      	uxth	r3, r3
10004314:	88a2      	ldrh	r2, [r4, #4]
10004316:	429a      	cmp	r2, r3
10004318:	d020      	beq.n	1000435c <tu_fifo_write+0x70>
1000431a:	002b      	movs	r3, r5
1000431c:	4295      	cmp	r5, r2
1000431e:	d303      	bcc.n	10004328 <tu_fifo_write+0x3c>
10004320:	1a9b      	subs	r3, r3, r2
10004322:	b29b      	uxth	r3, r3
10004324:	429a      	cmp	r2, r3
10004326:	d9fb      	bls.n	10004320 <tu_fifo_write+0x34>
10004328:	88e2      	ldrh	r2, [r4, #6]
1000432a:	6821      	ldr	r1, [r4, #0]
1000432c:	4353      	muls	r3, r2
1000432e:	18c8      	adds	r0, r1, r3
10004330:	0031      	movs	r1, r6
10004332:	f7fd fded 	bl	10001f10 <__wrap___aeabi_memcpy>
10004336:	89a3      	ldrh	r3, [r4, #12]
10004338:	42ab      	cmp	r3, r5
1000433a:	d90a      	bls.n	10004352 <tu_fifo_write+0x66>
1000433c:	3501      	adds	r5, #1
1000433e:	b2ad      	uxth	r5, r5
10004340:	6960      	ldr	r0, [r4, #20]
10004342:	2701      	movs	r7, #1
10004344:	81e5      	strh	r5, [r4, #14]
10004346:	2800      	cmp	r0, #0
10004348:	d001      	beq.n	1000434e <tu_fifo_write+0x62>
1000434a:	f003 fd9d 	bl	10007e88 <__mutex_exit_veneer>
1000434e:	0038      	movs	r0, r7
10004350:	bdf8      	pop	{r3, r4, r5, r6, r7, pc}
10004352:	8963      	ldrh	r3, [r4, #10]
10004354:	18ed      	adds	r5, r5, r3
10004356:	3501      	adds	r5, #1
10004358:	b2ad      	uxth	r5, r5
1000435a:	e7f1      	b.n	10004340 <tu_fifo_write+0x54>
1000435c:	7a27      	ldrb	r7, [r4, #8]
1000435e:	2f00      	cmp	r7, #0
10004360:	d1db      	bne.n	1000431a <tu_fifo_write+0x2e>
10004362:	e7f4      	b.n	1000434e <tu_fifo_write+0x62>

10004364 <tu_fifo_write_n>:
10004364:	b5f0      	push	{r4, r5, r6, r7, lr}
10004366:	464e      	mov	r6, r9
10004368:	4645      	mov	r5, r8
1000436a:	46de      	mov	lr, fp
1000436c:	4657      	mov	r7, sl
1000436e:	b5e0      	push	{r5, r6, r7, lr}
10004370:	0004      	movs	r4, r0
10004372:	4688      	mov	r8, r1
10004374:	0016      	movs	r6, r2
10004376:	b083      	sub	sp, #12
10004378:	2a00      	cmp	r2, #0
1000437a:	d05d      	beq.n	10004438 <tu_fifo_write_n+0xd4>
1000437c:	6940      	ldr	r0, [r0, #20]
1000437e:	2800      	cmp	r0, #0
10004380:	d003      	beq.n	1000438a <tu_fifo_write_n+0x26>
10004382:	2101      	movs	r1, #1
10004384:	4249      	negs	r1, r1
10004386:	f003 fd97 	bl	10007eb8 <__mutex_enter_timeout_ms_veneer>
1000438a:	89e7      	ldrh	r7, [r4, #14]
1000438c:	7a23      	ldrb	r3, [r4, #8]
1000438e:	8a22      	ldrh	r2, [r4, #16]
10004390:	88a5      	ldrh	r5, [r4, #4]
10004392:	b2bf      	uxth	r7, r7
10004394:	b292      	uxth	r2, r2
10004396:	2b00      	cmp	r3, #0
10004398:	d141      	bne.n	1000441e <tu_fifo_write_n+0xba>
1000439a:	1abb      	subs	r3, r7, r2
1000439c:	b29b      	uxth	r3, r3
1000439e:	4297      	cmp	r7, r2
100043a0:	d202      	bcs.n	100043a8 <tu_fifo_write_n+0x44>
100043a2:	8962      	ldrh	r2, [r4, #10]
100043a4:	1a9b      	subs	r3, r3, r2
100043a6:	b29b      	uxth	r3, r3
100043a8:	1aeb      	subs	r3, r5, r3
100043aa:	1c1a      	adds	r2, r3, #0
100043ac:	b29b      	uxth	r3, r3
100043ae:	42b3      	cmp	r3, r6
100043b0:	d859      	bhi.n	10004466 <tu_fifo_write_n+0x102>
100043b2:	b293      	uxth	r3, r2
100043b4:	4699      	mov	r9, r3
100043b6:	88e3      	ldrh	r3, [r4, #6]
100043b8:	46ca      	mov	sl, r9
100043ba:	469b      	mov	fp, r3
100043bc:	464b      	mov	r3, r9
100043be:	1b5e      	subs	r6, r3, r5
100043c0:	b2b3      	uxth	r3, r6
100043c2:	9301      	str	r3, [sp, #4]
100043c4:	003e      	movs	r6, r7
100043c6:	42af      	cmp	r7, r5
100043c8:	d303      	bcc.n	100043d2 <tu_fifo_write_n+0x6e>
100043ca:	1b76      	subs	r6, r6, r5
100043cc:	b2b6      	uxth	r6, r6
100043ce:	42ae      	cmp	r6, r5
100043d0:	d2fb      	bcs.n	100043ca <tu_fifo_write_n+0x66>
100043d2:	4658      	mov	r0, fp
100043d4:	6823      	ldr	r3, [r4, #0]
100043d6:	4370      	muls	r0, r6
100043d8:	469c      	mov	ip, r3
100043da:	1bad      	subs	r5, r5, r6
100043dc:	b2ad      	uxth	r5, r5
100043de:	4460      	add	r0, ip
100043e0:	45a9      	cmp	r9, r5
100043e2:	d82e      	bhi.n	10004442 <tu_fifo_write_n+0xde>
100043e4:	465a      	mov	r2, fp
100043e6:	4653      	mov	r3, sl
100043e8:	4641      	mov	r1, r8
100043ea:	435a      	muls	r2, r3
100043ec:	f7fd fd90 	bl	10001f10 <__wrap___aeabi_memcpy>
100043f0:	4653      	mov	r3, sl
100043f2:	89a2      	ldrh	r2, [r4, #12]
100043f4:	18fb      	adds	r3, r7, r3
100043f6:	444f      	add	r7, r9
100043f8:	4293      	cmp	r3, r2
100043fa:	dd20      	ble.n	1000443e <tu_fifo_write_n+0xda>
100043fc:	8963      	ldrh	r3, [r4, #10]
100043fe:	18ff      	adds	r7, r7, r3
10004400:	b2bf      	uxth	r7, r7
10004402:	6960      	ldr	r0, [r4, #20]
10004404:	81e7      	strh	r7, [r4, #14]
10004406:	2800      	cmp	r0, #0
10004408:	d001      	beq.n	1000440e <tu_fifo_write_n+0xaa>
1000440a:	f003 fd3d 	bl	10007e88 <__mutex_exit_veneer>
1000440e:	4648      	mov	r0, r9
10004410:	b003      	add	sp, #12
10004412:	bc3c      	pop	{r2, r3, r4, r5}
10004414:	4690      	mov	r8, r2
10004416:	4699      	mov	r9, r3
10004418:	46a2      	mov	sl, r4
1000441a:	46ab      	mov	fp, r5
1000441c:	bdf0      	pop	{r4, r5, r6, r7, pc}
1000441e:	42ae      	cmp	r6, r5
10004420:	d323      	bcc.n	1000446a <tu_fifo_write_n+0x106>
10004422:	88e3      	ldrh	r3, [r4, #6]
10004424:	1b76      	subs	r6, r6, r5
10004426:	435e      	muls	r6, r3
10004428:	469b      	mov	fp, r3
1000442a:	2300      	movs	r3, #0
1000442c:	46aa      	mov	sl, r5
1000442e:	0017      	movs	r7, r2
10004430:	46a9      	mov	r9, r5
10004432:	44b0      	add	r8, r6
10004434:	9301      	str	r3, [sp, #4]
10004436:	e7c5      	b.n	100043c4 <tu_fifo_write_n+0x60>
10004438:	2300      	movs	r3, #0
1000443a:	4699      	mov	r9, r3
1000443c:	e7e7      	b.n	1000440e <tu_fifo_write_n+0xaa>
1000443e:	b2bf      	uxth	r7, r7
10004440:	e7df      	b.n	10004402 <tu_fifo_write_n+0x9e>
10004442:	465b      	mov	r3, fp
10004444:	435d      	muls	r5, r3
10004446:	b2ad      	uxth	r5, r5
10004448:	002a      	movs	r2, r5
1000444a:	4641      	mov	r1, r8
1000444c:	f7fd fd60 	bl	10001f10 <__wrap___aeabi_memcpy>
10004450:	9b01      	ldr	r3, [sp, #4]
10004452:	0029      	movs	r1, r5
10004454:	18f2      	adds	r2, r6, r3
10004456:	465b      	mov	r3, fp
10004458:	435a      	muls	r2, r3
1000445a:	6820      	ldr	r0, [r4, #0]
1000445c:	b292      	uxth	r2, r2
1000445e:	4441      	add	r1, r8
10004460:	f7fd fd56 	bl	10001f10 <__wrap___aeabi_memcpy>
10004464:	e7c4      	b.n	100043f0 <tu_fifo_write_n+0x8c>
10004466:	1c32      	adds	r2, r6, #0
10004468:	e7a3      	b.n	100043b2 <tu_fifo_write_n+0x4e>
1000446a:	46b2      	mov	sl, r6
1000446c:	88e3      	ldrh	r3, [r4, #6]
1000446e:	1b76      	subs	r6, r6, r5
10004470:	469b      	mov	fp, r3
10004472:	b2b3      	uxth	r3, r6
10004474:	46d1      	mov	r9, sl
10004476:	9301      	str	r3, [sp, #4]
10004478:	e7a4      	b.n	100043c4 <tu_fifo_write_n+0x60>
1000447a:	46c0      	nop			; (mov r8, r8)

1000447c <tu_fifo_clear>:
1000447c:	b510      	push	{r4, lr}
1000447e:	0004      	movs	r4, r0
10004480:	6940      	ldr	r0, [r0, #20]
10004482:	2800      	cmp	r0, #0
10004484:	d003      	beq.n	1000448e <tu_fifo_clear+0x12>
10004486:	2101      	movs	r1, #1
10004488:	4249      	negs	r1, r1
1000448a:	f003 fd15 	bl	10007eb8 <__mutex_enter_timeout_ms_veneer>
1000448e:	69a0      	ldr	r0, [r4, #24]
10004490:	2800      	cmp	r0, #0
10004492:	d003      	beq.n	1000449c <tu_fifo_clear+0x20>
10004494:	2101      	movs	r1, #1
10004496:	4249      	negs	r1, r1
10004498:	f003 fd0e 	bl	10007eb8 <__mutex_enter_timeout_ms_veneer>
1000449c:	2300      	movs	r3, #0
1000449e:	81e3      	strh	r3, [r4, #14]
100044a0:	8223      	strh	r3, [r4, #16]
100044a2:	88a3      	ldrh	r3, [r4, #4]
100044a4:	6960      	ldr	r0, [r4, #20]
100044a6:	005b      	lsls	r3, r3, #1
100044a8:	b29b      	uxth	r3, r3
100044aa:	1e5a      	subs	r2, r3, #1
100044ac:	425b      	negs	r3, r3
100044ae:	81a2      	strh	r2, [r4, #12]
100044b0:	8163      	strh	r3, [r4, #10]
100044b2:	2800      	cmp	r0, #0
100044b4:	d001      	beq.n	100044ba <tu_fifo_clear+0x3e>
100044b6:	f003 fce7 	bl	10007e88 <__mutex_exit_veneer>
100044ba:	69a0      	ldr	r0, [r4, #24]
100044bc:	2800      	cmp	r0, #0
100044be:	d001      	beq.n	100044c4 <tu_fifo_clear+0x48>
100044c0:	f003 fce2 	bl	10007e88 <__mutex_exit_veneer>
100044c4:	2001      	movs	r0, #1
100044c6:	bd10      	pop	{r4, pc}

100044c8 <tu_fifo_set_overwritable>:
100044c8:	b570      	push	{r4, r5, r6, lr}
100044ca:	0004      	movs	r4, r0
100044cc:	6940      	ldr	r0, [r0, #20]
100044ce:	000d      	movs	r5, r1
100044d0:	2800      	cmp	r0, #0
100044d2:	d003      	beq.n	100044dc <tu_fifo_set_overwritable+0x14>
100044d4:	2101      	movs	r1, #1
100044d6:	4249      	negs	r1, r1
100044d8:	f003 fcee 	bl	10007eb8 <__mutex_enter_timeout_ms_veneer>
100044dc:	69a0      	ldr	r0, [r4, #24]
100044de:	2800      	cmp	r0, #0
100044e0:	d003      	beq.n	100044ea <tu_fifo_set_overwritable+0x22>
100044e2:	2101      	movs	r1, #1
100044e4:	4249      	negs	r1, r1
100044e6:	f003 fce7 	bl	10007eb8 <__mutex_enter_timeout_ms_veneer>
100044ea:	6960      	ldr	r0, [r4, #20]
100044ec:	7225      	strb	r5, [r4, #8]
100044ee:	2800      	cmp	r0, #0
100044f0:	d001      	beq.n	100044f6 <tu_fifo_set_overwritable+0x2e>
100044f2:	f003 fcc9 	bl	10007e88 <__mutex_exit_veneer>
100044f6:	69a0      	ldr	r0, [r4, #24]
100044f8:	2800      	cmp	r0, #0
100044fa:	d001      	beq.n	10004500 <tu_fifo_set_overwritable+0x38>
100044fc:	f003 fcc4 	bl	10007e88 <__mutex_exit_veneer>
10004500:	2001      	movs	r0, #1
10004502:	bd70      	pop	{r4, r5, r6, pc}

10004504 <_retrieve_unique_id_on_boot>:
10004504:	b510      	push	{r4, lr}
10004506:	4802      	ldr	r0, [pc, #8]	; (10004510 <_retrieve_unique_id_on_boot+0xc>)
10004508:	f000 f8e2 	bl	100046d0 <flash_get_unique_id>
1000450c:	bd10      	pop	{r4, pc}
1000450e:	46c0      	nop			; (mov r8, r8)
10004510:	20001914 	.word	0x20001914

10004514 <pico_get_unique_board_id_string>:
10004514:	b530      	push	{r4, r5, lr}
10004516:	1e4b      	subs	r3, r1, #1
10004518:	2901      	cmp	r1, #1
1000451a:	d100      	bne.n	1000451e <pico_get_unique_board_id_string+0xa>
1000451c:	e0b0      	b.n	10004680 <pico_get_unique_board_id_string+0x16c>
1000451e:	4a6b      	ldr	r2, [pc, #428]	; (100046cc <pico_get_unique_board_id_string+0x1b8>)
10004520:	7811      	ldrb	r1, [r2, #0]
10004522:	110d      	asrs	r5, r1, #4
10004524:	002c      	movs	r4, r5
10004526:	3430      	adds	r4, #48	; 0x30
10004528:	299f      	cmp	r1, #159	; 0x9f
1000452a:	d900      	bls.n	1000452e <pico_get_unique_board_id_string+0x1a>
1000452c:	e0ab      	b.n	10004686 <pico_get_unique_board_id_string+0x172>
1000452e:	7004      	strb	r4, [r0, #0]
10004530:	2b01      	cmp	r3, #1
10004532:	d100      	bne.n	10004536 <pico_get_unique_board_id_string+0x22>
10004534:	e0c7      	b.n	100046c6 <pico_get_unique_board_id_string+0x1b2>
10004536:	210f      	movs	r1, #15
10004538:	7814      	ldrb	r4, [r2, #0]
1000453a:	4021      	ands	r1, r4
1000453c:	000c      	movs	r4, r1
1000453e:	3430      	adds	r4, #48	; 0x30
10004540:	2909      	cmp	r1, #9
10004542:	dd00      	ble.n	10004546 <pico_get_unique_board_id_string+0x32>
10004544:	e0a1      	b.n	1000468a <pico_get_unique_board_id_string+0x176>
10004546:	7044      	strb	r4, [r0, #1]
10004548:	2b02      	cmp	r3, #2
1000454a:	d100      	bne.n	1000454e <pico_get_unique_board_id_string+0x3a>
1000454c:	e0bb      	b.n	100046c6 <pico_get_unique_board_id_string+0x1b2>
1000454e:	7851      	ldrb	r1, [r2, #1]
10004550:	110d      	asrs	r5, r1, #4
10004552:	002c      	movs	r4, r5
10004554:	3430      	adds	r4, #48	; 0x30
10004556:	299f      	cmp	r1, #159	; 0x9f
10004558:	d900      	bls.n	1000455c <pico_get_unique_board_id_string+0x48>
1000455a:	e099      	b.n	10004690 <pico_get_unique_board_id_string+0x17c>
1000455c:	7084      	strb	r4, [r0, #2]
1000455e:	2b03      	cmp	r3, #3
10004560:	d100      	bne.n	10004564 <pico_get_unique_board_id_string+0x50>
10004562:	e0b0      	b.n	100046c6 <pico_get_unique_board_id_string+0x1b2>
10004564:	210f      	movs	r1, #15
10004566:	7854      	ldrb	r4, [r2, #1]
10004568:	4021      	ands	r1, r4
1000456a:	000c      	movs	r4, r1
1000456c:	3430      	adds	r4, #48	; 0x30
1000456e:	2909      	cmp	r1, #9
10004570:	dd00      	ble.n	10004574 <pico_get_unique_board_id_string+0x60>
10004572:	e08f      	b.n	10004694 <pico_get_unique_board_id_string+0x180>
10004574:	70c4      	strb	r4, [r0, #3]
10004576:	2b04      	cmp	r3, #4
10004578:	d100      	bne.n	1000457c <pico_get_unique_board_id_string+0x68>
1000457a:	e0a4      	b.n	100046c6 <pico_get_unique_board_id_string+0x1b2>
1000457c:	7891      	ldrb	r1, [r2, #2]
1000457e:	110d      	asrs	r5, r1, #4
10004580:	002c      	movs	r4, r5
10004582:	3430      	adds	r4, #48	; 0x30
10004584:	299f      	cmp	r1, #159	; 0x9f
10004586:	d900      	bls.n	1000458a <pico_get_unique_board_id_string+0x76>
10004588:	e087      	b.n	1000469a <pico_get_unique_board_id_string+0x186>
1000458a:	7104      	strb	r4, [r0, #4]
1000458c:	2b05      	cmp	r3, #5
1000458e:	d100      	bne.n	10004592 <pico_get_unique_board_id_string+0x7e>
10004590:	e099      	b.n	100046c6 <pico_get_unique_board_id_string+0x1b2>
10004592:	210f      	movs	r1, #15
10004594:	7894      	ldrb	r4, [r2, #2]
10004596:	4021      	ands	r1, r4
10004598:	000c      	movs	r4, r1
1000459a:	3430      	adds	r4, #48	; 0x30
1000459c:	2909      	cmp	r1, #9
1000459e:	dd00      	ble.n	100045a2 <pico_get_unique_board_id_string+0x8e>
100045a0:	e07d      	b.n	1000469e <pico_get_unique_board_id_string+0x18a>
100045a2:	7144      	strb	r4, [r0, #5]
100045a4:	2b06      	cmp	r3, #6
100045a6:	d100      	bne.n	100045aa <pico_get_unique_board_id_string+0x96>
100045a8:	e08d      	b.n	100046c6 <pico_get_unique_board_id_string+0x1b2>
100045aa:	78d1      	ldrb	r1, [r2, #3]
100045ac:	110d      	asrs	r5, r1, #4
100045ae:	002c      	movs	r4, r5
100045b0:	3430      	adds	r4, #48	; 0x30
100045b2:	299f      	cmp	r1, #159	; 0x9f
100045b4:	d900      	bls.n	100045b8 <pico_get_unique_board_id_string+0xa4>
100045b6:	e075      	b.n	100046a4 <pico_get_unique_board_id_string+0x190>
100045b8:	7184      	strb	r4, [r0, #6]
100045ba:	2b07      	cmp	r3, #7
100045bc:	d100      	bne.n	100045c0 <pico_get_unique_board_id_string+0xac>
100045be:	e082      	b.n	100046c6 <pico_get_unique_board_id_string+0x1b2>
100045c0:	210f      	movs	r1, #15
100045c2:	78d4      	ldrb	r4, [r2, #3]
100045c4:	4021      	ands	r1, r4
100045c6:	000c      	movs	r4, r1
100045c8:	3430      	adds	r4, #48	; 0x30
100045ca:	2909      	cmp	r1, #9
100045cc:	dd00      	ble.n	100045d0 <pico_get_unique_board_id_string+0xbc>
100045ce:	e06b      	b.n	100046a8 <pico_get_unique_board_id_string+0x194>
100045d0:	71c4      	strb	r4, [r0, #7]
100045d2:	2b08      	cmp	r3, #8
100045d4:	d100      	bne.n	100045d8 <pico_get_unique_board_id_string+0xc4>
100045d6:	e076      	b.n	100046c6 <pico_get_unique_board_id_string+0x1b2>
100045d8:	7911      	ldrb	r1, [r2, #4]
100045da:	110d      	asrs	r5, r1, #4
100045dc:	002c      	movs	r4, r5
100045de:	3430      	adds	r4, #48	; 0x30
100045e0:	299f      	cmp	r1, #159	; 0x9f
100045e2:	d864      	bhi.n	100046ae <pico_get_unique_board_id_string+0x19a>
100045e4:	7204      	strb	r4, [r0, #8]
100045e6:	2b09      	cmp	r3, #9
100045e8:	d100      	bne.n	100045ec <pico_get_unique_board_id_string+0xd8>
100045ea:	e06c      	b.n	100046c6 <pico_get_unique_board_id_string+0x1b2>
100045ec:	210f      	movs	r1, #15
100045ee:	7914      	ldrb	r4, [r2, #4]
100045f0:	4021      	ands	r1, r4
100045f2:	000c      	movs	r4, r1
100045f4:	3430      	adds	r4, #48	; 0x30
100045f6:	2909      	cmp	r1, #9
100045f8:	dc5b      	bgt.n	100046b2 <pico_get_unique_board_id_string+0x19e>
100045fa:	7244      	strb	r4, [r0, #9]
100045fc:	2b0a      	cmp	r3, #10
100045fe:	d062      	beq.n	100046c6 <pico_get_unique_board_id_string+0x1b2>
10004600:	7951      	ldrb	r1, [r2, #5]
10004602:	110d      	asrs	r5, r1, #4
10004604:	002c      	movs	r4, r5
10004606:	3430      	adds	r4, #48	; 0x30
10004608:	299f      	cmp	r1, #159	; 0x9f
1000460a:	d855      	bhi.n	100046b8 <pico_get_unique_board_id_string+0x1a4>
1000460c:	7284      	strb	r4, [r0, #10]
1000460e:	2b0b      	cmp	r3, #11
10004610:	d059      	beq.n	100046c6 <pico_get_unique_board_id_string+0x1b2>
10004612:	210f      	movs	r1, #15
10004614:	7954      	ldrb	r4, [r2, #5]
10004616:	4021      	ands	r1, r4
10004618:	000c      	movs	r4, r1
1000461a:	3430      	adds	r4, #48	; 0x30
1000461c:	2909      	cmp	r1, #9
1000461e:	dc4d      	bgt.n	100046bc <pico_get_unique_board_id_string+0x1a8>
10004620:	72c4      	strb	r4, [r0, #11]
10004622:	2b0c      	cmp	r3, #12
10004624:	d04f      	beq.n	100046c6 <pico_get_unique_board_id_string+0x1b2>
10004626:	7991      	ldrb	r1, [r2, #6]
10004628:	110d      	asrs	r5, r1, #4
1000462a:	002c      	movs	r4, r5
1000462c:	3430      	adds	r4, #48	; 0x30
1000462e:	299f      	cmp	r1, #159	; 0x9f
10004630:	d900      	bls.n	10004634 <pico_get_unique_board_id_string+0x120>
10004632:	3407      	adds	r4, #7
10004634:	7304      	strb	r4, [r0, #12]
10004636:	2b0d      	cmp	r3, #13
10004638:	d045      	beq.n	100046c6 <pico_get_unique_board_id_string+0x1b2>
1000463a:	210f      	movs	r1, #15
1000463c:	7994      	ldrb	r4, [r2, #6]
1000463e:	4021      	ands	r1, r4
10004640:	000c      	movs	r4, r1
10004642:	3430      	adds	r4, #48	; 0x30
10004644:	2909      	cmp	r1, #9
10004646:	dd01      	ble.n	1000464c <pico_get_unique_board_id_string+0x138>
10004648:	3137      	adds	r1, #55	; 0x37
1000464a:	000c      	movs	r4, r1
1000464c:	7344      	strb	r4, [r0, #13]
1000464e:	2b0e      	cmp	r3, #14
10004650:	d039      	beq.n	100046c6 <pico_get_unique_board_id_string+0x1b2>
10004652:	79d1      	ldrb	r1, [r2, #7]
10004654:	110d      	asrs	r5, r1, #4
10004656:	002c      	movs	r4, r5
10004658:	3430      	adds	r4, #48	; 0x30
1000465a:	299f      	cmp	r1, #159	; 0x9f
1000465c:	d900      	bls.n	10004660 <pico_get_unique_board_id_string+0x14c>
1000465e:	3407      	adds	r4, #7
10004660:	7384      	strb	r4, [r0, #14]
10004662:	2b0f      	cmp	r3, #15
10004664:	d02f      	beq.n	100046c6 <pico_get_unique_board_id_string+0x1b2>
10004666:	79d1      	ldrb	r1, [r2, #7]
10004668:	220f      	movs	r2, #15
1000466a:	400a      	ands	r2, r1
1000466c:	0011      	movs	r1, r2
1000466e:	3137      	adds	r1, #55	; 0x37
10004670:	2a09      	cmp	r2, #9
10004672:	dc01      	bgt.n	10004678 <pico_get_unique_board_id_string+0x164>
10004674:	3230      	adds	r2, #48	; 0x30
10004676:	0011      	movs	r1, r2
10004678:	73c1      	strb	r1, [r0, #15]
1000467a:	2b10      	cmp	r3, #16
1000467c:	d023      	beq.n	100046c6 <pico_get_unique_board_id_string+0x1b2>
1000467e:	3010      	adds	r0, #16
10004680:	2300      	movs	r3, #0
10004682:	7003      	strb	r3, [r0, #0]
10004684:	bd30      	pop	{r4, r5, pc}
10004686:	3407      	adds	r4, #7
10004688:	e751      	b.n	1000452e <pico_get_unique_board_id_string+0x1a>
1000468a:	3137      	adds	r1, #55	; 0x37
1000468c:	000c      	movs	r4, r1
1000468e:	e75a      	b.n	10004546 <pico_get_unique_board_id_string+0x32>
10004690:	3407      	adds	r4, #7
10004692:	e763      	b.n	1000455c <pico_get_unique_board_id_string+0x48>
10004694:	3137      	adds	r1, #55	; 0x37
10004696:	000c      	movs	r4, r1
10004698:	e76c      	b.n	10004574 <pico_get_unique_board_id_string+0x60>
1000469a:	3407      	adds	r4, #7
1000469c:	e775      	b.n	1000458a <pico_get_unique_board_id_string+0x76>
1000469e:	3137      	adds	r1, #55	; 0x37
100046a0:	000c      	movs	r4, r1
100046a2:	e77e      	b.n	100045a2 <pico_get_unique_board_id_string+0x8e>
100046a4:	3407      	adds	r4, #7
100046a6:	e787      	b.n	100045b8 <pico_get_unique_board_id_string+0xa4>
100046a8:	3137      	adds	r1, #55	; 0x37
100046aa:	000c      	movs	r4, r1
100046ac:	e790      	b.n	100045d0 <pico_get_unique_board_id_string+0xbc>
100046ae:	3407      	adds	r4, #7
100046b0:	e798      	b.n	100045e4 <pico_get_unique_board_id_string+0xd0>
100046b2:	3137      	adds	r1, #55	; 0x37
100046b4:	000c      	movs	r4, r1
100046b6:	e7a0      	b.n	100045fa <pico_get_unique_board_id_string+0xe6>
100046b8:	3407      	adds	r4, #7
100046ba:	e7a7      	b.n	1000460c <pico_get_unique_board_id_string+0xf8>
100046bc:	3137      	adds	r1, #55	; 0x37
100046be:	000c      	movs	r4, r1
100046c0:	72c4      	strb	r4, [r0, #11]
100046c2:	2b0c      	cmp	r3, #12
100046c4:	d1af      	bne.n	10004626 <pico_get_unique_board_id_string+0x112>
100046c6:	18c0      	adds	r0, r0, r3
100046c8:	e7da      	b.n	10004680 <pico_get_unique_board_id_string+0x16c>
100046ca:	46c0      	nop			; (mov r8, r8)
100046cc:	20001914 	.word	0x20001914

100046d0 <flash_get_unique_id>:
100046d0:	b530      	push	{r4, r5, lr}
100046d2:	2500      	movs	r5, #0
100046d4:	b089      	sub	sp, #36	; 0x24
100046d6:	0004      	movs	r4, r0
100046d8:	2209      	movs	r2, #9
100046da:	2100      	movs	r1, #0
100046dc:	a801      	add	r0, sp, #4
100046de:	9500      	str	r5, [sp, #0]
100046e0:	f7fd fc10 	bl	10001f04 <__wrap_memset>
100046e4:	2209      	movs	r2, #9
100046e6:	2100      	movs	r1, #0
100046e8:	a805      	add	r0, sp, #20
100046ea:	9504      	str	r5, [sp, #16]
100046ec:	f7fd fc0a 	bl	10001f04 <__wrap_memset>
100046f0:	234b      	movs	r3, #75	; 0x4b
100046f2:	466a      	mov	r2, sp
100046f4:	4668      	mov	r0, sp
100046f6:	7013      	strb	r3, [r2, #0]
100046f8:	a904      	add	r1, sp, #16
100046fa:	220d      	movs	r2, #13
100046fc:	f003 fbbc 	bl	10007e78 <__flash_do_cmd_veneer>
10004700:	2115      	movs	r1, #21
10004702:	2208      	movs	r2, #8
10004704:	0020      	movs	r0, r4
10004706:	4469      	add	r1, sp
10004708:	f7fd fc02 	bl	10001f10 <__wrap___aeabi_memcpy>
1000470c:	b009      	add	sp, #36	; 0x24
1000470e:	bd30      	pop	{r4, r5, pc}

10004710 <xQueueGenericReset>:
10004710:	b570      	push	{r4, r5, r6, lr}
10004712:	0004      	movs	r4, r0
10004714:	000d      	movs	r5, r1
10004716:	2800      	cmp	r0, #0
10004718:	d032      	beq.n	10004780 <xQueueGenericReset+0x70>
1000471a:	6bc3      	ldr	r3, [r0, #60]	; 0x3c
1000471c:	2000      	movs	r0, #0
1000471e:	2b00      	cmp	r3, #0
10004720:	d020      	beq.n	10004764 <xQueueGenericReset+0x54>
10004722:	6c21      	ldr	r1, [r4, #64]	; 0x40
10004724:	0c18      	lsrs	r0, r3, #16
10004726:	0c0a      	lsrs	r2, r1, #16
10004728:	d11d      	bne.n	10004766 <xQueueGenericReset+0x56>
1000472a:	2800      	cmp	r0, #0
1000472c:	d12a      	bne.n	10004784 <xQueueGenericReset+0x74>
1000472e:	f002 fe91 	bl	10007454 <vPortEnterCritical>
10004732:	6c21      	ldr	r1, [r4, #64]	; 0x40
10004734:	6be3      	ldr	r3, [r4, #60]	; 0x3c
10004736:	6822      	ldr	r2, [r4, #0]
10004738:	434b      	muls	r3, r1
1000473a:	18d0      	adds	r0, r2, r3
1000473c:	1a5b      	subs	r3, r3, r1
1000473e:	18d3      	adds	r3, r2, r3
10004740:	60a0      	str	r0, [r4, #8]
10004742:	6062      	str	r2, [r4, #4]
10004744:	60e3      	str	r3, [r4, #12]
10004746:	2244      	movs	r2, #68	; 0x44
10004748:	23ff      	movs	r3, #255	; 0xff
1000474a:	2000      	movs	r0, #0
1000474c:	63a0      	str	r0, [r4, #56]	; 0x38
1000474e:	54a3      	strb	r3, [r4, r2]
10004750:	3201      	adds	r2, #1
10004752:	54a3      	strb	r3, [r4, r2]
10004754:	2d00      	cmp	r5, #0
10004756:	d118      	bne.n	1000478a <xQueueGenericReset+0x7a>
10004758:	6923      	ldr	r3, [r4, #16]
1000475a:	2b00      	cmp	r3, #0
1000475c:	d11e      	bne.n	1000479c <xQueueGenericReset+0x8c>
1000475e:	f002 fe85 	bl	1000746c <vPortExitCritical>
10004762:	2001      	movs	r0, #1
10004764:	bd70      	pop	{r4, r5, r6, pc}
10004766:	2800      	cmp	r0, #0
10004768:	d10a      	bne.n	10004780 <xQueueGenericReset+0x70>
1000476a:	1c18      	adds	r0, r3, #0
1000476c:	b289      	uxth	r1, r1
1000476e:	b29b      	uxth	r3, r3
10004770:	434b      	muls	r3, r1
10004772:	b280      	uxth	r0, r0
10004774:	b292      	uxth	r2, r2
10004776:	4342      	muls	r2, r0
10004778:	0c1b      	lsrs	r3, r3, #16
1000477a:	18d3      	adds	r3, r2, r3
1000477c:	0c1b      	lsrs	r3, r3, #16
1000477e:	d0d6      	beq.n	1000472e <xQueueGenericReset+0x1e>
10004780:	2000      	movs	r0, #0
10004782:	e7ef      	b.n	10004764 <xQueueGenericReset+0x54>
10004784:	1c02      	adds	r2, r0, #0
10004786:	1c08      	adds	r0, r1, #0
10004788:	e7f0      	b.n	1000476c <xQueueGenericReset+0x5c>
1000478a:	0020      	movs	r0, r4
1000478c:	3010      	adds	r0, #16
1000478e:	f002 fee9 	bl	10007564 <vListInitialise>
10004792:	0020      	movs	r0, r4
10004794:	3024      	adds	r0, #36	; 0x24
10004796:	f002 fee5 	bl	10007564 <vListInitialise>
1000479a:	e7e0      	b.n	1000475e <xQueueGenericReset+0x4e>
1000479c:	0020      	movs	r0, r4
1000479e:	3010      	adds	r0, #16
100047a0:	f002 f806 	bl	100067b0 <xTaskRemoveFromEventList>
100047a4:	2800      	cmp	r0, #0
100047a6:	d0da      	beq.n	1000475e <xQueueGenericReset+0x4e>
100047a8:	f002 fe48 	bl	1000743c <vPortYield>
100047ac:	e7d7      	b.n	1000475e <xQueueGenericReset+0x4e>
100047ae:	46c0      	nop			; (mov r8, r8)

100047b0 <xQueueGenericCreate>:
100047b0:	b570      	push	{r4, r5, r6, lr}
100047b2:	0005      	movs	r5, r0
100047b4:	000e      	movs	r6, r1
100047b6:	2800      	cmp	r0, #0
100047b8:	d043      	beq.n	10004842 <xQueueGenericCreate+0x92>
100047ba:	0c0b      	lsrs	r3, r1, #16
100047bc:	0c02      	lsrs	r2, r0, #16
100047be:	2b00      	cmp	r3, #0
100047c0:	d131      	bne.n	10004826 <xQueueGenericCreate+0x76>
100047c2:	1c33      	adds	r3, r6, #0
100047c4:	2a00      	cmp	r2, #0
100047c6:	d132      	bne.n	1000482e <xQueueGenericCreate+0x7e>
100047c8:	0030      	movs	r0, r6
100047ca:	4368      	muls	r0, r5
100047cc:	0003      	movs	r3, r0
100047ce:	3349      	adds	r3, #73	; 0x49
100047d0:	d837      	bhi.n	10004842 <xQueueGenericCreate+0x92>
100047d2:	3048      	adds	r0, #72	; 0x48
100047d4:	f002 fde2 	bl	1000739c <pvPortMalloc>
100047d8:	1e04      	subs	r4, r0, #0
100047da:	d032      	beq.n	10004842 <xQueueGenericCreate+0x92>
100047dc:	0003      	movs	r3, r0
100047de:	2e00      	cmp	r6, #0
100047e0:	d000      	beq.n	100047e4 <xQueueGenericCreate+0x34>
100047e2:	3348      	adds	r3, #72	; 0x48
100047e4:	6023      	str	r3, [r4, #0]
100047e6:	63e5      	str	r5, [r4, #60]	; 0x3c
100047e8:	6426      	str	r6, [r4, #64]	; 0x40
100047ea:	f002 fe33 	bl	10007454 <vPortEnterCritical>
100047ee:	6c21      	ldr	r1, [r4, #64]	; 0x40
100047f0:	6be3      	ldr	r3, [r4, #60]	; 0x3c
100047f2:	6822      	ldr	r2, [r4, #0]
100047f4:	434b      	muls	r3, r1
100047f6:	18d0      	adds	r0, r2, r3
100047f8:	60a0      	str	r0, [r4, #8]
100047fa:	2000      	movs	r0, #0
100047fc:	1a5b      	subs	r3, r3, r1
100047fe:	18d3      	adds	r3, r2, r3
10004800:	6062      	str	r2, [r4, #4]
10004802:	60e3      	str	r3, [r4, #12]
10004804:	2244      	movs	r2, #68	; 0x44
10004806:	23ff      	movs	r3, #255	; 0xff
10004808:	63a0      	str	r0, [r4, #56]	; 0x38
1000480a:	0020      	movs	r0, r4
1000480c:	54a3      	strb	r3, [r4, r2]
1000480e:	3201      	adds	r2, #1
10004810:	54a3      	strb	r3, [r4, r2]
10004812:	3010      	adds	r0, #16
10004814:	f002 fea6 	bl	10007564 <vListInitialise>
10004818:	0020      	movs	r0, r4
1000481a:	3024      	adds	r0, #36	; 0x24
1000481c:	f002 fea2 	bl	10007564 <vListInitialise>
10004820:	f002 fe24 	bl	1000746c <vPortExitCritical>
10004824:	e00e      	b.n	10004844 <xQueueGenericCreate+0x94>
10004826:	2a00      	cmp	r2, #0
10004828:	d10b      	bne.n	10004842 <xQueueGenericCreate+0x92>
1000482a:	1c1a      	adds	r2, r3, #0
1000482c:	1c03      	adds	r3, r0, #0
1000482e:	b2b0      	uxth	r0, r6
10004830:	b2a9      	uxth	r1, r5
10004832:	4341      	muls	r1, r0
10004834:	b298      	uxth	r0, r3
10004836:	b293      	uxth	r3, r2
10004838:	4343      	muls	r3, r0
1000483a:	0c09      	lsrs	r1, r1, #16
1000483c:	185b      	adds	r3, r3, r1
1000483e:	0c1b      	lsrs	r3, r3, #16
10004840:	d0c2      	beq.n	100047c8 <xQueueGenericCreate+0x18>
10004842:	2400      	movs	r4, #0
10004844:	0020      	movs	r0, r4
10004846:	bd70      	pop	{r4, r5, r6, pc}

10004848 <xQueueGenericSend>:
10004848:	b5f0      	push	{r4, r5, r6, r7, lr}
1000484a:	46d6      	mov	lr, sl
1000484c:	4646      	mov	r6, r8
1000484e:	464f      	mov	r7, r9
10004850:	0004      	movs	r4, r0
10004852:	b5c0      	push	{r6, r7, lr}
10004854:	0006      	movs	r6, r0
10004856:	b084      	sub	sp, #16
10004858:	469a      	mov	sl, r3
1000485a:	9201      	str	r2, [sp, #4]
1000485c:	4688      	mov	r8, r1
1000485e:	f002 fdf9 	bl	10007454 <vPortEnterCritical>
10004862:	6ba3      	ldr	r3, [r4, #56]	; 0x38
10004864:	6be2      	ldr	r2, [r4, #60]	; 0x3c
10004866:	2500      	movs	r5, #0
10004868:	3624      	adds	r6, #36	; 0x24
1000486a:	4293      	cmp	r3, r2
1000486c:	d37d      	bcc.n	1000496a <xQueueGenericSend+0x122>
1000486e:	4653      	mov	r3, sl
10004870:	2b02      	cmp	r3, #2
10004872:	d100      	bne.n	10004876 <xQueueGenericSend+0x2e>
10004874:	e0e3      	b.n	10004a3e <xQueueGenericSend+0x1f6>
10004876:	9b01      	ldr	r3, [sp, #4]
10004878:	2b00      	cmp	r3, #0
1000487a:	d100      	bne.n	1000487e <xQueueGenericSend+0x36>
1000487c:	e0fb      	b.n	10004a76 <xQueueGenericSend+0x22e>
1000487e:	2d00      	cmp	r5, #0
10004880:	d100      	bne.n	10004884 <xQueueGenericSend+0x3c>
10004882:	e0d8      	b.n	10004a36 <xQueueGenericSend+0x1ee>
10004884:	f002 fdf2 	bl	1000746c <vPortExitCritical>
10004888:	f001 fd18 	bl	100062bc <vTaskSuspendAll>
1000488c:	f002 fde2 	bl	10007454 <vPortEnterCritical>
10004890:	2244      	movs	r2, #68	; 0x44
10004892:	5ca3      	ldrb	r3, [r4, r2]
10004894:	b25b      	sxtb	r3, r3
10004896:	3301      	adds	r3, #1
10004898:	d101      	bne.n	1000489e <xQueueGenericSend+0x56>
1000489a:	2300      	movs	r3, #0
1000489c:	54a3      	strb	r3, [r4, r2]
1000489e:	2245      	movs	r2, #69	; 0x45
100048a0:	5ca3      	ldrb	r3, [r4, r2]
100048a2:	b25b      	sxtb	r3, r3
100048a4:	3301      	adds	r3, #1
100048a6:	d101      	bne.n	100048ac <xQueueGenericSend+0x64>
100048a8:	2300      	movs	r3, #0
100048aa:	54a3      	strb	r3, [r4, r2]
100048ac:	f002 fdde 	bl	1000746c <vPortExitCritical>
100048b0:	a901      	add	r1, sp, #4
100048b2:	a802      	add	r0, sp, #8
100048b4:	f002 f840 	bl	10006938 <xTaskCheckForTimeOut>
100048b8:	2800      	cmp	r0, #0
100048ba:	d000      	beq.n	100048be <xQueueGenericSend+0x76>
100048bc:	e0df      	b.n	10004a7e <xQueueGenericSend+0x236>
100048be:	f002 fdc9 	bl	10007454 <vPortEnterCritical>
100048c2:	6ba3      	ldr	r3, [r4, #56]	; 0x38
100048c4:	6be2      	ldr	r2, [r4, #60]	; 0x3c
100048c6:	4293      	cmp	r3, r2
100048c8:	d063      	beq.n	10004992 <xQueueGenericSend+0x14a>
100048ca:	f002 fdcf 	bl	1000746c <vPortExitCritical>
100048ce:	f002 fdc1 	bl	10007454 <vPortEnterCritical>
100048d2:	2345      	movs	r3, #69	; 0x45
100048d4:	5ce5      	ldrb	r5, [r4, r3]
100048d6:	b26d      	sxtb	r5, r5
100048d8:	2d00      	cmp	r5, #0
100048da:	dc05      	bgt.n	100048e8 <xQueueGenericSend+0xa0>
100048dc:	e013      	b.n	10004906 <xQueueGenericSend+0xbe>
100048de:	3d01      	subs	r5, #1
100048e0:	b2eb      	uxtb	r3, r5
100048e2:	b26d      	sxtb	r5, r5
100048e4:	2b00      	cmp	r3, #0
100048e6:	d00e      	beq.n	10004906 <xQueueGenericSend+0xbe>
100048e8:	6a63      	ldr	r3, [r4, #36]	; 0x24
100048ea:	2b00      	cmp	r3, #0
100048ec:	d00b      	beq.n	10004906 <xQueueGenericSend+0xbe>
100048ee:	0030      	movs	r0, r6
100048f0:	f001 ff5e 	bl	100067b0 <xTaskRemoveFromEventList>
100048f4:	2800      	cmp	r0, #0
100048f6:	d0f2      	beq.n	100048de <xQueueGenericSend+0x96>
100048f8:	3d01      	subs	r5, #1
100048fa:	f002 f845 	bl	10006988 <vTaskMissedYield>
100048fe:	b2eb      	uxtb	r3, r5
10004900:	b26d      	sxtb	r5, r5
10004902:	2b00      	cmp	r3, #0
10004904:	d1f0      	bne.n	100048e8 <xQueueGenericSend+0xa0>
10004906:	2345      	movs	r3, #69	; 0x45
10004908:	22ff      	movs	r2, #255	; 0xff
1000490a:	54e2      	strb	r2, [r4, r3]
1000490c:	f002 fdae 	bl	1000746c <vPortExitCritical>
10004910:	f002 fda0 	bl	10007454 <vPortEnterCritical>
10004914:	2344      	movs	r3, #68	; 0x44
10004916:	5ce5      	ldrb	r5, [r4, r3]
10004918:	3b34      	subs	r3, #52	; 0x34
1000491a:	4699      	mov	r9, r3
1000491c:	b26d      	sxtb	r5, r5
1000491e:	44a1      	add	r9, r4
10004920:	2d00      	cmp	r5, #0
10004922:	dc05      	bgt.n	10004930 <xQueueGenericSend+0xe8>
10004924:	e013      	b.n	1000494e <xQueueGenericSend+0x106>
10004926:	3d01      	subs	r5, #1
10004928:	b2eb      	uxtb	r3, r5
1000492a:	b26d      	sxtb	r5, r5
1000492c:	2b00      	cmp	r3, #0
1000492e:	d00e      	beq.n	1000494e <xQueueGenericSend+0x106>
10004930:	6923      	ldr	r3, [r4, #16]
10004932:	2b00      	cmp	r3, #0
10004934:	d00b      	beq.n	1000494e <xQueueGenericSend+0x106>
10004936:	4648      	mov	r0, r9
10004938:	f001 ff3a 	bl	100067b0 <xTaskRemoveFromEventList>
1000493c:	2800      	cmp	r0, #0
1000493e:	d0f2      	beq.n	10004926 <xQueueGenericSend+0xde>
10004940:	3d01      	subs	r5, #1
10004942:	f002 f821 	bl	10006988 <vTaskMissedYield>
10004946:	b2eb      	uxtb	r3, r5
10004948:	b26d      	sxtb	r5, r5
1000494a:	2b00      	cmp	r3, #0
1000494c:	d1f0      	bne.n	10004930 <xQueueGenericSend+0xe8>
1000494e:	2344      	movs	r3, #68	; 0x44
10004950:	22ff      	movs	r2, #255	; 0xff
10004952:	54e2      	strb	r2, [r4, r3]
10004954:	f002 fd8a 	bl	1000746c <vPortExitCritical>
10004958:	f001 fcb8 	bl	100062cc <xTaskResumeAll>
1000495c:	2501      	movs	r5, #1
1000495e:	f002 fd79 	bl	10007454 <vPortEnterCritical>
10004962:	6ba3      	ldr	r3, [r4, #56]	; 0x38
10004964:	6be2      	ldr	r2, [r4, #60]	; 0x3c
10004966:	4293      	cmp	r3, r2
10004968:	d281      	bcs.n	1000486e <xQueueGenericSend+0x26>
1000496a:	6c22      	ldr	r2, [r4, #64]	; 0x40
1000496c:	6ba5      	ldr	r5, [r4, #56]	; 0x38
1000496e:	2a00      	cmp	r2, #0
10004970:	d000      	beq.n	10004974 <xQueueGenericSend+0x12c>
10004972:	e0ce      	b.n	10004b12 <xQueueGenericSend+0x2ca>
10004974:	3501      	adds	r5, #1
10004976:	63a5      	str	r5, [r4, #56]	; 0x38
10004978:	6a63      	ldr	r3, [r4, #36]	; 0x24
1000497a:	2b00      	cmp	r3, #0
1000497c:	d000      	beq.n	10004980 <xQueueGenericSend+0x138>
1000497e:	e0dc      	b.n	10004b3a <xQueueGenericSend+0x2f2>
10004980:	f002 fd74 	bl	1000746c <vPortExitCritical>
10004984:	2001      	movs	r0, #1
10004986:	b004      	add	sp, #16
10004988:	bc1c      	pop	{r2, r3, r4}
1000498a:	4690      	mov	r8, r2
1000498c:	4699      	mov	r9, r3
1000498e:	46a2      	mov	sl, r4
10004990:	bdf0      	pop	{r4, r5, r6, r7, pc}
10004992:	0027      	movs	r7, r4
10004994:	3710      	adds	r7, #16
10004996:	f002 fd69 	bl	1000746c <vPortExitCritical>
1000499a:	0038      	movs	r0, r7
1000499c:	9901      	ldr	r1, [sp, #4]
1000499e:	f001 fe31 	bl	10006604 <vTaskPlaceOnEventList>
100049a2:	f002 fd57 	bl	10007454 <vPortEnterCritical>
100049a6:	2345      	movs	r3, #69	; 0x45
100049a8:	5ce5      	ldrb	r5, [r4, r3]
100049aa:	b26d      	sxtb	r5, r5
100049ac:	2d00      	cmp	r5, #0
100049ae:	dc05      	bgt.n	100049bc <xQueueGenericSend+0x174>
100049b0:	e013      	b.n	100049da <xQueueGenericSend+0x192>
100049b2:	3d01      	subs	r5, #1
100049b4:	b2ea      	uxtb	r2, r5
100049b6:	b26d      	sxtb	r5, r5
100049b8:	2a00      	cmp	r2, #0
100049ba:	d00e      	beq.n	100049da <xQueueGenericSend+0x192>
100049bc:	6a63      	ldr	r3, [r4, #36]	; 0x24
100049be:	2b00      	cmp	r3, #0
100049c0:	d00b      	beq.n	100049da <xQueueGenericSend+0x192>
100049c2:	0030      	movs	r0, r6
100049c4:	f001 fef4 	bl	100067b0 <xTaskRemoveFromEventList>
100049c8:	2800      	cmp	r0, #0
100049ca:	d0f2      	beq.n	100049b2 <xQueueGenericSend+0x16a>
100049cc:	3d01      	subs	r5, #1
100049ce:	f001 ffdb 	bl	10006988 <vTaskMissedYield>
100049d2:	b2ea      	uxtb	r2, r5
100049d4:	b26d      	sxtb	r5, r5
100049d6:	2a00      	cmp	r2, #0
100049d8:	d1f0      	bne.n	100049bc <xQueueGenericSend+0x174>
100049da:	2345      	movs	r3, #69	; 0x45
100049dc:	22ff      	movs	r2, #255	; 0xff
100049de:	54e2      	strb	r2, [r4, r3]
100049e0:	f002 fd44 	bl	1000746c <vPortExitCritical>
100049e4:	f002 fd36 	bl	10007454 <vPortEnterCritical>
100049e8:	2344      	movs	r3, #68	; 0x44
100049ea:	5ce5      	ldrb	r5, [r4, r3]
100049ec:	b26d      	sxtb	r5, r5
100049ee:	2d00      	cmp	r5, #0
100049f0:	dc05      	bgt.n	100049fe <xQueueGenericSend+0x1b6>
100049f2:	e013      	b.n	10004a1c <xQueueGenericSend+0x1d4>
100049f4:	3d01      	subs	r5, #1
100049f6:	b2ea      	uxtb	r2, r5
100049f8:	b26d      	sxtb	r5, r5
100049fa:	2a00      	cmp	r2, #0
100049fc:	d00e      	beq.n	10004a1c <xQueueGenericSend+0x1d4>
100049fe:	6923      	ldr	r3, [r4, #16]
10004a00:	2b00      	cmp	r3, #0
10004a02:	d00b      	beq.n	10004a1c <xQueueGenericSend+0x1d4>
10004a04:	0038      	movs	r0, r7
10004a06:	f001 fed3 	bl	100067b0 <xTaskRemoveFromEventList>
10004a0a:	2800      	cmp	r0, #0
10004a0c:	d0f2      	beq.n	100049f4 <xQueueGenericSend+0x1ac>
10004a0e:	3d01      	subs	r5, #1
10004a10:	f001 ffba 	bl	10006988 <vTaskMissedYield>
10004a14:	b2ea      	uxtb	r2, r5
10004a16:	b26d      	sxtb	r5, r5
10004a18:	2a00      	cmp	r2, #0
10004a1a:	d1f0      	bne.n	100049fe <xQueueGenericSend+0x1b6>
10004a1c:	2344      	movs	r3, #68	; 0x44
10004a1e:	22ff      	movs	r2, #255	; 0xff
10004a20:	54e2      	strb	r2, [r4, r3]
10004a22:	f002 fd23 	bl	1000746c <vPortExitCritical>
10004a26:	f001 fc51 	bl	100062cc <xTaskResumeAll>
10004a2a:	2800      	cmp	r0, #0
10004a2c:	d196      	bne.n	1000495c <xQueueGenericSend+0x114>
10004a2e:	f002 fd05 	bl	1000743c <vPortYield>
10004a32:	2501      	movs	r5, #1
10004a34:	e793      	b.n	1000495e <xQueueGenericSend+0x116>
10004a36:	a802      	add	r0, sp, #8
10004a38:	f001 ff76 	bl	10006928 <vTaskInternalSetTimeOutState>
10004a3c:	e722      	b.n	10004884 <xQueueGenericSend+0x3c>
10004a3e:	6c22      	ldr	r2, [r4, #64]	; 0x40
10004a40:	6ba5      	ldr	r5, [r4, #56]	; 0x38
10004a42:	2a00      	cmp	r2, #0
10004a44:	d096      	beq.n	10004974 <xQueueGenericSend+0x12c>
10004a46:	4641      	mov	r1, r8
10004a48:	68e0      	ldr	r0, [r4, #12]
10004a4a:	f7fd fa61 	bl	10001f10 <__wrap___aeabi_memcpy>
10004a4e:	68e1      	ldr	r1, [r4, #12]
10004a50:	6c23      	ldr	r3, [r4, #64]	; 0x40
10004a52:	425a      	negs	r2, r3
10004a54:	1acb      	subs	r3, r1, r3
10004a56:	6821      	ldr	r1, [r4, #0]
10004a58:	60e3      	str	r3, [r4, #12]
10004a5a:	428b      	cmp	r3, r1
10004a5c:	d207      	bcs.n	10004a6e <xQueueGenericSend+0x226>
10004a5e:	68a3      	ldr	r3, [r4, #8]
10004a60:	469c      	mov	ip, r3
10004a62:	4462      	add	r2, ip
10004a64:	60e2      	str	r2, [r4, #12]
10004a66:	4653      	mov	r3, sl
10004a68:	2b02      	cmp	r3, #2
10004a6a:	d000      	beq.n	10004a6e <xQueueGenericSend+0x226>
10004a6c:	e782      	b.n	10004974 <xQueueGenericSend+0x12c>
10004a6e:	2d00      	cmp	r5, #0
10004a70:	d000      	beq.n	10004a74 <xQueueGenericSend+0x22c>
10004a72:	e780      	b.n	10004976 <xQueueGenericSend+0x12e>
10004a74:	e77e      	b.n	10004974 <xQueueGenericSend+0x12c>
10004a76:	f002 fcf9 	bl	1000746c <vPortExitCritical>
10004a7a:	2000      	movs	r0, #0
10004a7c:	e783      	b.n	10004986 <xQueueGenericSend+0x13e>
10004a7e:	f002 fce9 	bl	10007454 <vPortEnterCritical>
10004a82:	2345      	movs	r3, #69	; 0x45
10004a84:	0026      	movs	r6, r4
10004a86:	5ce5      	ldrb	r5, [r4, r3]
10004a88:	3624      	adds	r6, #36	; 0x24
10004a8a:	b26d      	sxtb	r5, r5
10004a8c:	2d00      	cmp	r5, #0
10004a8e:	dc05      	bgt.n	10004a9c <xQueueGenericSend+0x254>
10004a90:	e013      	b.n	10004aba <xQueueGenericSend+0x272>
10004a92:	3d01      	subs	r5, #1
10004a94:	b2ea      	uxtb	r2, r5
10004a96:	b26d      	sxtb	r5, r5
10004a98:	2a00      	cmp	r2, #0
10004a9a:	d00e      	beq.n	10004aba <xQueueGenericSend+0x272>
10004a9c:	6a63      	ldr	r3, [r4, #36]	; 0x24
10004a9e:	2b00      	cmp	r3, #0
10004aa0:	d00b      	beq.n	10004aba <xQueueGenericSend+0x272>
10004aa2:	0030      	movs	r0, r6
10004aa4:	f001 fe84 	bl	100067b0 <xTaskRemoveFromEventList>
10004aa8:	2800      	cmp	r0, #0
10004aaa:	d0f2      	beq.n	10004a92 <xQueueGenericSend+0x24a>
10004aac:	3d01      	subs	r5, #1
10004aae:	f001 ff6b 	bl	10006988 <vTaskMissedYield>
10004ab2:	b2ea      	uxtb	r2, r5
10004ab4:	b26d      	sxtb	r5, r5
10004ab6:	2a00      	cmp	r2, #0
10004ab8:	d1f0      	bne.n	10004a9c <xQueueGenericSend+0x254>
10004aba:	2345      	movs	r3, #69	; 0x45
10004abc:	22ff      	movs	r2, #255	; 0xff
10004abe:	54e2      	strb	r2, [r4, r3]
10004ac0:	f002 fcd4 	bl	1000746c <vPortExitCritical>
10004ac4:	f002 fcc6 	bl	10007454 <vPortEnterCritical>
10004ac8:	2344      	movs	r3, #68	; 0x44
10004aca:	0026      	movs	r6, r4
10004acc:	5ce5      	ldrb	r5, [r4, r3]
10004ace:	3610      	adds	r6, #16
10004ad0:	b26d      	sxtb	r5, r5
10004ad2:	2d00      	cmp	r5, #0
10004ad4:	dc05      	bgt.n	10004ae2 <xQueueGenericSend+0x29a>
10004ad6:	e013      	b.n	10004b00 <xQueueGenericSend+0x2b8>
10004ad8:	3d01      	subs	r5, #1
10004ada:	b2ea      	uxtb	r2, r5
10004adc:	b26d      	sxtb	r5, r5
10004ade:	2a00      	cmp	r2, #0
10004ae0:	d00e      	beq.n	10004b00 <xQueueGenericSend+0x2b8>
10004ae2:	6923      	ldr	r3, [r4, #16]
10004ae4:	2b00      	cmp	r3, #0
10004ae6:	d00b      	beq.n	10004b00 <xQueueGenericSend+0x2b8>
10004ae8:	0030      	movs	r0, r6
10004aea:	f001 fe61 	bl	100067b0 <xTaskRemoveFromEventList>
10004aee:	2800      	cmp	r0, #0
10004af0:	d0f2      	beq.n	10004ad8 <xQueueGenericSend+0x290>
10004af2:	3d01      	subs	r5, #1
10004af4:	f001 ff48 	bl	10006988 <vTaskMissedYield>
10004af8:	b2ea      	uxtb	r2, r5
10004afa:	b26d      	sxtb	r5, r5
10004afc:	2a00      	cmp	r2, #0
10004afe:	d1f0      	bne.n	10004ae2 <xQueueGenericSend+0x29a>
10004b00:	2344      	movs	r3, #68	; 0x44
10004b02:	22ff      	movs	r2, #255	; 0xff
10004b04:	54e2      	strb	r2, [r4, r3]
10004b06:	f002 fcb1 	bl	1000746c <vPortExitCritical>
10004b0a:	f001 fbdf 	bl	100062cc <xTaskResumeAll>
10004b0e:	2000      	movs	r0, #0
10004b10:	e739      	b.n	10004986 <xQueueGenericSend+0x13e>
10004b12:	4653      	mov	r3, sl
10004b14:	4641      	mov	r1, r8
10004b16:	2b00      	cmp	r3, #0
10004b18:	d119      	bne.n	10004b4e <xQueueGenericSend+0x306>
10004b1a:	6860      	ldr	r0, [r4, #4]
10004b1c:	f7fd f9f8 	bl	10001f10 <__wrap___aeabi_memcpy>
10004b20:	6c22      	ldr	r2, [r4, #64]	; 0x40
10004b22:	6863      	ldr	r3, [r4, #4]
10004b24:	4694      	mov	ip, r2
10004b26:	68a2      	ldr	r2, [r4, #8]
10004b28:	4463      	add	r3, ip
10004b2a:	6063      	str	r3, [r4, #4]
10004b2c:	4293      	cmp	r3, r2
10004b2e:	d200      	bcs.n	10004b32 <xQueueGenericSend+0x2ea>
10004b30:	e720      	b.n	10004974 <xQueueGenericSend+0x12c>
10004b32:	6823      	ldr	r3, [r4, #0]
10004b34:	3501      	adds	r5, #1
10004b36:	6063      	str	r3, [r4, #4]
10004b38:	e71d      	b.n	10004976 <xQueueGenericSend+0x12e>
10004b3a:	0020      	movs	r0, r4
10004b3c:	3024      	adds	r0, #36	; 0x24
10004b3e:	f001 fe37 	bl	100067b0 <xTaskRemoveFromEventList>
10004b42:	2800      	cmp	r0, #0
10004b44:	d100      	bne.n	10004b48 <xQueueGenericSend+0x300>
10004b46:	e71b      	b.n	10004980 <xQueueGenericSend+0x138>
10004b48:	f002 fc78 	bl	1000743c <vPortYield>
10004b4c:	e718      	b.n	10004980 <xQueueGenericSend+0x138>
10004b4e:	68e0      	ldr	r0, [r4, #12]
10004b50:	f7fd f9de 	bl	10001f10 <__wrap___aeabi_memcpy>
10004b54:	68e1      	ldr	r1, [r4, #12]
10004b56:	6c23      	ldr	r3, [r4, #64]	; 0x40
10004b58:	425a      	negs	r2, r3
10004b5a:	1acb      	subs	r3, r1, r3
10004b5c:	6821      	ldr	r1, [r4, #0]
10004b5e:	60e3      	str	r3, [r4, #12]
10004b60:	428b      	cmp	r3, r1
10004b62:	d280      	bcs.n	10004a66 <xQueueGenericSend+0x21e>
10004b64:	e77b      	b.n	10004a5e <xQueueGenericSend+0x216>
10004b66:	46c0      	nop			; (mov r8, r8)

10004b68 <xQueueGenericSendFromISR>:
10004b68:	b5f0      	push	{r4, r5, r6, r7, lr}
10004b6a:	464f      	mov	r7, r9
10004b6c:	46d6      	mov	lr, sl
10004b6e:	4646      	mov	r6, r8
10004b70:	b5c0      	push	{r6, r7, lr}
10004b72:	0004      	movs	r4, r0
10004b74:	4699      	mov	r9, r3
10004b76:	000f      	movs	r7, r1
10004b78:	4690      	mov	r8, r2
10004b7a:	f002 fc81 	bl	10007480 <ulSetInterruptMaskFromISR>
10004b7e:	6be3      	ldr	r3, [r4, #60]	; 0x3c
10004b80:	0005      	movs	r5, r0
10004b82:	6ba0      	ldr	r0, [r4, #56]	; 0x38
10004b84:	4298      	cmp	r0, r3
10004b86:	d31e      	bcc.n	10004bc6 <xQueueGenericSendFromISR+0x5e>
10004b88:	464b      	mov	r3, r9
10004b8a:	2b02      	cmp	r3, #2
10004b8c:	d009      	beq.n	10004ba2 <xQueueGenericSendFromISR+0x3a>
10004b8e:	2400      	movs	r4, #0
10004b90:	0028      	movs	r0, r5
10004b92:	f002 fc79 	bl	10007488 <vClearInterruptMaskFromISR>
10004b96:	0020      	movs	r0, r4
10004b98:	bc1c      	pop	{r2, r3, r4}
10004b9a:	4690      	mov	r8, r2
10004b9c:	4699      	mov	r9, r3
10004b9e:	46a2      	mov	sl, r4
10004ba0:	bdf0      	pop	{r4, r5, r6, r7, pc}
10004ba2:	2345      	movs	r3, #69	; 0x45
10004ba4:	6c22      	ldr	r2, [r4, #64]	; 0x40
10004ba6:	5ce6      	ldrb	r6, [r4, r3]
10004ba8:	6ba3      	ldr	r3, [r4, #56]	; 0x38
10004baa:	6ba3      	ldr	r3, [r4, #56]	; 0x38
10004bac:	b276      	sxtb	r6, r6
10004bae:	469a      	mov	sl, r3
10004bb0:	2a00      	cmp	r2, #0
10004bb2:	d12f      	bne.n	10004c14 <xQueueGenericSendFromISR+0xac>
10004bb4:	3301      	adds	r3, #1
10004bb6:	63a3      	str	r3, [r4, #56]	; 0x38
10004bb8:	1c73      	adds	r3, r6, #1
10004bba:	d121      	bne.n	10004c00 <xQueueGenericSendFromISR+0x98>
10004bbc:	6a63      	ldr	r3, [r4, #36]	; 0x24
10004bbe:	2b00      	cmp	r3, #0
10004bc0:	d13e      	bne.n	10004c40 <xQueueGenericSendFromISR+0xd8>
10004bc2:	2401      	movs	r4, #1
10004bc4:	e7e4      	b.n	10004b90 <xQueueGenericSendFromISR+0x28>
10004bc6:	2345      	movs	r3, #69	; 0x45
10004bc8:	6c22      	ldr	r2, [r4, #64]	; 0x40
10004bca:	5ce6      	ldrb	r6, [r4, r3]
10004bcc:	6ba3      	ldr	r3, [r4, #56]	; 0x38
10004bce:	6ba3      	ldr	r3, [r4, #56]	; 0x38
10004bd0:	b276      	sxtb	r6, r6
10004bd2:	469a      	mov	sl, r3
10004bd4:	2a00      	cmp	r2, #0
10004bd6:	d0ed      	beq.n	10004bb4 <xQueueGenericSendFromISR+0x4c>
10004bd8:	464b      	mov	r3, r9
10004bda:	0039      	movs	r1, r7
10004bdc:	2b00      	cmp	r3, #0
10004bde:	d141      	bne.n	10004c64 <xQueueGenericSendFromISR+0xfc>
10004be0:	6860      	ldr	r0, [r4, #4]
10004be2:	f7fd f995 	bl	10001f10 <__wrap___aeabi_memcpy>
10004be6:	6c22      	ldr	r2, [r4, #64]	; 0x40
10004be8:	6863      	ldr	r3, [r4, #4]
10004bea:	4694      	mov	ip, r2
10004bec:	68a2      	ldr	r2, [r4, #8]
10004bee:	4463      	add	r3, ip
10004bf0:	6063      	str	r3, [r4, #4]
10004bf2:	4293      	cmp	r3, r2
10004bf4:	d321      	bcc.n	10004c3a <xQueueGenericSendFromISR+0xd2>
10004bf6:	6823      	ldr	r3, [r4, #0]
10004bf8:	6063      	str	r3, [r4, #4]
10004bfa:	4653      	mov	r3, sl
10004bfc:	3301      	adds	r3, #1
10004bfe:	e7da      	b.n	10004bb6 <xQueueGenericSendFromISR+0x4e>
10004c00:	f001 fc74 	bl	100064ec <uxTaskGetNumberOfTasks>
10004c04:	4286      	cmp	r6, r0
10004c06:	d2dc      	bcs.n	10004bc2 <xQueueGenericSendFromISR+0x5a>
10004c08:	2345      	movs	r3, #69	; 0x45
10004c0a:	3601      	adds	r6, #1
10004c0c:	b276      	sxtb	r6, r6
10004c0e:	54e6      	strb	r6, [r4, r3]
10004c10:	2401      	movs	r4, #1
10004c12:	e7bd      	b.n	10004b90 <xQueueGenericSendFromISR+0x28>
10004c14:	0039      	movs	r1, r7
10004c16:	68e0      	ldr	r0, [r4, #12]
10004c18:	f7fd f97a 	bl	10001f10 <__wrap___aeabi_memcpy>
10004c1c:	68e1      	ldr	r1, [r4, #12]
10004c1e:	6c23      	ldr	r3, [r4, #64]	; 0x40
10004c20:	425a      	negs	r2, r3
10004c22:	1acb      	subs	r3, r1, r3
10004c24:	6821      	ldr	r1, [r4, #0]
10004c26:	60e3      	str	r3, [r4, #12]
10004c28:	428b      	cmp	r3, r1
10004c2a:	d217      	bcs.n	10004c5c <xQueueGenericSendFromISR+0xf4>
10004c2c:	68a3      	ldr	r3, [r4, #8]
10004c2e:	469c      	mov	ip, r3
10004c30:	4462      	add	r2, ip
10004c32:	60e2      	str	r2, [r4, #12]
10004c34:	464b      	mov	r3, r9
10004c36:	2b02      	cmp	r3, #2
10004c38:	d010      	beq.n	10004c5c <xQueueGenericSendFromISR+0xf4>
10004c3a:	4653      	mov	r3, sl
10004c3c:	3301      	adds	r3, #1
10004c3e:	e7ba      	b.n	10004bb6 <xQueueGenericSendFromISR+0x4e>
10004c40:	0020      	movs	r0, r4
10004c42:	3024      	adds	r0, #36	; 0x24
10004c44:	f001 fdb4 	bl	100067b0 <xTaskRemoveFromEventList>
10004c48:	2800      	cmp	r0, #0
10004c4a:	d0ba      	beq.n	10004bc2 <xQueueGenericSendFromISR+0x5a>
10004c4c:	4643      	mov	r3, r8
10004c4e:	2b00      	cmp	r3, #0
10004c50:	d0b7      	beq.n	10004bc2 <xQueueGenericSendFromISR+0x5a>
10004c52:	2301      	movs	r3, #1
10004c54:	4642      	mov	r2, r8
10004c56:	2401      	movs	r4, #1
10004c58:	6013      	str	r3, [r2, #0]
10004c5a:	e799      	b.n	10004b90 <xQueueGenericSendFromISR+0x28>
10004c5c:	4653      	mov	r3, sl
10004c5e:	2b00      	cmp	r3, #0
10004c60:	d1a9      	bne.n	10004bb6 <xQueueGenericSendFromISR+0x4e>
10004c62:	e7a7      	b.n	10004bb4 <xQueueGenericSendFromISR+0x4c>
10004c64:	68e0      	ldr	r0, [r4, #12]
10004c66:	f7fd f953 	bl	10001f10 <__wrap___aeabi_memcpy>
10004c6a:	68e1      	ldr	r1, [r4, #12]
10004c6c:	6c23      	ldr	r3, [r4, #64]	; 0x40
10004c6e:	425a      	negs	r2, r3
10004c70:	1acb      	subs	r3, r1, r3
10004c72:	6821      	ldr	r1, [r4, #0]
10004c74:	60e3      	str	r3, [r4, #12]
10004c76:	428b      	cmp	r3, r1
10004c78:	d2dc      	bcs.n	10004c34 <xQueueGenericSendFromISR+0xcc>
10004c7a:	e7d7      	b.n	10004c2c <xQueueGenericSendFromISR+0xc4>

10004c7c <xQueueGiveFromISR>:
10004c7c:	b5f0      	push	{r4, r5, r6, r7, lr}
10004c7e:	46c6      	mov	lr, r8
10004c80:	0004      	movs	r4, r0
10004c82:	b500      	push	{lr}
10004c84:	000e      	movs	r6, r1
10004c86:	f002 fbfb 	bl	10007480 <ulSetInterruptMaskFromISR>
10004c8a:	6ba3      	ldr	r3, [r4, #56]	; 0x38
10004c8c:	6be2      	ldr	r2, [r4, #60]	; 0x3c
10004c8e:	0005      	movs	r5, r0
10004c90:	2700      	movs	r7, #0
10004c92:	429a      	cmp	r2, r3
10004c94:	d90b      	bls.n	10004cae <xQueueGiveFromISR+0x32>
10004c96:	2245      	movs	r2, #69	; 0x45
10004c98:	5ca7      	ldrb	r7, [r4, r2]
10004c9a:	3301      	adds	r3, #1
10004c9c:	b27f      	sxtb	r7, r7
10004c9e:	4690      	mov	r8, r2
10004ca0:	63a3      	str	r3, [r4, #56]	; 0x38
10004ca2:	1c7b      	adds	r3, r7, #1
10004ca4:	d10a      	bne.n	10004cbc <xQueueGiveFromISR+0x40>
10004ca6:	6a63      	ldr	r3, [r4, #36]	; 0x24
10004ca8:	2b00      	cmp	r3, #0
10004caa:	d111      	bne.n	10004cd0 <xQueueGiveFromISR+0x54>
10004cac:	2701      	movs	r7, #1
10004cae:	0028      	movs	r0, r5
10004cb0:	f002 fbea 	bl	10007488 <vClearInterruptMaskFromISR>
10004cb4:	0038      	movs	r0, r7
10004cb6:	bc04      	pop	{r2}
10004cb8:	4690      	mov	r8, r2
10004cba:	bdf0      	pop	{r4, r5, r6, r7, pc}
10004cbc:	f001 fc16 	bl	100064ec <uxTaskGetNumberOfTasks>
10004cc0:	4287      	cmp	r7, r0
10004cc2:	d2f3      	bcs.n	10004cac <xQueueGiveFromISR+0x30>
10004cc4:	4643      	mov	r3, r8
10004cc6:	3701      	adds	r7, #1
10004cc8:	b27f      	sxtb	r7, r7
10004cca:	54e7      	strb	r7, [r4, r3]
10004ccc:	2701      	movs	r7, #1
10004cce:	e7ee      	b.n	10004cae <xQueueGiveFromISR+0x32>
10004cd0:	0020      	movs	r0, r4
10004cd2:	3024      	adds	r0, #36	; 0x24
10004cd4:	f001 fd6c 	bl	100067b0 <xTaskRemoveFromEventList>
10004cd8:	2800      	cmp	r0, #0
10004cda:	d0e7      	beq.n	10004cac <xQueueGiveFromISR+0x30>
10004cdc:	2e00      	cmp	r6, #0
10004cde:	d0e5      	beq.n	10004cac <xQueueGiveFromISR+0x30>
10004ce0:	2301      	movs	r3, #1
10004ce2:	2701      	movs	r7, #1
10004ce4:	6033      	str	r3, [r6, #0]
10004ce6:	e7e2      	b.n	10004cae <xQueueGiveFromISR+0x32>

10004ce8 <xQueueReceive>:
10004ce8:	b5f0      	push	{r4, r5, r6, r7, lr}
10004cea:	46ce      	mov	lr, r9
10004cec:	4647      	mov	r7, r8
10004cee:	0004      	movs	r4, r0
10004cf0:	b580      	push	{r7, lr}
10004cf2:	b085      	sub	sp, #20
10004cf4:	4688      	mov	r8, r1
10004cf6:	9201      	str	r2, [sp, #4]
10004cf8:	f002 fbac 	bl	10007454 <vPortEnterCritical>
10004cfc:	6ba5      	ldr	r5, [r4, #56]	; 0x38
10004cfe:	2d00      	cmp	r5, #0
10004d00:	d000      	beq.n	10004d04 <xQueueReceive+0x1c>
10004d02:	e123      	b.n	10004f4c <xQueueReceive+0x264>
10004d04:	9b01      	ldr	r3, [sp, #4]
10004d06:	2b00      	cmp	r3, #0
10004d08:	d100      	bne.n	10004d0c <xQueueReceive+0x24>
10004d0a:	e0cb      	b.n	10004ea4 <xQueueReceive+0x1bc>
10004d0c:	0026      	movs	r6, r4
10004d0e:	a802      	add	r0, sp, #8
10004d10:	f001 fe0a 	bl	10006928 <vTaskInternalSetTimeOutState>
10004d14:	2744      	movs	r7, #68	; 0x44
10004d16:	3624      	adds	r6, #36	; 0x24
10004d18:	f002 fba8 	bl	1000746c <vPortExitCritical>
10004d1c:	f001 face 	bl	100062bc <vTaskSuspendAll>
10004d20:	f002 fb98 	bl	10007454 <vPortEnterCritical>
10004d24:	5de3      	ldrb	r3, [r4, r7]
10004d26:	b25b      	sxtb	r3, r3
10004d28:	3301      	adds	r3, #1
10004d2a:	d101      	bne.n	10004d30 <xQueueReceive+0x48>
10004d2c:	2300      	movs	r3, #0
10004d2e:	55e3      	strb	r3, [r4, r7]
10004d30:	2245      	movs	r2, #69	; 0x45
10004d32:	5ca3      	ldrb	r3, [r4, r2]
10004d34:	b25b      	sxtb	r3, r3
10004d36:	3301      	adds	r3, #1
10004d38:	d101      	bne.n	10004d3e <xQueueReceive+0x56>
10004d3a:	2300      	movs	r3, #0
10004d3c:	54a3      	strb	r3, [r4, r2]
10004d3e:	f002 fb95 	bl	1000746c <vPortExitCritical>
10004d42:	a901      	add	r1, sp, #4
10004d44:	a802      	add	r0, sp, #8
10004d46:	f001 fdf7 	bl	10006938 <xTaskCheckForTimeOut>
10004d4a:	2800      	cmp	r0, #0
10004d4c:	d155      	bne.n	10004dfa <xQueueReceive+0x112>
10004d4e:	f002 fb81 	bl	10007454 <vPortEnterCritical>
10004d52:	6ba3      	ldr	r3, [r4, #56]	; 0x38
10004d54:	2b00      	cmp	r3, #0
10004d56:	d000      	beq.n	10004d5a <xQueueReceive+0x72>
10004d58:	e0ac      	b.n	10004eb4 <xQueueReceive+0x1cc>
10004d5a:	f002 fb87 	bl	1000746c <vPortExitCritical>
10004d5e:	0030      	movs	r0, r6
10004d60:	9901      	ldr	r1, [sp, #4]
10004d62:	f001 fc4f 	bl	10006604 <vTaskPlaceOnEventList>
10004d66:	f002 fb75 	bl	10007454 <vPortEnterCritical>
10004d6a:	2345      	movs	r3, #69	; 0x45
10004d6c:	5ce5      	ldrb	r5, [r4, r3]
10004d6e:	b26d      	sxtb	r5, r5
10004d70:	2d00      	cmp	r5, #0
10004d72:	dc05      	bgt.n	10004d80 <xQueueReceive+0x98>
10004d74:	e013      	b.n	10004d9e <xQueueReceive+0xb6>
10004d76:	3d01      	subs	r5, #1
10004d78:	b2ea      	uxtb	r2, r5
10004d7a:	b26d      	sxtb	r5, r5
10004d7c:	2a00      	cmp	r2, #0
10004d7e:	d00e      	beq.n	10004d9e <xQueueReceive+0xb6>
10004d80:	6a63      	ldr	r3, [r4, #36]	; 0x24
10004d82:	2b00      	cmp	r3, #0
10004d84:	d00b      	beq.n	10004d9e <xQueueReceive+0xb6>
10004d86:	0030      	movs	r0, r6
10004d88:	f001 fd12 	bl	100067b0 <xTaskRemoveFromEventList>
10004d8c:	2800      	cmp	r0, #0
10004d8e:	d0f2      	beq.n	10004d76 <xQueueReceive+0x8e>
10004d90:	3d01      	subs	r5, #1
10004d92:	f001 fdf9 	bl	10006988 <vTaskMissedYield>
10004d96:	b2ea      	uxtb	r2, r5
10004d98:	b26d      	sxtb	r5, r5
10004d9a:	2a00      	cmp	r2, #0
10004d9c:	d1f0      	bne.n	10004d80 <xQueueReceive+0x98>
10004d9e:	2345      	movs	r3, #69	; 0x45
10004da0:	22ff      	movs	r2, #255	; 0xff
10004da2:	54e2      	strb	r2, [r4, r3]
10004da4:	f002 fb62 	bl	1000746c <vPortExitCritical>
10004da8:	f002 fb54 	bl	10007454 <vPortEnterCritical>
10004dac:	2310      	movs	r3, #16
10004dae:	4699      	mov	r9, r3
10004db0:	5de5      	ldrb	r5, [r4, r7]
10004db2:	44a1      	add	r9, r4
10004db4:	b26d      	sxtb	r5, r5
10004db6:	2d00      	cmp	r5, #0
10004db8:	dc05      	bgt.n	10004dc6 <xQueueReceive+0xde>
10004dba:	e013      	b.n	10004de4 <xQueueReceive+0xfc>
10004dbc:	3d01      	subs	r5, #1
10004dbe:	b2ea      	uxtb	r2, r5
10004dc0:	b26d      	sxtb	r5, r5
10004dc2:	2a00      	cmp	r2, #0
10004dc4:	d00e      	beq.n	10004de4 <xQueueReceive+0xfc>
10004dc6:	6923      	ldr	r3, [r4, #16]
10004dc8:	2b00      	cmp	r3, #0
10004dca:	d00b      	beq.n	10004de4 <xQueueReceive+0xfc>
10004dcc:	4648      	mov	r0, r9
10004dce:	f001 fcef 	bl	100067b0 <xTaskRemoveFromEventList>
10004dd2:	2800      	cmp	r0, #0
10004dd4:	d0f2      	beq.n	10004dbc <xQueueReceive+0xd4>
10004dd6:	3d01      	subs	r5, #1
10004dd8:	f001 fdd6 	bl	10006988 <vTaskMissedYield>
10004ddc:	b2ea      	uxtb	r2, r5
10004dde:	b26d      	sxtb	r5, r5
10004de0:	2a00      	cmp	r2, #0
10004de2:	d1f0      	bne.n	10004dc6 <xQueueReceive+0xde>
10004de4:	23ff      	movs	r3, #255	; 0xff
10004de6:	55e3      	strb	r3, [r4, r7]
10004de8:	f002 fb40 	bl	1000746c <vPortExitCritical>
10004dec:	f001 fa6e 	bl	100062cc <xTaskResumeAll>
10004df0:	2800      	cmp	r0, #0
10004df2:	d14e      	bne.n	10004e92 <xQueueReceive+0x1aa>
10004df4:	f002 fb22 	bl	1000743c <vPortYield>
10004df8:	e04b      	b.n	10004e92 <xQueueReceive+0x1aa>
10004dfa:	f002 fb2b 	bl	10007454 <vPortEnterCritical>
10004dfe:	2345      	movs	r3, #69	; 0x45
10004e00:	5ce5      	ldrb	r5, [r4, r3]
10004e02:	b26d      	sxtb	r5, r5
10004e04:	2d00      	cmp	r5, #0
10004e06:	dc05      	bgt.n	10004e14 <xQueueReceive+0x12c>
10004e08:	e013      	b.n	10004e32 <xQueueReceive+0x14a>
10004e0a:	3d01      	subs	r5, #1
10004e0c:	b2ea      	uxtb	r2, r5
10004e0e:	b26d      	sxtb	r5, r5
10004e10:	2a00      	cmp	r2, #0
10004e12:	d00e      	beq.n	10004e32 <xQueueReceive+0x14a>
10004e14:	6a63      	ldr	r3, [r4, #36]	; 0x24
10004e16:	2b00      	cmp	r3, #0
10004e18:	d00b      	beq.n	10004e32 <xQueueReceive+0x14a>
10004e1a:	0030      	movs	r0, r6
10004e1c:	f001 fcc8 	bl	100067b0 <xTaskRemoveFromEventList>
10004e20:	2800      	cmp	r0, #0
10004e22:	d0f2      	beq.n	10004e0a <xQueueReceive+0x122>
10004e24:	3d01      	subs	r5, #1
10004e26:	f001 fdaf 	bl	10006988 <vTaskMissedYield>
10004e2a:	b2ea      	uxtb	r2, r5
10004e2c:	b26d      	sxtb	r5, r5
10004e2e:	2a00      	cmp	r2, #0
10004e30:	d1f0      	bne.n	10004e14 <xQueueReceive+0x12c>
10004e32:	2345      	movs	r3, #69	; 0x45
10004e34:	22ff      	movs	r2, #255	; 0xff
10004e36:	54e2      	strb	r2, [r4, r3]
10004e38:	f002 fb18 	bl	1000746c <vPortExitCritical>
10004e3c:	f002 fb0a 	bl	10007454 <vPortEnterCritical>
10004e40:	2310      	movs	r3, #16
10004e42:	4699      	mov	r9, r3
10004e44:	5de5      	ldrb	r5, [r4, r7]
10004e46:	44a1      	add	r9, r4
10004e48:	b26d      	sxtb	r5, r5
10004e4a:	2d00      	cmp	r5, #0
10004e4c:	dc05      	bgt.n	10004e5a <xQueueReceive+0x172>
10004e4e:	e013      	b.n	10004e78 <xQueueReceive+0x190>
10004e50:	3d01      	subs	r5, #1
10004e52:	b2ea      	uxtb	r2, r5
10004e54:	b26d      	sxtb	r5, r5
10004e56:	2a00      	cmp	r2, #0
10004e58:	d00e      	beq.n	10004e78 <xQueueReceive+0x190>
10004e5a:	6923      	ldr	r3, [r4, #16]
10004e5c:	2b00      	cmp	r3, #0
10004e5e:	d00b      	beq.n	10004e78 <xQueueReceive+0x190>
10004e60:	4648      	mov	r0, r9
10004e62:	f001 fca5 	bl	100067b0 <xTaskRemoveFromEventList>
10004e66:	2800      	cmp	r0, #0
10004e68:	d0f2      	beq.n	10004e50 <xQueueReceive+0x168>
10004e6a:	3d01      	subs	r5, #1
10004e6c:	f001 fd8c 	bl	10006988 <vTaskMissedYield>
10004e70:	b2ea      	uxtb	r2, r5
10004e72:	b26d      	sxtb	r5, r5
10004e74:	2a00      	cmp	r2, #0
10004e76:	d1f0      	bne.n	10004e5a <xQueueReceive+0x172>
10004e78:	23ff      	movs	r3, #255	; 0xff
10004e7a:	55e3      	strb	r3, [r4, r7]
10004e7c:	f002 faf6 	bl	1000746c <vPortExitCritical>
10004e80:	f001 fa24 	bl	100062cc <xTaskResumeAll>
10004e84:	f002 fae6 	bl	10007454 <vPortEnterCritical>
10004e88:	6ba3      	ldr	r3, [r4, #56]	; 0x38
10004e8a:	2b00      	cmp	r3, #0
10004e8c:	d00a      	beq.n	10004ea4 <xQueueReceive+0x1bc>
10004e8e:	f002 faed 	bl	1000746c <vPortExitCritical>
10004e92:	f002 fadf 	bl	10007454 <vPortEnterCritical>
10004e96:	6ba5      	ldr	r5, [r4, #56]	; 0x38
10004e98:	2d00      	cmp	r5, #0
10004e9a:	d157      	bne.n	10004f4c <xQueueReceive+0x264>
10004e9c:	9b01      	ldr	r3, [sp, #4]
10004e9e:	2b00      	cmp	r3, #0
10004ea0:	d000      	beq.n	10004ea4 <xQueueReceive+0x1bc>
10004ea2:	e739      	b.n	10004d18 <xQueueReceive+0x30>
10004ea4:	f002 fae2 	bl	1000746c <vPortExitCritical>
10004ea8:	2000      	movs	r0, #0
10004eaa:	b005      	add	sp, #20
10004eac:	bc0c      	pop	{r2, r3}
10004eae:	4690      	mov	r8, r2
10004eb0:	4699      	mov	r9, r3
10004eb2:	bdf0      	pop	{r4, r5, r6, r7, pc}
10004eb4:	f002 fada 	bl	1000746c <vPortExitCritical>
10004eb8:	f002 facc 	bl	10007454 <vPortEnterCritical>
10004ebc:	2345      	movs	r3, #69	; 0x45
10004ebe:	5ce5      	ldrb	r5, [r4, r3]
10004ec0:	b26d      	sxtb	r5, r5
10004ec2:	2d00      	cmp	r5, #0
10004ec4:	dc05      	bgt.n	10004ed2 <xQueueReceive+0x1ea>
10004ec6:	e013      	b.n	10004ef0 <xQueueReceive+0x208>
10004ec8:	3d01      	subs	r5, #1
10004eca:	b2ea      	uxtb	r2, r5
10004ecc:	b26d      	sxtb	r5, r5
10004ece:	2a00      	cmp	r2, #0
10004ed0:	d00e      	beq.n	10004ef0 <xQueueReceive+0x208>
10004ed2:	6a63      	ldr	r3, [r4, #36]	; 0x24
10004ed4:	2b00      	cmp	r3, #0
10004ed6:	d00b      	beq.n	10004ef0 <xQueueReceive+0x208>
10004ed8:	0030      	movs	r0, r6
10004eda:	f001 fc69 	bl	100067b0 <xTaskRemoveFromEventList>
10004ede:	2800      	cmp	r0, #0
10004ee0:	d0f2      	beq.n	10004ec8 <xQueueReceive+0x1e0>
10004ee2:	3d01      	subs	r5, #1
10004ee4:	f001 fd50 	bl	10006988 <vTaskMissedYield>
10004ee8:	b2ea      	uxtb	r2, r5
10004eea:	b26d      	sxtb	r5, r5
10004eec:	2a00      	cmp	r2, #0
10004eee:	d1f0      	bne.n	10004ed2 <xQueueReceive+0x1ea>
10004ef0:	2345      	movs	r3, #69	; 0x45
10004ef2:	22ff      	movs	r2, #255	; 0xff
10004ef4:	54e2      	strb	r2, [r4, r3]
10004ef6:	f002 fab9 	bl	1000746c <vPortExitCritical>
10004efa:	f002 faab 	bl	10007454 <vPortEnterCritical>
10004efe:	2310      	movs	r3, #16
10004f00:	4699      	mov	r9, r3
10004f02:	5de5      	ldrb	r5, [r4, r7]
10004f04:	44a1      	add	r9, r4
10004f06:	b26d      	sxtb	r5, r5
10004f08:	2d00      	cmp	r5, #0
10004f0a:	dc05      	bgt.n	10004f18 <xQueueReceive+0x230>
10004f0c:	e013      	b.n	10004f36 <xQueueReceive+0x24e>
10004f0e:	3d01      	subs	r5, #1
10004f10:	b2ea      	uxtb	r2, r5
10004f12:	b26d      	sxtb	r5, r5
10004f14:	2a00      	cmp	r2, #0
10004f16:	d00e      	beq.n	10004f36 <xQueueReceive+0x24e>
10004f18:	6923      	ldr	r3, [r4, #16]
10004f1a:	2b00      	cmp	r3, #0
10004f1c:	d00b      	beq.n	10004f36 <xQueueReceive+0x24e>
10004f1e:	4648      	mov	r0, r9
10004f20:	f001 fc46 	bl	100067b0 <xTaskRemoveFromEventList>
10004f24:	2800      	cmp	r0, #0
10004f26:	d0f2      	beq.n	10004f0e <xQueueReceive+0x226>
10004f28:	3d01      	subs	r5, #1
10004f2a:	f001 fd2d 	bl	10006988 <vTaskMissedYield>
10004f2e:	b2ea      	uxtb	r2, r5
10004f30:	b26d      	sxtb	r5, r5
10004f32:	2a00      	cmp	r2, #0
10004f34:	d1f0      	bne.n	10004f18 <xQueueReceive+0x230>
10004f36:	23ff      	movs	r3, #255	; 0xff
10004f38:	55e3      	strb	r3, [r4, r7]
10004f3a:	f002 fa97 	bl	1000746c <vPortExitCritical>
10004f3e:	f001 f9c5 	bl	100062cc <xTaskResumeAll>
10004f42:	f002 fa87 	bl	10007454 <vPortEnterCritical>
10004f46:	6ba5      	ldr	r5, [r4, #56]	; 0x38
10004f48:	2d00      	cmp	r5, #0
10004f4a:	d0a7      	beq.n	10004e9c <xQueueReceive+0x1b4>
10004f4c:	6c22      	ldr	r2, [r4, #64]	; 0x40
10004f4e:	2a00      	cmp	r2, #0
10004f50:	d008      	beq.n	10004f64 <xQueueReceive+0x27c>
10004f52:	68e3      	ldr	r3, [r4, #12]
10004f54:	1899      	adds	r1, r3, r2
10004f56:	68a3      	ldr	r3, [r4, #8]
10004f58:	60e1      	str	r1, [r4, #12]
10004f5a:	4299      	cmp	r1, r3
10004f5c:	d20b      	bcs.n	10004f76 <xQueueReceive+0x28e>
10004f5e:	4640      	mov	r0, r8
10004f60:	f7fc ffd6 	bl	10001f10 <__wrap___aeabi_memcpy>
10004f64:	3d01      	subs	r5, #1
10004f66:	63a5      	str	r5, [r4, #56]	; 0x38
10004f68:	6923      	ldr	r3, [r4, #16]
10004f6a:	2b00      	cmp	r3, #0
10004f6c:	d106      	bne.n	10004f7c <xQueueReceive+0x294>
10004f6e:	f002 fa7d 	bl	1000746c <vPortExitCritical>
10004f72:	2001      	movs	r0, #1
10004f74:	e799      	b.n	10004eaa <xQueueReceive+0x1c2>
10004f76:	6821      	ldr	r1, [r4, #0]
10004f78:	60e1      	str	r1, [r4, #12]
10004f7a:	e7f0      	b.n	10004f5e <xQueueReceive+0x276>
10004f7c:	0020      	movs	r0, r4
10004f7e:	3010      	adds	r0, #16
10004f80:	f001 fc16 	bl	100067b0 <xTaskRemoveFromEventList>
10004f84:	2800      	cmp	r0, #0
10004f86:	d0f2      	beq.n	10004f6e <xQueueReceive+0x286>
10004f88:	f002 fa58 	bl	1000743c <vPortYield>
10004f8c:	e7ef      	b.n	10004f6e <xQueueReceive+0x286>
10004f8e:	46c0      	nop			; (mov r8, r8)

10004f90 <xQueueSemaphoreTake>:
10004f90:	b5f0      	push	{r4, r5, r6, r7, lr}
10004f92:	46c6      	mov	lr, r8
10004f94:	0004      	movs	r4, r0
10004f96:	b500      	push	{lr}
10004f98:	b084      	sub	sp, #16
10004f9a:	9101      	str	r1, [sp, #4]
10004f9c:	f002 fa5a 	bl	10007454 <vPortEnterCritical>
10004fa0:	6ba3      	ldr	r3, [r4, #56]	; 0x38
10004fa2:	2b00      	cmp	r3, #0
10004fa4:	d000      	beq.n	10004fa8 <xQueueSemaphoreTake+0x18>
10004fa6:	e122      	b.n	100051ee <xQueueSemaphoreTake+0x25e>
10004fa8:	9b01      	ldr	r3, [sp, #4]
10004faa:	2b00      	cmp	r3, #0
10004fac:	d100      	bne.n	10004fb0 <xQueueSemaphoreTake+0x20>
10004fae:	e0cb      	b.n	10005148 <xQueueSemaphoreTake+0x1b8>
10004fb0:	0026      	movs	r6, r4
10004fb2:	a802      	add	r0, sp, #8
10004fb4:	f001 fcb8 	bl	10006928 <vTaskInternalSetTimeOutState>
10004fb8:	2744      	movs	r7, #68	; 0x44
10004fba:	3624      	adds	r6, #36	; 0x24
10004fbc:	f002 fa56 	bl	1000746c <vPortExitCritical>
10004fc0:	f001 f97c 	bl	100062bc <vTaskSuspendAll>
10004fc4:	f002 fa46 	bl	10007454 <vPortEnterCritical>
10004fc8:	5de3      	ldrb	r3, [r4, r7]
10004fca:	b25b      	sxtb	r3, r3
10004fcc:	3301      	adds	r3, #1
10004fce:	d101      	bne.n	10004fd4 <xQueueSemaphoreTake+0x44>
10004fd0:	2300      	movs	r3, #0
10004fd2:	55e3      	strb	r3, [r4, r7]
10004fd4:	2245      	movs	r2, #69	; 0x45
10004fd6:	5ca3      	ldrb	r3, [r4, r2]
10004fd8:	b25b      	sxtb	r3, r3
10004fda:	3301      	adds	r3, #1
10004fdc:	d101      	bne.n	10004fe2 <xQueueSemaphoreTake+0x52>
10004fde:	2300      	movs	r3, #0
10004fe0:	54a3      	strb	r3, [r4, r2]
10004fe2:	f002 fa43 	bl	1000746c <vPortExitCritical>
10004fe6:	a901      	add	r1, sp, #4
10004fe8:	a802      	add	r0, sp, #8
10004fea:	f001 fca5 	bl	10006938 <xTaskCheckForTimeOut>
10004fee:	2800      	cmp	r0, #0
10004ff0:	d155      	bne.n	1000509e <xQueueSemaphoreTake+0x10e>
10004ff2:	f002 fa2f 	bl	10007454 <vPortEnterCritical>
10004ff6:	6ba3      	ldr	r3, [r4, #56]	; 0x38
10004ff8:	2b00      	cmp	r3, #0
10004ffa:	d000      	beq.n	10004ffe <xQueueSemaphoreTake+0x6e>
10004ffc:	e0ab      	b.n	10005156 <xQueueSemaphoreTake+0x1c6>
10004ffe:	f002 fa35 	bl	1000746c <vPortExitCritical>
10005002:	0030      	movs	r0, r6
10005004:	9901      	ldr	r1, [sp, #4]
10005006:	f001 fafd 	bl	10006604 <vTaskPlaceOnEventList>
1000500a:	f002 fa23 	bl	10007454 <vPortEnterCritical>
1000500e:	2345      	movs	r3, #69	; 0x45
10005010:	5ce5      	ldrb	r5, [r4, r3]
10005012:	b26d      	sxtb	r5, r5
10005014:	2d00      	cmp	r5, #0
10005016:	dc05      	bgt.n	10005024 <xQueueSemaphoreTake+0x94>
10005018:	e013      	b.n	10005042 <xQueueSemaphoreTake+0xb2>
1000501a:	3d01      	subs	r5, #1
1000501c:	b2ea      	uxtb	r2, r5
1000501e:	b26d      	sxtb	r5, r5
10005020:	2a00      	cmp	r2, #0
10005022:	d00e      	beq.n	10005042 <xQueueSemaphoreTake+0xb2>
10005024:	6a63      	ldr	r3, [r4, #36]	; 0x24
10005026:	2b00      	cmp	r3, #0
10005028:	d00b      	beq.n	10005042 <xQueueSemaphoreTake+0xb2>
1000502a:	0030      	movs	r0, r6
1000502c:	f001 fbc0 	bl	100067b0 <xTaskRemoveFromEventList>
10005030:	2800      	cmp	r0, #0
10005032:	d0f2      	beq.n	1000501a <xQueueSemaphoreTake+0x8a>
10005034:	3d01      	subs	r5, #1
10005036:	f001 fca7 	bl	10006988 <vTaskMissedYield>
1000503a:	b2ea      	uxtb	r2, r5
1000503c:	b26d      	sxtb	r5, r5
1000503e:	2a00      	cmp	r2, #0
10005040:	d1f0      	bne.n	10005024 <xQueueSemaphoreTake+0x94>
10005042:	2345      	movs	r3, #69	; 0x45
10005044:	22ff      	movs	r2, #255	; 0xff
10005046:	54e2      	strb	r2, [r4, r3]
10005048:	f002 fa10 	bl	1000746c <vPortExitCritical>
1000504c:	f002 fa02 	bl	10007454 <vPortEnterCritical>
10005050:	5de5      	ldrb	r5, [r4, r7]
10005052:	b26d      	sxtb	r5, r5
10005054:	2d00      	cmp	r5, #0
10005056:	dd17      	ble.n	10005088 <xQueueSemaphoreTake+0xf8>
10005058:	2310      	movs	r3, #16
1000505a:	4698      	mov	r8, r3
1000505c:	44a0      	add	r8, r4
1000505e:	e004      	b.n	1000506a <xQueueSemaphoreTake+0xda>
10005060:	3d01      	subs	r5, #1
10005062:	b2ea      	uxtb	r2, r5
10005064:	b26d      	sxtb	r5, r5
10005066:	2a00      	cmp	r2, #0
10005068:	d00e      	beq.n	10005088 <xQueueSemaphoreTake+0xf8>
1000506a:	6923      	ldr	r3, [r4, #16]
1000506c:	2b00      	cmp	r3, #0
1000506e:	d00b      	beq.n	10005088 <xQueueSemaphoreTake+0xf8>
10005070:	4640      	mov	r0, r8
10005072:	f001 fb9d 	bl	100067b0 <xTaskRemoveFromEventList>
10005076:	2800      	cmp	r0, #0
10005078:	d0f2      	beq.n	10005060 <xQueueSemaphoreTake+0xd0>
1000507a:	3d01      	subs	r5, #1
1000507c:	f001 fc84 	bl	10006988 <vTaskMissedYield>
10005080:	b2ea      	uxtb	r2, r5
10005082:	b26d      	sxtb	r5, r5
10005084:	2a00      	cmp	r2, #0
10005086:	d1f0      	bne.n	1000506a <xQueueSemaphoreTake+0xda>
10005088:	23ff      	movs	r3, #255	; 0xff
1000508a:	55e3      	strb	r3, [r4, r7]
1000508c:	f002 f9ee 	bl	1000746c <vPortExitCritical>
10005090:	f001 f91c 	bl	100062cc <xTaskResumeAll>
10005094:	2800      	cmp	r0, #0
10005096:	d14e      	bne.n	10005136 <xQueueSemaphoreTake+0x1a6>
10005098:	f002 f9d0 	bl	1000743c <vPortYield>
1000509c:	e04b      	b.n	10005136 <xQueueSemaphoreTake+0x1a6>
1000509e:	f002 f9d9 	bl	10007454 <vPortEnterCritical>
100050a2:	2345      	movs	r3, #69	; 0x45
100050a4:	5ce5      	ldrb	r5, [r4, r3]
100050a6:	b26d      	sxtb	r5, r5
100050a8:	2d00      	cmp	r5, #0
100050aa:	dc05      	bgt.n	100050b8 <xQueueSemaphoreTake+0x128>
100050ac:	e013      	b.n	100050d6 <xQueueSemaphoreTake+0x146>
100050ae:	3d01      	subs	r5, #1
100050b0:	b2ea      	uxtb	r2, r5
100050b2:	b26d      	sxtb	r5, r5
100050b4:	2a00      	cmp	r2, #0
100050b6:	d00e      	beq.n	100050d6 <xQueueSemaphoreTake+0x146>
100050b8:	6a63      	ldr	r3, [r4, #36]	; 0x24
100050ba:	2b00      	cmp	r3, #0
100050bc:	d00b      	beq.n	100050d6 <xQueueSemaphoreTake+0x146>
100050be:	0030      	movs	r0, r6
100050c0:	f001 fb76 	bl	100067b0 <xTaskRemoveFromEventList>
100050c4:	2800      	cmp	r0, #0
100050c6:	d0f2      	beq.n	100050ae <xQueueSemaphoreTake+0x11e>
100050c8:	3d01      	subs	r5, #1
100050ca:	f001 fc5d 	bl	10006988 <vTaskMissedYield>
100050ce:	b2ea      	uxtb	r2, r5
100050d0:	b26d      	sxtb	r5, r5
100050d2:	2a00      	cmp	r2, #0
100050d4:	d1f0      	bne.n	100050b8 <xQueueSemaphoreTake+0x128>
100050d6:	2345      	movs	r3, #69	; 0x45
100050d8:	22ff      	movs	r2, #255	; 0xff
100050da:	54e2      	strb	r2, [r4, r3]
100050dc:	f002 f9c6 	bl	1000746c <vPortExitCritical>
100050e0:	f002 f9b8 	bl	10007454 <vPortEnterCritical>
100050e4:	5de5      	ldrb	r5, [r4, r7]
100050e6:	b26d      	sxtb	r5, r5
100050e8:	2d00      	cmp	r5, #0
100050ea:	dd17      	ble.n	1000511c <xQueueSemaphoreTake+0x18c>
100050ec:	2310      	movs	r3, #16
100050ee:	4698      	mov	r8, r3
100050f0:	44a0      	add	r8, r4
100050f2:	e004      	b.n	100050fe <xQueueSemaphoreTake+0x16e>
100050f4:	3d01      	subs	r5, #1
100050f6:	b2ea      	uxtb	r2, r5
100050f8:	b26d      	sxtb	r5, r5
100050fa:	2a00      	cmp	r2, #0
100050fc:	d00e      	beq.n	1000511c <xQueueSemaphoreTake+0x18c>
100050fe:	6923      	ldr	r3, [r4, #16]
10005100:	2b00      	cmp	r3, #0
10005102:	d00b      	beq.n	1000511c <xQueueSemaphoreTake+0x18c>
10005104:	4640      	mov	r0, r8
10005106:	f001 fb53 	bl	100067b0 <xTaskRemoveFromEventList>
1000510a:	2800      	cmp	r0, #0
1000510c:	d0f2      	beq.n	100050f4 <xQueueSemaphoreTake+0x164>
1000510e:	3d01      	subs	r5, #1
10005110:	f001 fc3a 	bl	10006988 <vTaskMissedYield>
10005114:	b2ea      	uxtb	r2, r5
10005116:	b26d      	sxtb	r5, r5
10005118:	2a00      	cmp	r2, #0
1000511a:	d1f0      	bne.n	100050fe <xQueueSemaphoreTake+0x16e>
1000511c:	23ff      	movs	r3, #255	; 0xff
1000511e:	55e3      	strb	r3, [r4, r7]
10005120:	f002 f9a4 	bl	1000746c <vPortExitCritical>
10005124:	f001 f8d2 	bl	100062cc <xTaskResumeAll>
10005128:	f002 f994 	bl	10007454 <vPortEnterCritical>
1000512c:	6ba3      	ldr	r3, [r4, #56]	; 0x38
1000512e:	2b00      	cmp	r3, #0
10005130:	d00a      	beq.n	10005148 <xQueueSemaphoreTake+0x1b8>
10005132:	f002 f99b 	bl	1000746c <vPortExitCritical>
10005136:	f002 f98d 	bl	10007454 <vPortEnterCritical>
1000513a:	6ba3      	ldr	r3, [r4, #56]	; 0x38
1000513c:	2b00      	cmp	r3, #0
1000513e:	d156      	bne.n	100051ee <xQueueSemaphoreTake+0x25e>
10005140:	9b01      	ldr	r3, [sp, #4]
10005142:	2b00      	cmp	r3, #0
10005144:	d000      	beq.n	10005148 <xQueueSemaphoreTake+0x1b8>
10005146:	e739      	b.n	10004fbc <xQueueSemaphoreTake+0x2c>
10005148:	f002 f990 	bl	1000746c <vPortExitCritical>
1000514c:	2000      	movs	r0, #0
1000514e:	b004      	add	sp, #16
10005150:	bc04      	pop	{r2}
10005152:	4690      	mov	r8, r2
10005154:	bdf0      	pop	{r4, r5, r6, r7, pc}
10005156:	f002 f989 	bl	1000746c <vPortExitCritical>
1000515a:	f002 f97b 	bl	10007454 <vPortEnterCritical>
1000515e:	2345      	movs	r3, #69	; 0x45
10005160:	5ce5      	ldrb	r5, [r4, r3]
10005162:	b26d      	sxtb	r5, r5
10005164:	2d00      	cmp	r5, #0
10005166:	dc05      	bgt.n	10005174 <xQueueSemaphoreTake+0x1e4>
10005168:	e013      	b.n	10005192 <xQueueSemaphoreTake+0x202>
1000516a:	3d01      	subs	r5, #1
1000516c:	b2ea      	uxtb	r2, r5
1000516e:	b26d      	sxtb	r5, r5
10005170:	2a00      	cmp	r2, #0
10005172:	d00e      	beq.n	10005192 <xQueueSemaphoreTake+0x202>
10005174:	6a63      	ldr	r3, [r4, #36]	; 0x24
10005176:	2b00      	cmp	r3, #0
10005178:	d00b      	beq.n	10005192 <xQueueSemaphoreTake+0x202>
1000517a:	0030      	movs	r0, r6
1000517c:	f001 fb18 	bl	100067b0 <xTaskRemoveFromEventList>
10005180:	2800      	cmp	r0, #0
10005182:	d0f2      	beq.n	1000516a <xQueueSemaphoreTake+0x1da>
10005184:	3d01      	subs	r5, #1
10005186:	f001 fbff 	bl	10006988 <vTaskMissedYield>
1000518a:	b2ea      	uxtb	r2, r5
1000518c:	b26d      	sxtb	r5, r5
1000518e:	2a00      	cmp	r2, #0
10005190:	d1f0      	bne.n	10005174 <xQueueSemaphoreTake+0x1e4>
10005192:	2345      	movs	r3, #69	; 0x45
10005194:	22ff      	movs	r2, #255	; 0xff
10005196:	54e2      	strb	r2, [r4, r3]
10005198:	f002 f968 	bl	1000746c <vPortExitCritical>
1000519c:	f002 f95a 	bl	10007454 <vPortEnterCritical>
100051a0:	5de5      	ldrb	r5, [r4, r7]
100051a2:	b26d      	sxtb	r5, r5
100051a4:	2d00      	cmp	r5, #0
100051a6:	dd17      	ble.n	100051d8 <xQueueSemaphoreTake+0x248>
100051a8:	2310      	movs	r3, #16
100051aa:	4698      	mov	r8, r3
100051ac:	44a0      	add	r8, r4
100051ae:	e004      	b.n	100051ba <xQueueSemaphoreTake+0x22a>
100051b0:	3d01      	subs	r5, #1
100051b2:	b2ea      	uxtb	r2, r5
100051b4:	b26d      	sxtb	r5, r5
100051b6:	2a00      	cmp	r2, #0
100051b8:	d00e      	beq.n	100051d8 <xQueueSemaphoreTake+0x248>
100051ba:	6923      	ldr	r3, [r4, #16]
100051bc:	2b00      	cmp	r3, #0
100051be:	d00b      	beq.n	100051d8 <xQueueSemaphoreTake+0x248>
100051c0:	4640      	mov	r0, r8
100051c2:	f001 faf5 	bl	100067b0 <xTaskRemoveFromEventList>
100051c6:	2800      	cmp	r0, #0
100051c8:	d0f2      	beq.n	100051b0 <xQueueSemaphoreTake+0x220>
100051ca:	3d01      	subs	r5, #1
100051cc:	f001 fbdc 	bl	10006988 <vTaskMissedYield>
100051d0:	b2ea      	uxtb	r2, r5
100051d2:	b26d      	sxtb	r5, r5
100051d4:	2a00      	cmp	r2, #0
100051d6:	d1f0      	bne.n	100051ba <xQueueSemaphoreTake+0x22a>
100051d8:	23ff      	movs	r3, #255	; 0xff
100051da:	55e3      	strb	r3, [r4, r7]
100051dc:	f002 f946 	bl	1000746c <vPortExitCritical>
100051e0:	f001 f874 	bl	100062cc <xTaskResumeAll>
100051e4:	f002 f936 	bl	10007454 <vPortEnterCritical>
100051e8:	6ba3      	ldr	r3, [r4, #56]	; 0x38
100051ea:	2b00      	cmp	r3, #0
100051ec:	d0a8      	beq.n	10005140 <xQueueSemaphoreTake+0x1b0>
100051ee:	3b01      	subs	r3, #1
100051f0:	63a3      	str	r3, [r4, #56]	; 0x38
100051f2:	6923      	ldr	r3, [r4, #16]
100051f4:	2b00      	cmp	r3, #0
100051f6:	d103      	bne.n	10005200 <xQueueSemaphoreTake+0x270>
100051f8:	f002 f938 	bl	1000746c <vPortExitCritical>
100051fc:	2001      	movs	r0, #1
100051fe:	e7a6      	b.n	1000514e <xQueueSemaphoreTake+0x1be>
10005200:	0020      	movs	r0, r4
10005202:	3010      	adds	r0, #16
10005204:	f001 fad4 	bl	100067b0 <xTaskRemoveFromEventList>
10005208:	2800      	cmp	r0, #0
1000520a:	d0f5      	beq.n	100051f8 <xQueueSemaphoreTake+0x268>
1000520c:	f002 f916 	bl	1000743c <vPortYield>
10005210:	e7f2      	b.n	100051f8 <xQueueSemaphoreTake+0x268>
10005212:	46c0      	nop			; (mov r8, r8)

10005214 <xQueuePeek>:
10005214:	b5f0      	push	{r4, r5, r6, r7, lr}
10005216:	46ce      	mov	lr, r9
10005218:	4647      	mov	r7, r8
1000521a:	0004      	movs	r4, r0
1000521c:	b580      	push	{r7, lr}
1000521e:	b085      	sub	sp, #20
10005220:	4688      	mov	r8, r1
10005222:	9201      	str	r2, [sp, #4]
10005224:	f002 f916 	bl	10007454 <vPortEnterCritical>
10005228:	6ba3      	ldr	r3, [r4, #56]	; 0x38
1000522a:	2b00      	cmp	r3, #0
1000522c:	d000      	beq.n	10005230 <xQueuePeek+0x1c>
1000522e:	e11f      	b.n	10005470 <xQueuePeek+0x25c>
10005230:	9b01      	ldr	r3, [sp, #4]
10005232:	2b00      	cmp	r3, #0
10005234:	d100      	bne.n	10005238 <xQueuePeek+0x24>
10005236:	e0cb      	b.n	100053d0 <xQueuePeek+0x1bc>
10005238:	0026      	movs	r6, r4
1000523a:	a802      	add	r0, sp, #8
1000523c:	f001 fb74 	bl	10006928 <vTaskInternalSetTimeOutState>
10005240:	2744      	movs	r7, #68	; 0x44
10005242:	3624      	adds	r6, #36	; 0x24
10005244:	f002 f912 	bl	1000746c <vPortExitCritical>
10005248:	f001 f838 	bl	100062bc <vTaskSuspendAll>
1000524c:	f002 f902 	bl	10007454 <vPortEnterCritical>
10005250:	5de3      	ldrb	r3, [r4, r7]
10005252:	b25b      	sxtb	r3, r3
10005254:	3301      	adds	r3, #1
10005256:	d101      	bne.n	1000525c <xQueuePeek+0x48>
10005258:	2300      	movs	r3, #0
1000525a:	55e3      	strb	r3, [r4, r7]
1000525c:	2245      	movs	r2, #69	; 0x45
1000525e:	5ca3      	ldrb	r3, [r4, r2]
10005260:	b25b      	sxtb	r3, r3
10005262:	3301      	adds	r3, #1
10005264:	d101      	bne.n	1000526a <xQueuePeek+0x56>
10005266:	2300      	movs	r3, #0
10005268:	54a3      	strb	r3, [r4, r2]
1000526a:	f002 f8ff 	bl	1000746c <vPortExitCritical>
1000526e:	a901      	add	r1, sp, #4
10005270:	a802      	add	r0, sp, #8
10005272:	f001 fb61 	bl	10006938 <xTaskCheckForTimeOut>
10005276:	2800      	cmp	r0, #0
10005278:	d155      	bne.n	10005326 <xQueuePeek+0x112>
1000527a:	f002 f8eb 	bl	10007454 <vPortEnterCritical>
1000527e:	6ba3      	ldr	r3, [r4, #56]	; 0x38
10005280:	2b00      	cmp	r3, #0
10005282:	d000      	beq.n	10005286 <xQueuePeek+0x72>
10005284:	e0ac      	b.n	100053e0 <xQueuePeek+0x1cc>
10005286:	f002 f8f1 	bl	1000746c <vPortExitCritical>
1000528a:	0030      	movs	r0, r6
1000528c:	9901      	ldr	r1, [sp, #4]
1000528e:	f001 f9b9 	bl	10006604 <vTaskPlaceOnEventList>
10005292:	f002 f8df 	bl	10007454 <vPortEnterCritical>
10005296:	2345      	movs	r3, #69	; 0x45
10005298:	5ce5      	ldrb	r5, [r4, r3]
1000529a:	b26d      	sxtb	r5, r5
1000529c:	2d00      	cmp	r5, #0
1000529e:	dc05      	bgt.n	100052ac <xQueuePeek+0x98>
100052a0:	e013      	b.n	100052ca <xQueuePeek+0xb6>
100052a2:	3d01      	subs	r5, #1
100052a4:	b2ea      	uxtb	r2, r5
100052a6:	b26d      	sxtb	r5, r5
100052a8:	2a00      	cmp	r2, #0
100052aa:	d00e      	beq.n	100052ca <xQueuePeek+0xb6>
100052ac:	6a63      	ldr	r3, [r4, #36]	; 0x24
100052ae:	2b00      	cmp	r3, #0
100052b0:	d00b      	beq.n	100052ca <xQueuePeek+0xb6>
100052b2:	0030      	movs	r0, r6
100052b4:	f001 fa7c 	bl	100067b0 <xTaskRemoveFromEventList>
100052b8:	2800      	cmp	r0, #0
100052ba:	d0f2      	beq.n	100052a2 <xQueuePeek+0x8e>
100052bc:	3d01      	subs	r5, #1
100052be:	f001 fb63 	bl	10006988 <vTaskMissedYield>
100052c2:	b2ea      	uxtb	r2, r5
100052c4:	b26d      	sxtb	r5, r5
100052c6:	2a00      	cmp	r2, #0
100052c8:	d1f0      	bne.n	100052ac <xQueuePeek+0x98>
100052ca:	2345      	movs	r3, #69	; 0x45
100052cc:	22ff      	movs	r2, #255	; 0xff
100052ce:	54e2      	strb	r2, [r4, r3]
100052d0:	f002 f8cc 	bl	1000746c <vPortExitCritical>
100052d4:	f002 f8be 	bl	10007454 <vPortEnterCritical>
100052d8:	2310      	movs	r3, #16
100052da:	4699      	mov	r9, r3
100052dc:	5de5      	ldrb	r5, [r4, r7]
100052de:	44a1      	add	r9, r4
100052e0:	b26d      	sxtb	r5, r5
100052e2:	2d00      	cmp	r5, #0
100052e4:	dc05      	bgt.n	100052f2 <xQueuePeek+0xde>
100052e6:	e013      	b.n	10005310 <xQueuePeek+0xfc>
100052e8:	3d01      	subs	r5, #1
100052ea:	b2ea      	uxtb	r2, r5
100052ec:	b26d      	sxtb	r5, r5
100052ee:	2a00      	cmp	r2, #0
100052f0:	d00e      	beq.n	10005310 <xQueuePeek+0xfc>
100052f2:	6923      	ldr	r3, [r4, #16]
100052f4:	2b00      	cmp	r3, #0
100052f6:	d00b      	beq.n	10005310 <xQueuePeek+0xfc>
100052f8:	4648      	mov	r0, r9
100052fa:	f001 fa59 	bl	100067b0 <xTaskRemoveFromEventList>
100052fe:	2800      	cmp	r0, #0
10005300:	d0f2      	beq.n	100052e8 <xQueuePeek+0xd4>
10005302:	3d01      	subs	r5, #1
10005304:	f001 fb40 	bl	10006988 <vTaskMissedYield>
10005308:	b2ea      	uxtb	r2, r5
1000530a:	b26d      	sxtb	r5, r5
1000530c:	2a00      	cmp	r2, #0
1000530e:	d1f0      	bne.n	100052f2 <xQueuePeek+0xde>
10005310:	23ff      	movs	r3, #255	; 0xff
10005312:	55e3      	strb	r3, [r4, r7]
10005314:	f002 f8aa 	bl	1000746c <vPortExitCritical>
10005318:	f000 ffd8 	bl	100062cc <xTaskResumeAll>
1000531c:	2800      	cmp	r0, #0
1000531e:	d14e      	bne.n	100053be <xQueuePeek+0x1aa>
10005320:	f002 f88c 	bl	1000743c <vPortYield>
10005324:	e04b      	b.n	100053be <xQueuePeek+0x1aa>
10005326:	f002 f895 	bl	10007454 <vPortEnterCritical>
1000532a:	2345      	movs	r3, #69	; 0x45
1000532c:	5ce5      	ldrb	r5, [r4, r3]
1000532e:	b26d      	sxtb	r5, r5
10005330:	2d00      	cmp	r5, #0
10005332:	dc05      	bgt.n	10005340 <xQueuePeek+0x12c>
10005334:	e013      	b.n	1000535e <xQueuePeek+0x14a>
10005336:	3d01      	subs	r5, #1
10005338:	b2ea      	uxtb	r2, r5
1000533a:	b26d      	sxtb	r5, r5
1000533c:	2a00      	cmp	r2, #0
1000533e:	d00e      	beq.n	1000535e <xQueuePeek+0x14a>
10005340:	6a63      	ldr	r3, [r4, #36]	; 0x24
10005342:	2b00      	cmp	r3, #0
10005344:	d00b      	beq.n	1000535e <xQueuePeek+0x14a>
10005346:	0030      	movs	r0, r6
10005348:	f001 fa32 	bl	100067b0 <xTaskRemoveFromEventList>
1000534c:	2800      	cmp	r0, #0
1000534e:	d0f2      	beq.n	10005336 <xQueuePeek+0x122>
10005350:	3d01      	subs	r5, #1
10005352:	f001 fb19 	bl	10006988 <vTaskMissedYield>
10005356:	b2ea      	uxtb	r2, r5
10005358:	b26d      	sxtb	r5, r5
1000535a:	2a00      	cmp	r2, #0
1000535c:	d1f0      	bne.n	10005340 <xQueuePeek+0x12c>
1000535e:	2345      	movs	r3, #69	; 0x45
10005360:	22ff      	movs	r2, #255	; 0xff
10005362:	54e2      	strb	r2, [r4, r3]
10005364:	f002 f882 	bl	1000746c <vPortExitCritical>
10005368:	f002 f874 	bl	10007454 <vPortEnterCritical>
1000536c:	2310      	movs	r3, #16
1000536e:	4699      	mov	r9, r3
10005370:	5de5      	ldrb	r5, [r4, r7]
10005372:	44a1      	add	r9, r4
10005374:	b26d      	sxtb	r5, r5
10005376:	2d00      	cmp	r5, #0
10005378:	dc05      	bgt.n	10005386 <xQueuePeek+0x172>
1000537a:	e013      	b.n	100053a4 <xQueuePeek+0x190>
1000537c:	3d01      	subs	r5, #1
1000537e:	b2ea      	uxtb	r2, r5
10005380:	b26d      	sxtb	r5, r5
10005382:	2a00      	cmp	r2, #0
10005384:	d00e      	beq.n	100053a4 <xQueuePeek+0x190>
10005386:	6923      	ldr	r3, [r4, #16]
10005388:	2b00      	cmp	r3, #0
1000538a:	d00b      	beq.n	100053a4 <xQueuePeek+0x190>
1000538c:	4648      	mov	r0, r9
1000538e:	f001 fa0f 	bl	100067b0 <xTaskRemoveFromEventList>
10005392:	2800      	cmp	r0, #0
10005394:	d0f2      	beq.n	1000537c <xQueuePeek+0x168>
10005396:	3d01      	subs	r5, #1
10005398:	f001 faf6 	bl	10006988 <vTaskMissedYield>
1000539c:	b2ea      	uxtb	r2, r5
1000539e:	b26d      	sxtb	r5, r5
100053a0:	2a00      	cmp	r2, #0
100053a2:	d1f0      	bne.n	10005386 <xQueuePeek+0x172>
100053a4:	23ff      	movs	r3, #255	; 0xff
100053a6:	55e3      	strb	r3, [r4, r7]
100053a8:	f002 f860 	bl	1000746c <vPortExitCritical>
100053ac:	f000 ff8e 	bl	100062cc <xTaskResumeAll>
100053b0:	f002 f850 	bl	10007454 <vPortEnterCritical>
100053b4:	6ba3      	ldr	r3, [r4, #56]	; 0x38
100053b6:	2b00      	cmp	r3, #0
100053b8:	d00a      	beq.n	100053d0 <xQueuePeek+0x1bc>
100053ba:	f002 f857 	bl	1000746c <vPortExitCritical>
100053be:	f002 f849 	bl	10007454 <vPortEnterCritical>
100053c2:	6ba3      	ldr	r3, [r4, #56]	; 0x38
100053c4:	2b00      	cmp	r3, #0
100053c6:	d153      	bne.n	10005470 <xQueuePeek+0x25c>
100053c8:	9b01      	ldr	r3, [sp, #4]
100053ca:	2b00      	cmp	r3, #0
100053cc:	d000      	beq.n	100053d0 <xQueuePeek+0x1bc>
100053ce:	e739      	b.n	10005244 <xQueuePeek+0x30>
100053d0:	f002 f84c 	bl	1000746c <vPortExitCritical>
100053d4:	2000      	movs	r0, #0
100053d6:	b005      	add	sp, #20
100053d8:	bc0c      	pop	{r2, r3}
100053da:	4690      	mov	r8, r2
100053dc:	4699      	mov	r9, r3
100053de:	bdf0      	pop	{r4, r5, r6, r7, pc}
100053e0:	f002 f844 	bl	1000746c <vPortExitCritical>
100053e4:	f002 f836 	bl	10007454 <vPortEnterCritical>
100053e8:	2345      	movs	r3, #69	; 0x45
100053ea:	5ce5      	ldrb	r5, [r4, r3]
100053ec:	b26d      	sxtb	r5, r5
100053ee:	2d00      	cmp	r5, #0
100053f0:	dc05      	bgt.n	100053fe <xQueuePeek+0x1ea>
100053f2:	e013      	b.n	1000541c <xQueuePeek+0x208>
100053f4:	3d01      	subs	r5, #1
100053f6:	b2ea      	uxtb	r2, r5
100053f8:	b26d      	sxtb	r5, r5
100053fa:	2a00      	cmp	r2, #0
100053fc:	d00e      	beq.n	1000541c <xQueuePeek+0x208>
100053fe:	6a63      	ldr	r3, [r4, #36]	; 0x24
10005400:	2b00      	cmp	r3, #0
10005402:	d00b      	beq.n	1000541c <xQueuePeek+0x208>
10005404:	0030      	movs	r0, r6
10005406:	f001 f9d3 	bl	100067b0 <xTaskRemoveFromEventList>
1000540a:	2800      	cmp	r0, #0
1000540c:	d0f2      	beq.n	100053f4 <xQueuePeek+0x1e0>
1000540e:	3d01      	subs	r5, #1
10005410:	f001 faba 	bl	10006988 <vTaskMissedYield>
10005414:	b2ea      	uxtb	r2, r5
10005416:	b26d      	sxtb	r5, r5
10005418:	2a00      	cmp	r2, #0
1000541a:	d1f0      	bne.n	100053fe <xQueuePeek+0x1ea>
1000541c:	2345      	movs	r3, #69	; 0x45
1000541e:	22ff      	movs	r2, #255	; 0xff
10005420:	54e2      	strb	r2, [r4, r3]
10005422:	f002 f823 	bl	1000746c <vPortExitCritical>
10005426:	f002 f815 	bl	10007454 <vPortEnterCritical>
1000542a:	2310      	movs	r3, #16
1000542c:	4699      	mov	r9, r3
1000542e:	5de5      	ldrb	r5, [r4, r7]
10005430:	44a1      	add	r9, r4
10005432:	b26d      	sxtb	r5, r5
10005434:	2d00      	cmp	r5, #0
10005436:	dc05      	bgt.n	10005444 <xQueuePeek+0x230>
10005438:	e013      	b.n	10005462 <xQueuePeek+0x24e>
1000543a:	3d01      	subs	r5, #1
1000543c:	b2ea      	uxtb	r2, r5
1000543e:	b26d      	sxtb	r5, r5
10005440:	2a00      	cmp	r2, #0
10005442:	d00e      	beq.n	10005462 <xQueuePeek+0x24e>
10005444:	6923      	ldr	r3, [r4, #16]
10005446:	2b00      	cmp	r3, #0
10005448:	d00b      	beq.n	10005462 <xQueuePeek+0x24e>
1000544a:	4648      	mov	r0, r9
1000544c:	f001 f9b0 	bl	100067b0 <xTaskRemoveFromEventList>
10005450:	2800      	cmp	r0, #0
10005452:	d0f2      	beq.n	1000543a <xQueuePeek+0x226>
10005454:	3d01      	subs	r5, #1
10005456:	f001 fa97 	bl	10006988 <vTaskMissedYield>
1000545a:	b2ea      	uxtb	r2, r5
1000545c:	b26d      	sxtb	r5, r5
1000545e:	2a00      	cmp	r2, #0
10005460:	d1f0      	bne.n	10005444 <xQueuePeek+0x230>
10005462:	23ff      	movs	r3, #255	; 0xff
10005464:	55e3      	strb	r3, [r4, r7]
10005466:	f002 f801 	bl	1000746c <vPortExitCritical>
1000546a:	f000 ff2f 	bl	100062cc <xTaskResumeAll>
1000546e:	e7a6      	b.n	100053be <xQueuePeek+0x1aa>
10005470:	6c22      	ldr	r2, [r4, #64]	; 0x40
10005472:	68e5      	ldr	r5, [r4, #12]
10005474:	2a00      	cmp	r2, #0
10005476:	d007      	beq.n	10005488 <xQueuePeek+0x274>
10005478:	68a3      	ldr	r3, [r4, #8]
1000547a:	18a9      	adds	r1, r5, r2
1000547c:	60e1      	str	r1, [r4, #12]
1000547e:	4299      	cmp	r1, r3
10005480:	d20a      	bcs.n	10005498 <xQueuePeek+0x284>
10005482:	4640      	mov	r0, r8
10005484:	f7fc fd44 	bl	10001f10 <__wrap___aeabi_memcpy>
10005488:	6a63      	ldr	r3, [r4, #36]	; 0x24
1000548a:	60e5      	str	r5, [r4, #12]
1000548c:	2b00      	cmp	r3, #0
1000548e:	d106      	bne.n	1000549e <xQueuePeek+0x28a>
10005490:	f001 ffec 	bl	1000746c <vPortExitCritical>
10005494:	2001      	movs	r0, #1
10005496:	e79e      	b.n	100053d6 <xQueuePeek+0x1c2>
10005498:	6821      	ldr	r1, [r4, #0]
1000549a:	60e1      	str	r1, [r4, #12]
1000549c:	e7f1      	b.n	10005482 <xQueuePeek+0x26e>
1000549e:	0020      	movs	r0, r4
100054a0:	3024      	adds	r0, #36	; 0x24
100054a2:	f001 f985 	bl	100067b0 <xTaskRemoveFromEventList>
100054a6:	2800      	cmp	r0, #0
100054a8:	d0f2      	beq.n	10005490 <xQueuePeek+0x27c>
100054aa:	f001 ffc7 	bl	1000743c <vPortYield>
100054ae:	e7ef      	b.n	10005490 <xQueuePeek+0x27c>

100054b0 <xQueueReceiveFromISR>:
100054b0:	b5f8      	push	{r3, r4, r5, r6, r7, lr}
100054b2:	46ce      	mov	lr, r9
100054b4:	4647      	mov	r7, r8
100054b6:	0004      	movs	r4, r0
100054b8:	b580      	push	{r7, lr}
100054ba:	4689      	mov	r9, r1
100054bc:	4690      	mov	r8, r2
100054be:	f001 ffdf 	bl	10007480 <ulSetInterruptMaskFromISR>
100054c2:	6ba6      	ldr	r6, [r4, #56]	; 0x38
100054c4:	0005      	movs	r5, r0
100054c6:	2700      	movs	r7, #0
100054c8:	2e00      	cmp	r6, #0
100054ca:	d107      	bne.n	100054dc <xQueueReceiveFromISR+0x2c>
100054cc:	0028      	movs	r0, r5
100054ce:	f001 ffdb 	bl	10007488 <vClearInterruptMaskFromISR>
100054d2:	0038      	movs	r0, r7
100054d4:	bc0c      	pop	{r2, r3}
100054d6:	4690      	mov	r8, r2
100054d8:	4699      	mov	r9, r3
100054da:	bdf8      	pop	{r3, r4, r5, r6, r7, pc}
100054dc:	2344      	movs	r3, #68	; 0x44
100054de:	6c22      	ldr	r2, [r4, #64]	; 0x40
100054e0:	5ce7      	ldrb	r7, [r4, r3]
100054e2:	b27f      	sxtb	r7, r7
100054e4:	2a00      	cmp	r2, #0
100054e6:	d00a      	beq.n	100054fe <xQueueReceiveFromISR+0x4e>
100054e8:	68e3      	ldr	r3, [r4, #12]
100054ea:	1899      	adds	r1, r3, r2
100054ec:	68a3      	ldr	r3, [r4, #8]
100054ee:	60e1      	str	r1, [r4, #12]
100054f0:	4299      	cmp	r1, r3
100054f2:	d301      	bcc.n	100054f8 <xQueueReceiveFromISR+0x48>
100054f4:	6821      	ldr	r1, [r4, #0]
100054f6:	60e1      	str	r1, [r4, #12]
100054f8:	4648      	mov	r0, r9
100054fa:	f7fc fd09 	bl	10001f10 <__wrap___aeabi_memcpy>
100054fe:	3e01      	subs	r6, #1
10005500:	63a6      	str	r6, [r4, #56]	; 0x38
10005502:	1c7b      	adds	r3, r7, #1
10005504:	d104      	bne.n	10005510 <xQueueReceiveFromISR+0x60>
10005506:	6923      	ldr	r3, [r4, #16]
10005508:	2b00      	cmp	r3, #0
1000550a:	d10b      	bne.n	10005524 <xQueueReceiveFromISR+0x74>
1000550c:	2701      	movs	r7, #1
1000550e:	e7dd      	b.n	100054cc <xQueueReceiveFromISR+0x1c>
10005510:	f000 ffec 	bl	100064ec <uxTaskGetNumberOfTasks>
10005514:	4287      	cmp	r7, r0
10005516:	d2f9      	bcs.n	1000550c <xQueueReceiveFromISR+0x5c>
10005518:	2344      	movs	r3, #68	; 0x44
1000551a:	3701      	adds	r7, #1
1000551c:	b27f      	sxtb	r7, r7
1000551e:	54e7      	strb	r7, [r4, r3]
10005520:	2701      	movs	r7, #1
10005522:	e7d3      	b.n	100054cc <xQueueReceiveFromISR+0x1c>
10005524:	0020      	movs	r0, r4
10005526:	3010      	adds	r0, #16
10005528:	f001 f942 	bl	100067b0 <xTaskRemoveFromEventList>
1000552c:	2800      	cmp	r0, #0
1000552e:	d0ed      	beq.n	1000550c <xQueueReceiveFromISR+0x5c>
10005530:	4643      	mov	r3, r8
10005532:	2b00      	cmp	r3, #0
10005534:	d0ea      	beq.n	1000550c <xQueueReceiveFromISR+0x5c>
10005536:	2301      	movs	r3, #1
10005538:	4642      	mov	r2, r8
1000553a:	2701      	movs	r7, #1
1000553c:	6013      	str	r3, [r2, #0]
1000553e:	e7c5      	b.n	100054cc <xQueueReceiveFromISR+0x1c>

10005540 <xQueuePeekFromISR>:
10005540:	b5f8      	push	{r3, r4, r5, r6, r7, lr}
10005542:	0004      	movs	r4, r0
10005544:	000f      	movs	r7, r1
10005546:	f001 ff9b 	bl	10007480 <ulSetInterruptMaskFromISR>
1000554a:	6ba3      	ldr	r3, [r4, #56]	; 0x38
1000554c:	0005      	movs	r5, r0
1000554e:	2600      	movs	r6, #0
10005550:	2b00      	cmp	r3, #0
10005552:	d104      	bne.n	1000555e <xQueuePeekFromISR+0x1e>
10005554:	0028      	movs	r0, r5
10005556:	f001 ff97 	bl	10007488 <vClearInterruptMaskFromISR>
1000555a:	0030      	movs	r0, r6
1000555c:	bdf8      	pop	{r3, r4, r5, r6, r7, pc}
1000555e:	6c22      	ldr	r2, [r4, #64]	; 0x40
10005560:	68e6      	ldr	r6, [r4, #12]
10005562:	2a00      	cmp	r2, #0
10005564:	d009      	beq.n	1000557a <xQueuePeekFromISR+0x3a>
10005566:	68a3      	ldr	r3, [r4, #8]
10005568:	18b1      	adds	r1, r6, r2
1000556a:	60e1      	str	r1, [r4, #12]
1000556c:	4299      	cmp	r1, r3
1000556e:	d301      	bcc.n	10005574 <xQueuePeekFromISR+0x34>
10005570:	6821      	ldr	r1, [r4, #0]
10005572:	60e1      	str	r1, [r4, #12]
10005574:	0038      	movs	r0, r7
10005576:	f7fc fccb 	bl	10001f10 <__wrap___aeabi_memcpy>
1000557a:	60e6      	str	r6, [r4, #12]
1000557c:	2601      	movs	r6, #1
1000557e:	e7e9      	b.n	10005554 <xQueuePeekFromISR+0x14>

10005580 <uxQueueMessagesWaiting>:
10005580:	b510      	push	{r4, lr}
10005582:	0004      	movs	r4, r0
10005584:	f001 ff66 	bl	10007454 <vPortEnterCritical>
10005588:	6ba4      	ldr	r4, [r4, #56]	; 0x38
1000558a:	f001 ff6f 	bl	1000746c <vPortExitCritical>
1000558e:	0020      	movs	r0, r4
10005590:	bd10      	pop	{r4, pc}
10005592:	46c0      	nop			; (mov r8, r8)

10005594 <uxQueueSpacesAvailable>:
10005594:	b510      	push	{r4, lr}
10005596:	0004      	movs	r4, r0
10005598:	f001 ff5c 	bl	10007454 <vPortEnterCritical>
1000559c:	6ba3      	ldr	r3, [r4, #56]	; 0x38
1000559e:	6be4      	ldr	r4, [r4, #60]	; 0x3c
100055a0:	1ae4      	subs	r4, r4, r3
100055a2:	f001 ff63 	bl	1000746c <vPortExitCritical>
100055a6:	0020      	movs	r0, r4
100055a8:	bd10      	pop	{r4, pc}
100055aa:	46c0      	nop			; (mov r8, r8)

100055ac <uxQueueMessagesWaitingFromISR>:
100055ac:	6b80      	ldr	r0, [r0, #56]	; 0x38
100055ae:	4770      	bx	lr

100055b0 <vQueueDelete>:
100055b0:	4b1d      	ldr	r3, [pc, #116]	; (10005628 <vQueueDelete+0x78>)
100055b2:	b510      	push	{r4, lr}
100055b4:	685a      	ldr	r2, [r3, #4]
100055b6:	4290      	cmp	r0, r2
100055b8:	d01d      	beq.n	100055f6 <vQueueDelete+0x46>
100055ba:	68da      	ldr	r2, [r3, #12]
100055bc:	4290      	cmp	r0, r2
100055be:	d021      	beq.n	10005604 <vQueueDelete+0x54>
100055c0:	695a      	ldr	r2, [r3, #20]
100055c2:	4290      	cmp	r0, r2
100055c4:	d020      	beq.n	10005608 <vQueueDelete+0x58>
100055c6:	69da      	ldr	r2, [r3, #28]
100055c8:	4290      	cmp	r0, r2
100055ca:	d01f      	beq.n	1000560c <vQueueDelete+0x5c>
100055cc:	6a5a      	ldr	r2, [r3, #36]	; 0x24
100055ce:	4290      	cmp	r0, r2
100055d0:	d01e      	beq.n	10005610 <vQueueDelete+0x60>
100055d2:	6ada      	ldr	r2, [r3, #44]	; 0x2c
100055d4:	4290      	cmp	r0, r2
100055d6:	d01d      	beq.n	10005614 <vQueueDelete+0x64>
100055d8:	6b5a      	ldr	r2, [r3, #52]	; 0x34
100055da:	4290      	cmp	r0, r2
100055dc:	d01c      	beq.n	10005618 <vQueueDelete+0x68>
100055de:	6bda      	ldr	r2, [r3, #60]	; 0x3c
100055e0:	4290      	cmp	r0, r2
100055e2:	d01b      	beq.n	1000561c <vQueueDelete+0x6c>
100055e4:	6c5a      	ldr	r2, [r3, #68]	; 0x44
100055e6:	4290      	cmp	r0, r2
100055e8:	d01a      	beq.n	10005620 <vQueueDelete+0x70>
100055ea:	6cda      	ldr	r2, [r3, #76]	; 0x4c
100055ec:	4290      	cmp	r0, r2
100055ee:	d019      	beq.n	10005624 <vQueueDelete+0x74>
100055f0:	f001 fee0 	bl	100073b4 <vPortFree>
100055f4:	bd10      	pop	{r4, pc}
100055f6:	2200      	movs	r2, #0
100055f8:	2100      	movs	r1, #0
100055fa:	00d2      	lsls	r2, r2, #3
100055fc:	5099      	str	r1, [r3, r2]
100055fe:	189b      	adds	r3, r3, r2
10005600:	6059      	str	r1, [r3, #4]
10005602:	e7f5      	b.n	100055f0 <vQueueDelete+0x40>
10005604:	2201      	movs	r2, #1
10005606:	e7f7      	b.n	100055f8 <vQueueDelete+0x48>
10005608:	2202      	movs	r2, #2
1000560a:	e7f5      	b.n	100055f8 <vQueueDelete+0x48>
1000560c:	2203      	movs	r2, #3
1000560e:	e7f3      	b.n	100055f8 <vQueueDelete+0x48>
10005610:	2204      	movs	r2, #4
10005612:	e7f1      	b.n	100055f8 <vQueueDelete+0x48>
10005614:	2205      	movs	r2, #5
10005616:	e7ef      	b.n	100055f8 <vQueueDelete+0x48>
10005618:	2206      	movs	r2, #6
1000561a:	e7ed      	b.n	100055f8 <vQueueDelete+0x48>
1000561c:	2207      	movs	r2, #7
1000561e:	e7eb      	b.n	100055f8 <vQueueDelete+0x48>
10005620:	2208      	movs	r2, #8
10005622:	e7e9      	b.n	100055f8 <vQueueDelete+0x48>
10005624:	2209      	movs	r2, #9
10005626:	e7e7      	b.n	100055f8 <vQueueDelete+0x48>
10005628:	20001c1c 	.word	0x20001c1c

1000562c <xQueueIsQueueEmptyFromISR>:
1000562c:	6b80      	ldr	r0, [r0, #56]	; 0x38
1000562e:	4243      	negs	r3, r0
10005630:	4158      	adcs	r0, r3
10005632:	4770      	bx	lr

10005634 <xQueueIsQueueFullFromISR>:
10005634:	6b83      	ldr	r3, [r0, #56]	; 0x38
10005636:	6bc0      	ldr	r0, [r0, #60]	; 0x3c
10005638:	1ac0      	subs	r0, r0, r3
1000563a:	4243      	negs	r3, r0
1000563c:	4158      	adcs	r0, r3
1000563e:	4770      	bx	lr

10005640 <vQueueAddToRegistry>:
10005640:	b570      	push	{r4, r5, r6, lr}
10005642:	2900      	cmp	r1, #0
10005644:	d00f      	beq.n	10005666 <vQueueAddToRegistry+0x26>
10005646:	2600      	movs	r6, #0
10005648:	2300      	movs	r3, #0
1000564a:	4c42      	ldr	r4, [pc, #264]	; (10005754 <vQueueAddToRegistry+0x114>)
1000564c:	00da      	lsls	r2, r3, #3
1000564e:	18a5      	adds	r5, r4, r2
10005650:	686d      	ldr	r5, [r5, #4]
10005652:	4285      	cmp	r5, r0
10005654:	d100      	bne.n	10005658 <vQueueAddToRegistry+0x18>
10005656:	e06f      	b.n	10005738 <vQueueAddToRegistry+0xf8>
10005658:	2e00      	cmp	r6, #0
1000565a:	d005      	beq.n	10005668 <vQueueAddToRegistry+0x28>
1000565c:	3301      	adds	r3, #1
1000565e:	2b0a      	cmp	r3, #10
10005660:	d1f4      	bne.n	1000564c <vQueueAddToRegistry+0xc>
10005662:	6031      	str	r1, [r6, #0]
10005664:	6070      	str	r0, [r6, #4]
10005666:	bd70      	pop	{r4, r5, r6, pc}
10005668:	58a5      	ldr	r5, [r4, r2]
1000566a:	2d00      	cmp	r5, #0
1000566c:	d061      	beq.n	10005732 <vQueueAddToRegistry+0xf2>
1000566e:	1c5d      	adds	r5, r3, #1
10005670:	2b09      	cmp	r3, #9
10005672:	d0f8      	beq.n	10005666 <vQueueAddToRegistry+0x26>
10005674:	00ea      	lsls	r2, r5, #3
10005676:	18a6      	adds	r6, r4, r2
10005678:	6876      	ldr	r6, [r6, #4]
1000567a:	42b0      	cmp	r0, r6
1000567c:	d05c      	beq.n	10005738 <vQueueAddToRegistry+0xf8>
1000567e:	58a6      	ldr	r6, [r4, r2]
10005680:	2e00      	cmp	r6, #0
10005682:	d05d      	beq.n	10005740 <vQueueAddToRegistry+0x100>
10005684:	1c9d      	adds	r5, r3, #2
10005686:	2b08      	cmp	r3, #8
10005688:	d0ed      	beq.n	10005666 <vQueueAddToRegistry+0x26>
1000568a:	00ea      	lsls	r2, r5, #3
1000568c:	18a6      	adds	r6, r4, r2
1000568e:	6876      	ldr	r6, [r6, #4]
10005690:	42b0      	cmp	r0, r6
10005692:	d051      	beq.n	10005738 <vQueueAddToRegistry+0xf8>
10005694:	58a6      	ldr	r6, [r4, r2]
10005696:	2e00      	cmp	r6, #0
10005698:	d052      	beq.n	10005740 <vQueueAddToRegistry+0x100>
1000569a:	1cdd      	adds	r5, r3, #3
1000569c:	2b07      	cmp	r3, #7
1000569e:	d0e2      	beq.n	10005666 <vQueueAddToRegistry+0x26>
100056a0:	00ea      	lsls	r2, r5, #3
100056a2:	18a6      	adds	r6, r4, r2
100056a4:	6876      	ldr	r6, [r6, #4]
100056a6:	4286      	cmp	r6, r0
100056a8:	d046      	beq.n	10005738 <vQueueAddToRegistry+0xf8>
100056aa:	58a6      	ldr	r6, [r4, r2]
100056ac:	2e00      	cmp	r6, #0
100056ae:	d047      	beq.n	10005740 <vQueueAddToRegistry+0x100>
100056b0:	1d1d      	adds	r5, r3, #4
100056b2:	2b06      	cmp	r3, #6
100056b4:	d0d7      	beq.n	10005666 <vQueueAddToRegistry+0x26>
100056b6:	00ea      	lsls	r2, r5, #3
100056b8:	18a6      	adds	r6, r4, r2
100056ba:	6876      	ldr	r6, [r6, #4]
100056bc:	42b0      	cmp	r0, r6
100056be:	d03b      	beq.n	10005738 <vQueueAddToRegistry+0xf8>
100056c0:	58a6      	ldr	r6, [r4, r2]
100056c2:	2e00      	cmp	r6, #0
100056c4:	d03c      	beq.n	10005740 <vQueueAddToRegistry+0x100>
100056c6:	1d5d      	adds	r5, r3, #5
100056c8:	2b05      	cmp	r3, #5
100056ca:	d0cc      	beq.n	10005666 <vQueueAddToRegistry+0x26>
100056cc:	00ea      	lsls	r2, r5, #3
100056ce:	18a6      	adds	r6, r4, r2
100056d0:	6876      	ldr	r6, [r6, #4]
100056d2:	42b0      	cmp	r0, r6
100056d4:	d030      	beq.n	10005738 <vQueueAddToRegistry+0xf8>
100056d6:	58a6      	ldr	r6, [r4, r2]
100056d8:	2e00      	cmp	r6, #0
100056da:	d031      	beq.n	10005740 <vQueueAddToRegistry+0x100>
100056dc:	1d9a      	adds	r2, r3, #6
100056de:	2b04      	cmp	r3, #4
100056e0:	d0c1      	beq.n	10005666 <vQueueAddToRegistry+0x26>
100056e2:	00d5      	lsls	r5, r2, #3
100056e4:	1966      	adds	r6, r4, r5
100056e6:	6876      	ldr	r6, [r6, #4]
100056e8:	42b0      	cmp	r0, r6
100056ea:	d024      	beq.n	10005736 <vQueueAddToRegistry+0xf6>
100056ec:	5965      	ldr	r5, [r4, r5]
100056ee:	2d00      	cmp	r5, #0
100056f0:	d029      	beq.n	10005746 <vQueueAddToRegistry+0x106>
100056f2:	1ddd      	adds	r5, r3, #7
100056f4:	2b03      	cmp	r3, #3
100056f6:	d0b6      	beq.n	10005666 <vQueueAddToRegistry+0x26>
100056f8:	00ea      	lsls	r2, r5, #3
100056fa:	18a6      	adds	r6, r4, r2
100056fc:	6876      	ldr	r6, [r6, #4]
100056fe:	42b0      	cmp	r0, r6
10005700:	d01a      	beq.n	10005738 <vQueueAddToRegistry+0xf8>
10005702:	58a6      	ldr	r6, [r4, r2]
10005704:	2e00      	cmp	r6, #0
10005706:	d01b      	beq.n	10005740 <vQueueAddToRegistry+0x100>
10005708:	3501      	adds	r5, #1
1000570a:	2b02      	cmp	r3, #2
1000570c:	d0ab      	beq.n	10005666 <vQueueAddToRegistry+0x26>
1000570e:	00ea      	lsls	r2, r5, #3
10005710:	18a6      	adds	r6, r4, r2
10005712:	6876      	ldr	r6, [r6, #4]
10005714:	42b0      	cmp	r0, r6
10005716:	d00f      	beq.n	10005738 <vQueueAddToRegistry+0xf8>
10005718:	58a6      	ldr	r6, [r4, r2]
1000571a:	2e00      	cmp	r6, #0
1000571c:	d010      	beq.n	10005740 <vQueueAddToRegistry+0x100>
1000571e:	2b01      	cmp	r3, #1
10005720:	d0a1      	beq.n	10005666 <vQueueAddToRegistry+0x26>
10005722:	6ce3      	ldr	r3, [r4, #76]	; 0x4c
10005724:	4298      	cmp	r0, r3
10005726:	d012      	beq.n	1000574e <vQueueAddToRegistry+0x10e>
10005728:	6ca3      	ldr	r3, [r4, #72]	; 0x48
1000572a:	2b00      	cmp	r3, #0
1000572c:	d19b      	bne.n	10005666 <vQueueAddToRegistry+0x26>
1000572e:	2309      	movs	r3, #9
10005730:	2248      	movs	r2, #72	; 0x48
10005732:	18a6      	adds	r6, r4, r2
10005734:	e792      	b.n	1000565c <vQueueAddToRegistry+0x1c>
10005736:	00d2      	lsls	r2, r2, #3
10005738:	18a6      	adds	r6, r4, r2
1000573a:	6031      	str	r1, [r6, #0]
1000573c:	6070      	str	r0, [r6, #4]
1000573e:	e792      	b.n	10005666 <vQueueAddToRegistry+0x26>
10005740:	002b      	movs	r3, r5
10005742:	18a6      	adds	r6, r4, r2
10005744:	e78a      	b.n	1000565c <vQueueAddToRegistry+0x1c>
10005746:	0013      	movs	r3, r2
10005748:	00d2      	lsls	r2, r2, #3
1000574a:	18a6      	adds	r6, r4, r2
1000574c:	e786      	b.n	1000565c <vQueueAddToRegistry+0x1c>
1000574e:	2248      	movs	r2, #72	; 0x48
10005750:	18a6      	adds	r6, r4, r2
10005752:	e7f2      	b.n	1000573a <vQueueAddToRegistry+0xfa>
10005754:	20001c1c 	.word	0x20001c1c

10005758 <pcQueueGetName>:
10005758:	4a1b      	ldr	r2, [pc, #108]	; (100057c8 <pcQueueGetName+0x70>)
1000575a:	0003      	movs	r3, r0
1000575c:	6851      	ldr	r1, [r2, #4]
1000575e:	4288      	cmp	r0, r1
10005760:	d01c      	beq.n	1000579c <pcQueueGetName+0x44>
10005762:	68d1      	ldr	r1, [r2, #12]
10005764:	4288      	cmp	r0, r1
10005766:	d01d      	beq.n	100057a4 <pcQueueGetName+0x4c>
10005768:	6951      	ldr	r1, [r2, #20]
1000576a:	4288      	cmp	r0, r1
1000576c:	d01c      	beq.n	100057a8 <pcQueueGetName+0x50>
1000576e:	69d1      	ldr	r1, [r2, #28]
10005770:	4288      	cmp	r0, r1
10005772:	d01b      	beq.n	100057ac <pcQueueGetName+0x54>
10005774:	6a51      	ldr	r1, [r2, #36]	; 0x24
10005776:	4288      	cmp	r0, r1
10005778:	d01a      	beq.n	100057b0 <pcQueueGetName+0x58>
1000577a:	6ad1      	ldr	r1, [r2, #44]	; 0x2c
1000577c:	4288      	cmp	r0, r1
1000577e:	d019      	beq.n	100057b4 <pcQueueGetName+0x5c>
10005780:	6b51      	ldr	r1, [r2, #52]	; 0x34
10005782:	4288      	cmp	r0, r1
10005784:	d018      	beq.n	100057b8 <pcQueueGetName+0x60>
10005786:	6bd1      	ldr	r1, [r2, #60]	; 0x3c
10005788:	4288      	cmp	r0, r1
1000578a:	d017      	beq.n	100057bc <pcQueueGetName+0x64>
1000578c:	6c51      	ldr	r1, [r2, #68]	; 0x44
1000578e:	4288      	cmp	r0, r1
10005790:	d016      	beq.n	100057c0 <pcQueueGetName+0x68>
10005792:	6cd1      	ldr	r1, [r2, #76]	; 0x4c
10005794:	2000      	movs	r0, #0
10005796:	4299      	cmp	r1, r3
10005798:	d014      	beq.n	100057c4 <pcQueueGetName+0x6c>
1000579a:	4770      	bx	lr
1000579c:	2300      	movs	r3, #0
1000579e:	00db      	lsls	r3, r3, #3
100057a0:	58d0      	ldr	r0, [r2, r3]
100057a2:	e7fa      	b.n	1000579a <pcQueueGetName+0x42>
100057a4:	2301      	movs	r3, #1
100057a6:	e7fa      	b.n	1000579e <pcQueueGetName+0x46>
100057a8:	2302      	movs	r3, #2
100057aa:	e7f8      	b.n	1000579e <pcQueueGetName+0x46>
100057ac:	2303      	movs	r3, #3
100057ae:	e7f6      	b.n	1000579e <pcQueueGetName+0x46>
100057b0:	2304      	movs	r3, #4
100057b2:	e7f4      	b.n	1000579e <pcQueueGetName+0x46>
100057b4:	2305      	movs	r3, #5
100057b6:	e7f2      	b.n	1000579e <pcQueueGetName+0x46>
100057b8:	2306      	movs	r3, #6
100057ba:	e7f0      	b.n	1000579e <pcQueueGetName+0x46>
100057bc:	2307      	movs	r3, #7
100057be:	e7ee      	b.n	1000579e <pcQueueGetName+0x46>
100057c0:	2308      	movs	r3, #8
100057c2:	e7ec      	b.n	1000579e <pcQueueGetName+0x46>
100057c4:	2309      	movs	r3, #9
100057c6:	e7ea      	b.n	1000579e <pcQueueGetName+0x46>
100057c8:	20001c1c 	.word	0x20001c1c

100057cc <vQueueUnregisterQueue>:
100057cc:	4b1c      	ldr	r3, [pc, #112]	; (10005840 <vQueueUnregisterQueue+0x74>)
100057ce:	685a      	ldr	r2, [r3, #4]
100057d0:	4290      	cmp	r0, r2
100057d2:	d01b      	beq.n	1000580c <vQueueUnregisterQueue+0x40>
100057d4:	68da      	ldr	r2, [r3, #12]
100057d6:	4290      	cmp	r0, r2
100057d8:	d01f      	beq.n	1000581a <vQueueUnregisterQueue+0x4e>
100057da:	695a      	ldr	r2, [r3, #20]
100057dc:	4290      	cmp	r0, r2
100057de:	d01e      	beq.n	1000581e <vQueueUnregisterQueue+0x52>
100057e0:	69da      	ldr	r2, [r3, #28]
100057e2:	4290      	cmp	r0, r2
100057e4:	d01d      	beq.n	10005822 <vQueueUnregisterQueue+0x56>
100057e6:	6a5a      	ldr	r2, [r3, #36]	; 0x24
100057e8:	4290      	cmp	r0, r2
100057ea:	d01c      	beq.n	10005826 <vQueueUnregisterQueue+0x5a>
100057ec:	6ada      	ldr	r2, [r3, #44]	; 0x2c
100057ee:	4290      	cmp	r0, r2
100057f0:	d01b      	beq.n	1000582a <vQueueUnregisterQueue+0x5e>
100057f2:	6b5a      	ldr	r2, [r3, #52]	; 0x34
100057f4:	4290      	cmp	r0, r2
100057f6:	d01a      	beq.n	1000582e <vQueueUnregisterQueue+0x62>
100057f8:	6bda      	ldr	r2, [r3, #60]	; 0x3c
100057fa:	4290      	cmp	r0, r2
100057fc:	d019      	beq.n	10005832 <vQueueUnregisterQueue+0x66>
100057fe:	6c5a      	ldr	r2, [r3, #68]	; 0x44
10005800:	4290      	cmp	r0, r2
10005802:	d018      	beq.n	10005836 <vQueueUnregisterQueue+0x6a>
10005804:	6cda      	ldr	r2, [r3, #76]	; 0x4c
10005806:	4282      	cmp	r2, r0
10005808:	d017      	beq.n	1000583a <vQueueUnregisterQueue+0x6e>
1000580a:	4770      	bx	lr
1000580c:	2200      	movs	r2, #0
1000580e:	2100      	movs	r1, #0
10005810:	00d2      	lsls	r2, r2, #3
10005812:	5099      	str	r1, [r3, r2]
10005814:	189b      	adds	r3, r3, r2
10005816:	6059      	str	r1, [r3, #4]
10005818:	e7f7      	b.n	1000580a <vQueueUnregisterQueue+0x3e>
1000581a:	2201      	movs	r2, #1
1000581c:	e7f7      	b.n	1000580e <vQueueUnregisterQueue+0x42>
1000581e:	2202      	movs	r2, #2
10005820:	e7f5      	b.n	1000580e <vQueueUnregisterQueue+0x42>
10005822:	2203      	movs	r2, #3
10005824:	e7f3      	b.n	1000580e <vQueueUnregisterQueue+0x42>
10005826:	2204      	movs	r2, #4
10005828:	e7f1      	b.n	1000580e <vQueueUnregisterQueue+0x42>
1000582a:	2205      	movs	r2, #5
1000582c:	e7ef      	b.n	1000580e <vQueueUnregisterQueue+0x42>
1000582e:	2206      	movs	r2, #6
10005830:	e7ed      	b.n	1000580e <vQueueUnregisterQueue+0x42>
10005832:	2207      	movs	r2, #7
10005834:	e7eb      	b.n	1000580e <vQueueUnregisterQueue+0x42>
10005836:	2208      	movs	r2, #8
10005838:	e7e9      	b.n	1000580e <vQueueUnregisterQueue+0x42>
1000583a:	2209      	movs	r2, #9
1000583c:	e7e7      	b.n	1000580e <vQueueUnregisterQueue+0x42>
1000583e:	46c0      	nop			; (mov r8, r8)
10005840:	20001c1c 	.word	0x20001c1c

10005844 <vQueueWaitForMessageRestricted>:
10005844:	b570      	push	{r4, r5, r6, lr}
10005846:	0004      	movs	r4, r0
10005848:	0016      	movs	r6, r2
1000584a:	000d      	movs	r5, r1
1000584c:	f001 fe02 	bl	10007454 <vPortEnterCritical>
10005850:	2244      	movs	r2, #68	; 0x44
10005852:	5ca3      	ldrb	r3, [r4, r2]
10005854:	b25b      	sxtb	r3, r3
10005856:	3301      	adds	r3, #1
10005858:	d101      	bne.n	1000585e <vQueueWaitForMessageRestricted+0x1a>
1000585a:	2300      	movs	r3, #0
1000585c:	54a3      	strb	r3, [r4, r2]
1000585e:	2245      	movs	r2, #69	; 0x45
10005860:	5ca3      	ldrb	r3, [r4, r2]
10005862:	b25b      	sxtb	r3, r3
10005864:	3301      	adds	r3, #1
10005866:	d101      	bne.n	1000586c <vQueueWaitForMessageRestricted+0x28>
10005868:	2300      	movs	r3, #0
1000586a:	54a3      	strb	r3, [r4, r2]
1000586c:	f001 fdfe 	bl	1000746c <vPortExitCritical>
10005870:	6ba3      	ldr	r3, [r4, #56]	; 0x38
10005872:	2b00      	cmp	r3, #0
10005874:	d046      	beq.n	10005904 <vQueueWaitForMessageRestricted+0xc0>
10005876:	f001 fded 	bl	10007454 <vPortEnterCritical>
1000587a:	2345      	movs	r3, #69	; 0x45
1000587c:	5ce5      	ldrb	r5, [r4, r3]
1000587e:	b26d      	sxtb	r5, r5
10005880:	2d00      	cmp	r5, #0
10005882:	dd16      	ble.n	100058b2 <vQueueWaitForMessageRestricted+0x6e>
10005884:	0026      	movs	r6, r4
10005886:	3624      	adds	r6, #36	; 0x24
10005888:	e004      	b.n	10005894 <vQueueWaitForMessageRestricted+0x50>
1000588a:	3d01      	subs	r5, #1
1000588c:	b2eb      	uxtb	r3, r5
1000588e:	b26d      	sxtb	r5, r5
10005890:	2b00      	cmp	r3, #0
10005892:	d00e      	beq.n	100058b2 <vQueueWaitForMessageRestricted+0x6e>
10005894:	6a63      	ldr	r3, [r4, #36]	; 0x24
10005896:	2b00      	cmp	r3, #0
10005898:	d00b      	beq.n	100058b2 <vQueueWaitForMessageRestricted+0x6e>
1000589a:	0030      	movs	r0, r6
1000589c:	f000 ff88 	bl	100067b0 <xTaskRemoveFromEventList>
100058a0:	2800      	cmp	r0, #0
100058a2:	d0f2      	beq.n	1000588a <vQueueWaitForMessageRestricted+0x46>
100058a4:	3d01      	subs	r5, #1
100058a6:	f001 f86f 	bl	10006988 <vTaskMissedYield>
100058aa:	b2eb      	uxtb	r3, r5
100058ac:	b26d      	sxtb	r5, r5
100058ae:	2b00      	cmp	r3, #0
100058b0:	d1f0      	bne.n	10005894 <vQueueWaitForMessageRestricted+0x50>
100058b2:	2345      	movs	r3, #69	; 0x45
100058b4:	22ff      	movs	r2, #255	; 0xff
100058b6:	54e2      	strb	r2, [r4, r3]
100058b8:	f001 fdd8 	bl	1000746c <vPortExitCritical>
100058bc:	f001 fdca 	bl	10007454 <vPortEnterCritical>
100058c0:	2344      	movs	r3, #68	; 0x44
100058c2:	5ce5      	ldrb	r5, [r4, r3]
100058c4:	b26d      	sxtb	r5, r5
100058c6:	2d00      	cmp	r5, #0
100058c8:	dd16      	ble.n	100058f8 <vQueueWaitForMessageRestricted+0xb4>
100058ca:	0026      	movs	r6, r4
100058cc:	3610      	adds	r6, #16
100058ce:	e004      	b.n	100058da <vQueueWaitForMessageRestricted+0x96>
100058d0:	3d01      	subs	r5, #1
100058d2:	b2eb      	uxtb	r3, r5
100058d4:	b26d      	sxtb	r5, r5
100058d6:	2b00      	cmp	r3, #0
100058d8:	d00e      	beq.n	100058f8 <vQueueWaitForMessageRestricted+0xb4>
100058da:	6923      	ldr	r3, [r4, #16]
100058dc:	2b00      	cmp	r3, #0
100058de:	d00b      	beq.n	100058f8 <vQueueWaitForMessageRestricted+0xb4>
100058e0:	0030      	movs	r0, r6
100058e2:	f000 ff65 	bl	100067b0 <xTaskRemoveFromEventList>
100058e6:	2800      	cmp	r0, #0
100058e8:	d0f2      	beq.n	100058d0 <vQueueWaitForMessageRestricted+0x8c>
100058ea:	3d01      	subs	r5, #1
100058ec:	f001 f84c 	bl	10006988 <vTaskMissedYield>
100058f0:	b2eb      	uxtb	r3, r5
100058f2:	b26d      	sxtb	r5, r5
100058f4:	2b00      	cmp	r3, #0
100058f6:	d1f0      	bne.n	100058da <vQueueWaitForMessageRestricted+0x96>
100058f8:	2344      	movs	r3, #68	; 0x44
100058fa:	22ff      	movs	r2, #255	; 0xff
100058fc:	54e2      	strb	r2, [r4, r3]
100058fe:	f001 fdb5 	bl	1000746c <vPortExitCritical>
10005902:	bd70      	pop	{r4, r5, r6, pc}
10005904:	0020      	movs	r0, r4
10005906:	0032      	movs	r2, r6
10005908:	0029      	movs	r1, r5
1000590a:	3024      	adds	r0, #36	; 0x24
1000590c:	f000 ff02 	bl	10006714 <vTaskPlaceOnEventListRestricted>
10005910:	e7b1      	b.n	10005876 <vQueueWaitForMessageRestricted+0x32>
10005912:	46c0      	nop			; (mov r8, r8)

10005914 <prvIdleTask>:
10005914:	b570      	push	{r4, r5, r6, lr}
10005916:	4c10      	ldr	r4, [pc, #64]	; (10005958 <prvIdleTask+0x44>)
10005918:	e014      	b.n	10005944 <prvIdleTask+0x30>
1000591a:	f001 fd9b 	bl	10007454 <vPortEnterCritical>
1000591e:	6923      	ldr	r3, [r4, #16]
10005920:	68dd      	ldr	r5, [r3, #12]
10005922:	1d28      	adds	r0, r5, #4
10005924:	f001 fe52 	bl	100075cc <uxListRemove>
10005928:	69a3      	ldr	r3, [r4, #24]
1000592a:	3b01      	subs	r3, #1
1000592c:	61a3      	str	r3, [r4, #24]
1000592e:	6823      	ldr	r3, [r4, #0]
10005930:	3b01      	subs	r3, #1
10005932:	6023      	str	r3, [r4, #0]
10005934:	f001 fd9a 	bl	1000746c <vPortExitCritical>
10005938:	6b28      	ldr	r0, [r5, #48]	; 0x30
1000593a:	f001 fd3b 	bl	100073b4 <vPortFree>
1000593e:	0028      	movs	r0, r5
10005940:	f001 fd38 	bl	100073b4 <vPortFree>
10005944:	6823      	ldr	r3, [r4, #0]
10005946:	2b00      	cmp	r3, #0
10005948:	d1e7      	bne.n	1000591a <prvIdleTask+0x6>
1000594a:	69e3      	ldr	r3, [r4, #28]
1000594c:	2b01      	cmp	r3, #1
1000594e:	d9f9      	bls.n	10005944 <prvIdleTask+0x30>
10005950:	f001 fd74 	bl	1000743c <vPortYield>
10005954:	e7f6      	b.n	10005944 <prvIdleTask+0x30>
10005956:	46c0      	nop			; (mov r8, r8)
10005958:	20000e5c 	.word	0x20000e5c

1000595c <prvAddCurrentTaskToDelayedList>:
1000595c:	b5f8      	push	{r3, r4, r5, r6, r7, lr}
1000595e:	0004      	movs	r4, r0
10005960:	4d1a      	ldr	r5, [pc, #104]	; (100059cc <prvAddCurrentTaskToDelayedList+0x70>)
10005962:	000e      	movs	r6, r1
10005964:	682f      	ldr	r7, [r5, #0]
10005966:	6868      	ldr	r0, [r5, #4]
10005968:	3004      	adds	r0, #4
1000596a:	f001 fe2f 	bl	100075cc <uxListRemove>
1000596e:	1c63      	adds	r3, r4, #1
10005970:	d014      	beq.n	1000599c <prvAddCurrentTaskToDelayedList+0x40>
10005972:	686b      	ldr	r3, [r5, #4]
10005974:	193c      	adds	r4, r7, r4
10005976:	605c      	str	r4, [r3, #4]
10005978:	42a7      	cmp	r7, r4
1000597a:	d809      	bhi.n	10005990 <prvAddCurrentTaskToDelayedList+0x34>
1000597c:	6a28      	ldr	r0, [r5, #32]
1000597e:	6869      	ldr	r1, [r5, #4]
10005980:	3104      	adds	r1, #4
10005982:	f001 fe0b 	bl	1000759c <vListInsert>
10005986:	6a6b      	ldr	r3, [r5, #36]	; 0x24
10005988:	42a3      	cmp	r3, r4
1000598a:	d900      	bls.n	1000598e <prvAddCurrentTaskToDelayedList+0x32>
1000598c:	626c      	str	r4, [r5, #36]	; 0x24
1000598e:	bdf8      	pop	{r3, r4, r5, r6, r7, pc}
10005990:	69e8      	ldr	r0, [r5, #28]
10005992:	6869      	ldr	r1, [r5, #4]
10005994:	3104      	adds	r1, #4
10005996:	f001 fe01 	bl	1000759c <vListInsert>
1000599a:	e7f8      	b.n	1000598e <prvAddCurrentTaskToDelayedList+0x32>
1000599c:	2e00      	cmp	r6, #0
1000599e:	d0e8      	beq.n	10005972 <prvAddCurrentTaskToDelayedList+0x16>
100059a0:	686a      	ldr	r2, [r5, #4]
100059a2:	68eb      	ldr	r3, [r5, #12]
100059a4:	6899      	ldr	r1, [r3, #8]
100059a6:	6093      	str	r3, [r2, #8]
100059a8:	686a      	ldr	r2, [r5, #4]
100059aa:	60d1      	str	r1, [r2, #12]
100059ac:	686a      	ldr	r2, [r5, #4]
100059ae:	6899      	ldr	r1, [r3, #8]
100059b0:	3204      	adds	r2, #4
100059b2:	604a      	str	r2, [r1, #4]
100059b4:	686a      	ldr	r2, [r5, #4]
100059b6:	3204      	adds	r2, #4
100059b8:	609a      	str	r2, [r3, #8]
100059ba:	002a      	movs	r2, r5
100059bc:	686b      	ldr	r3, [r5, #4]
100059be:	3208      	adds	r2, #8
100059c0:	615a      	str	r2, [r3, #20]
100059c2:	68ab      	ldr	r3, [r5, #8]
100059c4:	3301      	adds	r3, #1
100059c6:	60ab      	str	r3, [r5, #8]
100059c8:	e7e1      	b.n	1000598e <prvAddCurrentTaskToDelayedList+0x32>
100059ca:	46c0      	nop			; (mov r8, r8)
100059cc:	20000edc 	.word	0x20000edc

100059d0 <xTaskIncrementTick.part.0>:
100059d0:	b5f0      	push	{r4, r5, r6, r7, lr}
100059d2:	46de      	mov	lr, fp
100059d4:	4645      	mov	r5, r8
100059d6:	4657      	mov	r7, sl
100059d8:	464e      	mov	r6, r9
100059da:	4943      	ldr	r1, [pc, #268]	; (10005ae8 <xTaskIncrementTick.part.0+0x118>)
100059dc:	b5e0      	push	{r5, r6, r7, lr}
100059de:	680d      	ldr	r5, [r1, #0]
100059e0:	1c6b      	adds	r3, r5, #1
100059e2:	469b      	mov	fp, r3
100059e4:	600b      	str	r3, [r1, #0]
100059e6:	2b00      	cmp	r3, #0
100059e8:	d10c      	bne.n	10005a04 <xTaskIncrementTick.part.0+0x34>
100059ea:	6a0b      	ldr	r3, [r1, #32]
100059ec:	69ca      	ldr	r2, [r1, #28]
100059ee:	620a      	str	r2, [r1, #32]
100059f0:	61cb      	str	r3, [r1, #28]
100059f2:	6a8b      	ldr	r3, [r1, #40]	; 0x28
100059f4:	3301      	adds	r3, #1
100059f6:	628b      	str	r3, [r1, #40]	; 0x28
100059f8:	6a0b      	ldr	r3, [r1, #32]
100059fa:	681b      	ldr	r3, [r3, #0]
100059fc:	2b00      	cmp	r3, #0
100059fe:	d169      	bne.n	10005ad4 <xTaskIncrementTick.part.0+0x104>
10005a00:	3b01      	subs	r3, #1
10005a02:	624b      	str	r3, [r1, #36]	; 0x24
10005a04:	2200      	movs	r2, #0
10005a06:	6a4b      	ldr	r3, [r1, #36]	; 0x24
10005a08:	4690      	mov	r8, r2
10005a0a:	459b      	cmp	fp, r3
10005a0c:	d356      	bcc.n	10005abc <xTaskIncrementTick.part.0+0xec>
10005a0e:	6a0b      	ldr	r3, [r1, #32]
10005a10:	681b      	ldr	r3, [r3, #0]
10005a12:	2b00      	cmp	r3, #0
10005a14:	d04f      	beq.n	10005ab6 <xTaskIncrementTick.part.0+0xe6>
10005a16:	2300      	movs	r3, #0
10005a18:	469a      	mov	sl, r3
10005a1a:	4b34      	ldr	r3, [pc, #208]	; (10005aec <xTaskIncrementTick.part.0+0x11c>)
10005a1c:	4699      	mov	r9, r3
10005a1e:	231c      	movs	r3, #28
10005a20:	444b      	add	r3, r9
10005a22:	469c      	mov	ip, r3
10005a24:	e036      	b.n	10005a94 <xTaskIncrementTick.part.0+0xc4>
10005a26:	4650      	mov	r0, sl
10005a28:	6814      	ldr	r4, [r2, #0]
10005a2a:	6158      	str	r0, [r3, #20]
10005a2c:	3c01      	subs	r4, #1
10005a2e:	6014      	str	r4, [r2, #0]
10005a30:	6a9a      	ldr	r2, [r3, #40]	; 0x28
10005a32:	2a00      	cmp	r2, #0
10005a34:	d00e      	beq.n	10005a54 <xTaskIncrementTick.part.0+0x84>
10005a36:	69dc      	ldr	r4, [r3, #28]
10005a38:	6a18      	ldr	r0, [r3, #32]
10005a3a:	60a0      	str	r0, [r4, #8]
10005a3c:	6a1e      	ldr	r6, [r3, #32]
10005a3e:	6850      	ldr	r0, [r2, #4]
10005a40:	6074      	str	r4, [r6, #4]
10005a42:	001c      	movs	r4, r3
10005a44:	3418      	adds	r4, #24
10005a46:	42a0      	cmp	r0, r4
10005a48:	d049      	beq.n	10005ade <xTaskIncrementTick.part.0+0x10e>
10005a4a:	4650      	mov	r0, sl
10005a4c:	6814      	ldr	r4, [r2, #0]
10005a4e:	6298      	str	r0, [r3, #40]	; 0x28
10005a50:	3c01      	subs	r4, #1
10005a52:	6014      	str	r4, [r2, #0]
10005a54:	6adc      	ldr	r4, [r3, #44]	; 0x2c
10005a56:	6aca      	ldr	r2, [r1, #44]	; 0x2c
10005a58:	4294      	cmp	r4, r2
10005a5a:	d900      	bls.n	10005a5e <xTaskIncrementTick.part.0+0x8e>
10005a5c:	62cc      	str	r4, [r1, #44]	; 0x2c
10005a5e:	4648      	mov	r0, r9
10005a60:	00a2      	lsls	r2, r4, #2
10005a62:	1912      	adds	r2, r2, r4
10005a64:	0092      	lsls	r2, r2, #2
10005a66:	1886      	adds	r6, r0, r2
10005a68:	6a30      	ldr	r0, [r6, #32]
10005a6a:	4462      	add	r2, ip
10005a6c:	6885      	ldr	r5, [r0, #8]
10005a6e:	6098      	str	r0, [r3, #8]
10005a70:	60dd      	str	r5, [r3, #12]
10005a72:	6885      	ldr	r5, [r0, #8]
10005a74:	606f      	str	r7, [r5, #4]
10005a76:	6087      	str	r7, [r0, #8]
10005a78:	615a      	str	r2, [r3, #20]
10005a7a:	69f3      	ldr	r3, [r6, #28]
10005a7c:	3301      	adds	r3, #1
10005a7e:	61f3      	str	r3, [r6, #28]
10005a80:	684b      	ldr	r3, [r1, #4]
10005a82:	6adb      	ldr	r3, [r3, #44]	; 0x2c
10005a84:	429c      	cmp	r4, r3
10005a86:	d301      	bcc.n	10005a8c <xTaskIncrementTick.part.0+0xbc>
10005a88:	2301      	movs	r3, #1
10005a8a:	4698      	mov	r8, r3
10005a8c:	6a0b      	ldr	r3, [r1, #32]
10005a8e:	681b      	ldr	r3, [r3, #0]
10005a90:	2b00      	cmp	r3, #0
10005a92:	d010      	beq.n	10005ab6 <xTaskIncrementTick.part.0+0xe6>
10005a94:	6a0b      	ldr	r3, [r1, #32]
10005a96:	68db      	ldr	r3, [r3, #12]
10005a98:	68db      	ldr	r3, [r3, #12]
10005a9a:	685a      	ldr	r2, [r3, #4]
10005a9c:	4593      	cmp	fp, r2
10005a9e:	d320      	bcc.n	10005ae2 <xTaskIncrementTick.part.0+0x112>
10005aa0:	695a      	ldr	r2, [r3, #20]
10005aa2:	689e      	ldr	r6, [r3, #8]
10005aa4:	68dc      	ldr	r4, [r3, #12]
10005aa6:	6850      	ldr	r0, [r2, #4]
10005aa8:	1d1f      	adds	r7, r3, #4
10005aaa:	60b4      	str	r4, [r6, #8]
10005aac:	6066      	str	r6, [r4, #4]
10005aae:	42b8      	cmp	r0, r7
10005ab0:	d1b9      	bne.n	10005a26 <xTaskIncrementTick.part.0+0x56>
10005ab2:	6054      	str	r4, [r2, #4]
10005ab4:	e7b7      	b.n	10005a26 <xTaskIncrementTick.part.0+0x56>
10005ab6:	2301      	movs	r3, #1
10005ab8:	425b      	negs	r3, r3
10005aba:	624b      	str	r3, [r1, #36]	; 0x24
10005abc:	6b0b      	ldr	r3, [r1, #48]	; 0x30
10005abe:	2b00      	cmp	r3, #0
10005ac0:	d001      	beq.n	10005ac6 <xTaskIncrementTick.part.0+0xf6>
10005ac2:	2301      	movs	r3, #1
10005ac4:	4698      	mov	r8, r3
10005ac6:	4640      	mov	r0, r8
10005ac8:	bc3c      	pop	{r2, r3, r4, r5}
10005aca:	4690      	mov	r8, r2
10005acc:	4699      	mov	r9, r3
10005ace:	46a2      	mov	sl, r4
10005ad0:	46ab      	mov	fp, r5
10005ad2:	bdf0      	pop	{r4, r5, r6, r7, pc}
10005ad4:	6a0b      	ldr	r3, [r1, #32]
10005ad6:	68db      	ldr	r3, [r3, #12]
10005ad8:	681b      	ldr	r3, [r3, #0]
10005ada:	624b      	str	r3, [r1, #36]	; 0x24
10005adc:	e792      	b.n	10005a04 <xTaskIncrementTick.part.0+0x34>
10005ade:	6056      	str	r6, [r2, #4]
10005ae0:	e7b3      	b.n	10005a4a <xTaskIncrementTick.part.0+0x7a>
10005ae2:	624a      	str	r2, [r1, #36]	; 0x24
10005ae4:	e7ea      	b.n	10005abc <xTaskIncrementTick.part.0+0xec>
10005ae6:	46c0      	nop			; (mov r8, r8)
10005ae8:	20000edc 	.word	0x20000edc
10005aec:	20000e5c 	.word	0x20000e5c

10005af0 <xTaskCreate>:
10005af0:	b5f8      	push	{r3, r4, r5, r6, r7, lr}
10005af2:	46ce      	mov	lr, r9
10005af4:	4647      	mov	r7, r8
10005af6:	4698      	mov	r8, r3
10005af8:	0093      	lsls	r3, r2, #2
10005afa:	b580      	push	{r7, lr}
10005afc:	0007      	movs	r7, r0
10005afe:	0018      	movs	r0, r3
10005b00:	000d      	movs	r5, r1
10005b02:	4699      	mov	r9, r3
10005b04:	f001 fc4a 	bl	1000739c <pvPortMalloc>
10005b08:	1e06      	subs	r6, r0, #0
10005b0a:	d100      	bne.n	10005b0e <xTaskCreate+0x1e>
10005b0c:	e0c2      	b.n	10005c94 <xTaskCreate+0x1a4>
10005b0e:	2068      	movs	r0, #104	; 0x68
10005b10:	f001 fc44 	bl	1000739c <pvPortMalloc>
10005b14:	1e04      	subs	r4, r0, #0
10005b16:	d100      	bne.n	10005b1a <xTaskCreate+0x2a>
10005b18:	e0c3      	b.n	10005ca2 <xTaskCreate+0x1b2>
10005b1a:	2268      	movs	r2, #104	; 0x68
10005b1c:	2100      	movs	r1, #0
10005b1e:	f7fc f9f1 	bl	10001f04 <__wrap_memset>
10005b22:	4648      	mov	r0, r9
10005b24:	2307      	movs	r3, #7
10005b26:	3804      	subs	r0, #4
10005b28:	6326      	str	r6, [r4, #48]	; 0x30
10005b2a:	1836      	adds	r6, r6, r0
10005b2c:	439e      	bics	r6, r3
10005b2e:	2d00      	cmp	r5, #0
10005b30:	d05f      	beq.n	10005bf2 <xTaskCreate+0x102>
10005b32:	2334      	movs	r3, #52	; 0x34
10005b34:	782a      	ldrb	r2, [r5, #0]
10005b36:	54e2      	strb	r2, [r4, r3]
10005b38:	782b      	ldrb	r3, [r5, #0]
10005b3a:	2b00      	cmp	r3, #0
10005b3c:	d056      	beq.n	10005bec <xTaskCreate+0xfc>
10005b3e:	2335      	movs	r3, #53	; 0x35
10005b40:	786a      	ldrb	r2, [r5, #1]
10005b42:	54e2      	strb	r2, [r4, r3]
10005b44:	786b      	ldrb	r3, [r5, #1]
10005b46:	2b00      	cmp	r3, #0
10005b48:	d050      	beq.n	10005bec <xTaskCreate+0xfc>
10005b4a:	2336      	movs	r3, #54	; 0x36
10005b4c:	78aa      	ldrb	r2, [r5, #2]
10005b4e:	54e2      	strb	r2, [r4, r3]
10005b50:	78ab      	ldrb	r3, [r5, #2]
10005b52:	2b00      	cmp	r3, #0
10005b54:	d04a      	beq.n	10005bec <xTaskCreate+0xfc>
10005b56:	2337      	movs	r3, #55	; 0x37
10005b58:	78ea      	ldrb	r2, [r5, #3]
10005b5a:	54e2      	strb	r2, [r4, r3]
10005b5c:	78eb      	ldrb	r3, [r5, #3]
10005b5e:	2b00      	cmp	r3, #0
10005b60:	d044      	beq.n	10005bec <xTaskCreate+0xfc>
10005b62:	2338      	movs	r3, #56	; 0x38
10005b64:	792a      	ldrb	r2, [r5, #4]
10005b66:	54e2      	strb	r2, [r4, r3]
10005b68:	792b      	ldrb	r3, [r5, #4]
10005b6a:	2b00      	cmp	r3, #0
10005b6c:	d03e      	beq.n	10005bec <xTaskCreate+0xfc>
10005b6e:	2339      	movs	r3, #57	; 0x39
10005b70:	796a      	ldrb	r2, [r5, #5]
10005b72:	54e2      	strb	r2, [r4, r3]
10005b74:	796b      	ldrb	r3, [r5, #5]
10005b76:	2b00      	cmp	r3, #0
10005b78:	d038      	beq.n	10005bec <xTaskCreate+0xfc>
10005b7a:	233a      	movs	r3, #58	; 0x3a
10005b7c:	79aa      	ldrb	r2, [r5, #6]
10005b7e:	54e2      	strb	r2, [r4, r3]
10005b80:	79ab      	ldrb	r3, [r5, #6]
10005b82:	2b00      	cmp	r3, #0
10005b84:	d032      	beq.n	10005bec <xTaskCreate+0xfc>
10005b86:	233b      	movs	r3, #59	; 0x3b
10005b88:	79ea      	ldrb	r2, [r5, #7]
10005b8a:	54e2      	strb	r2, [r4, r3]
10005b8c:	79eb      	ldrb	r3, [r5, #7]
10005b8e:	2b00      	cmp	r3, #0
10005b90:	d02c      	beq.n	10005bec <xTaskCreate+0xfc>
10005b92:	233c      	movs	r3, #60	; 0x3c
10005b94:	7a2a      	ldrb	r2, [r5, #8]
10005b96:	54e2      	strb	r2, [r4, r3]
10005b98:	7a2b      	ldrb	r3, [r5, #8]
10005b9a:	2b00      	cmp	r3, #0
10005b9c:	d026      	beq.n	10005bec <xTaskCreate+0xfc>
10005b9e:	233d      	movs	r3, #61	; 0x3d
10005ba0:	7a6a      	ldrb	r2, [r5, #9]
10005ba2:	54e2      	strb	r2, [r4, r3]
10005ba4:	7a6b      	ldrb	r3, [r5, #9]
10005ba6:	2b00      	cmp	r3, #0
10005ba8:	d020      	beq.n	10005bec <xTaskCreate+0xfc>
10005baa:	233e      	movs	r3, #62	; 0x3e
10005bac:	7aaa      	ldrb	r2, [r5, #10]
10005bae:	54e2      	strb	r2, [r4, r3]
10005bb0:	7aab      	ldrb	r3, [r5, #10]
10005bb2:	2b00      	cmp	r3, #0
10005bb4:	d01a      	beq.n	10005bec <xTaskCreate+0xfc>
10005bb6:	233f      	movs	r3, #63	; 0x3f
10005bb8:	7aea      	ldrb	r2, [r5, #11]
10005bba:	54e2      	strb	r2, [r4, r3]
10005bbc:	7aeb      	ldrb	r3, [r5, #11]
10005bbe:	2b00      	cmp	r3, #0
10005bc0:	d014      	beq.n	10005bec <xTaskCreate+0xfc>
10005bc2:	2340      	movs	r3, #64	; 0x40
10005bc4:	7b2a      	ldrb	r2, [r5, #12]
10005bc6:	54e2      	strb	r2, [r4, r3]
10005bc8:	7b2b      	ldrb	r3, [r5, #12]
10005bca:	2b00      	cmp	r3, #0
10005bcc:	d00e      	beq.n	10005bec <xTaskCreate+0xfc>
10005bce:	2341      	movs	r3, #65	; 0x41
10005bd0:	7b6a      	ldrb	r2, [r5, #13]
10005bd2:	54e2      	strb	r2, [r4, r3]
10005bd4:	7b6b      	ldrb	r3, [r5, #13]
10005bd6:	2b00      	cmp	r3, #0
10005bd8:	d008      	beq.n	10005bec <xTaskCreate+0xfc>
10005bda:	2342      	movs	r3, #66	; 0x42
10005bdc:	7baa      	ldrb	r2, [r5, #14]
10005bde:	54e2      	strb	r2, [r4, r3]
10005be0:	7bab      	ldrb	r3, [r5, #14]
10005be2:	2b00      	cmp	r3, #0
10005be4:	d002      	beq.n	10005bec <xTaskCreate+0xfc>
10005be6:	2343      	movs	r3, #67	; 0x43
10005be8:	7bea      	ldrb	r2, [r5, #15]
10005bea:	54e2      	strb	r2, [r4, r3]
10005bec:	2343      	movs	r3, #67	; 0x43
10005bee:	2200      	movs	r2, #0
10005bf0:	54e2      	strb	r2, [r4, r3]
10005bf2:	9d08      	ldr	r5, [sp, #32]
10005bf4:	2d04      	cmp	r5, #4
10005bf6:	d85a      	bhi.n	10005cae <xTaskCreate+0x1be>
10005bf8:	1d23      	adds	r3, r4, #4
10005bfa:	0018      	movs	r0, r3
10005bfc:	62e5      	str	r5, [r4, #44]	; 0x2c
10005bfe:	4699      	mov	r9, r3
10005c00:	f001 fcbc 	bl	1000757c <vListInitialiseItem>
10005c04:	0020      	movs	r0, r4
10005c06:	3018      	adds	r0, #24
10005c08:	f001 fcb8 	bl	1000757c <vListInitialiseItem>
10005c0c:	2305      	movs	r3, #5
10005c0e:	1b5d      	subs	r5, r3, r5
10005c10:	4642      	mov	r2, r8
10005c12:	0039      	movs	r1, r7
10005c14:	0030      	movs	r0, r6
10005c16:	6124      	str	r4, [r4, #16]
10005c18:	61a5      	str	r5, [r4, #24]
10005c1a:	6264      	str	r4, [r4, #36]	; 0x24
10005c1c:	f001 fbfa 	bl	10007414 <pxPortInitialiseStack>
10005c20:	9b09      	ldr	r3, [sp, #36]	; 0x24
10005c22:	6020      	str	r0, [r4, #0]
10005c24:	2b00      	cmp	r3, #0
10005c26:	d000      	beq.n	10005c2a <xTaskCreate+0x13a>
10005c28:	601c      	str	r4, [r3, #0]
10005c2a:	f001 fc13 	bl	10007454 <vPortEnterCritical>
10005c2e:	4d3d      	ldr	r5, [pc, #244]	; (10005d24 <xTaskCreate+0x234>)
10005c30:	4e3d      	ldr	r6, [pc, #244]	; (10005d28 <xTaskCreate+0x238>)
10005c32:	69ab      	ldr	r3, [r5, #24]
10005c34:	3301      	adds	r3, #1
10005c36:	61ab      	str	r3, [r5, #24]
10005c38:	6873      	ldr	r3, [r6, #4]
10005c3a:	2b00      	cmp	r3, #0
10005c3c:	d040      	beq.n	10005cc0 <xTaskCreate+0x1d0>
10005c3e:	6f33      	ldr	r3, [r6, #112]	; 0x70
10005c40:	2b00      	cmp	r3, #0
10005c42:	d036      	beq.n	10005cb2 <xTaskCreate+0x1c2>
10005c44:	6ae2      	ldr	r2, [r4, #44]	; 0x2c
10005c46:	6f73      	ldr	r3, [r6, #116]	; 0x74
10005c48:	3301      	adds	r3, #1
10005c4a:	6773      	str	r3, [r6, #116]	; 0x74
10005c4c:	6af3      	ldr	r3, [r6, #44]	; 0x2c
10005c4e:	4293      	cmp	r3, r2
10005c50:	d200      	bcs.n	10005c54 <xTaskCreate+0x164>
10005c52:	62f2      	str	r2, [r6, #44]	; 0x2c
10005c54:	464f      	mov	r7, r9
10005c56:	0093      	lsls	r3, r2, #2
10005c58:	189b      	adds	r3, r3, r2
10005c5a:	009b      	lsls	r3, r3, #2
10005c5c:	18e9      	adds	r1, r5, r3
10005c5e:	6a0a      	ldr	r2, [r1, #32]
10005c60:	351c      	adds	r5, #28
10005c62:	6890      	ldr	r0, [r2, #8]
10005c64:	18ed      	adds	r5, r5, r3
10005c66:	60e0      	str	r0, [r4, #12]
10005c68:	69cb      	ldr	r3, [r1, #28]
10005c6a:	6890      	ldr	r0, [r2, #8]
10005c6c:	3301      	adds	r3, #1
10005c6e:	60a2      	str	r2, [r4, #8]
10005c70:	6047      	str	r7, [r0, #4]
10005c72:	6097      	str	r7, [r2, #8]
10005c74:	6165      	str	r5, [r4, #20]
10005c76:	61cb      	str	r3, [r1, #28]
10005c78:	f001 fbf8 	bl	1000746c <vPortExitCritical>
10005c7c:	6f33      	ldr	r3, [r6, #112]	; 0x70
10005c7e:	2501      	movs	r5, #1
10005c80:	2b00      	cmp	r3, #0
10005c82:	d009      	beq.n	10005c98 <xTaskCreate+0x1a8>
10005c84:	6873      	ldr	r3, [r6, #4]
10005c86:	6ada      	ldr	r2, [r3, #44]	; 0x2c
10005c88:	6ae3      	ldr	r3, [r4, #44]	; 0x2c
10005c8a:	429a      	cmp	r2, r3
10005c8c:	d204      	bcs.n	10005c98 <xTaskCreate+0x1a8>
10005c8e:	f001 fbd5 	bl	1000743c <vPortYield>
10005c92:	e001      	b.n	10005c98 <xTaskCreate+0x1a8>
10005c94:	2501      	movs	r5, #1
10005c96:	426d      	negs	r5, r5
10005c98:	0028      	movs	r0, r5
10005c9a:	bc0c      	pop	{r2, r3}
10005c9c:	4690      	mov	r8, r2
10005c9e:	4699      	mov	r9, r3
10005ca0:	bdf8      	pop	{r3, r4, r5, r6, r7, pc}
10005ca2:	2501      	movs	r5, #1
10005ca4:	0030      	movs	r0, r6
10005ca6:	f001 fb85 	bl	100073b4 <vPortFree>
10005caa:	426d      	negs	r5, r5
10005cac:	e7f4      	b.n	10005c98 <xTaskCreate+0x1a8>
10005cae:	2504      	movs	r5, #4
10005cb0:	e7a2      	b.n	10005bf8 <xTaskCreate+0x108>
10005cb2:	6873      	ldr	r3, [r6, #4]
10005cb4:	6ae2      	ldr	r2, [r4, #44]	; 0x2c
10005cb6:	6adb      	ldr	r3, [r3, #44]	; 0x2c
10005cb8:	4293      	cmp	r3, r2
10005cba:	d8c4      	bhi.n	10005c46 <xTaskCreate+0x156>
10005cbc:	6074      	str	r4, [r6, #4]
10005cbe:	e7c2      	b.n	10005c46 <xTaskCreate+0x156>
10005cc0:	6074      	str	r4, [r6, #4]
10005cc2:	69ab      	ldr	r3, [r5, #24]
10005cc4:	2b01      	cmp	r3, #1
10005cc6:	d1bd      	bne.n	10005c44 <xTaskCreate+0x154>
10005cc8:	0028      	movs	r0, r5
10005cca:	301c      	adds	r0, #28
10005ccc:	f001 fc4a 	bl	10007564 <vListInitialise>
10005cd0:	0028      	movs	r0, r5
10005cd2:	3030      	adds	r0, #48	; 0x30
10005cd4:	f001 fc46 	bl	10007564 <vListInitialise>
10005cd8:	0028      	movs	r0, r5
10005cda:	3044      	adds	r0, #68	; 0x44
10005cdc:	f001 fc42 	bl	10007564 <vListInitialise>
10005ce0:	0028      	movs	r0, r5
10005ce2:	3058      	adds	r0, #88	; 0x58
10005ce4:	f001 fc3e 	bl	10007564 <vListInitialise>
10005ce8:	0028      	movs	r0, r5
10005cea:	306c      	adds	r0, #108	; 0x6c
10005cec:	f001 fc3a 	bl	10007564 <vListInitialise>
10005cf0:	2334      	movs	r3, #52	; 0x34
10005cf2:	4698      	mov	r8, r3
10005cf4:	0037      	movs	r7, r6
10005cf6:	44b0      	add	r8, r6
10005cf8:	4640      	mov	r0, r8
10005cfa:	3748      	adds	r7, #72	; 0x48
10005cfc:	f001 fc32 	bl	10007564 <vListInitialise>
10005d00:	0038      	movs	r0, r7
10005d02:	f001 fc2f 	bl	10007564 <vListInitialise>
10005d06:	0030      	movs	r0, r6
10005d08:	305c      	adds	r0, #92	; 0x5c
10005d0a:	f001 fc2b 	bl	10007564 <vListInitialise>
10005d0e:	1d28      	adds	r0, r5, #4
10005d10:	f001 fc28 	bl	10007564 <vListInitialise>
10005d14:	0030      	movs	r0, r6
10005d16:	3008      	adds	r0, #8
10005d18:	f001 fc24 	bl	10007564 <vListInitialise>
10005d1c:	4643      	mov	r3, r8
10005d1e:	6233      	str	r3, [r6, #32]
10005d20:	61f7      	str	r7, [r6, #28]
10005d22:	e78f      	b.n	10005c44 <xTaskCreate+0x154>
10005d24:	20000e5c 	.word	0x20000e5c
10005d28:	20000edc 	.word	0x20000edc

10005d2c <vTaskDelete>:
10005d2c:	b5f8      	push	{r3, r4, r5, r6, r7, lr}
10005d2e:	0004      	movs	r4, r0
10005d30:	f001 fb90 	bl	10007454 <vPortEnterCritical>
10005d34:	4d21      	ldr	r5, [pc, #132]	; (10005dbc <vTaskDelete+0x90>)
10005d36:	2c00      	cmp	r4, #0
10005d38:	d031      	beq.n	10005d9e <vTaskDelete+0x72>
10005d3a:	1d26      	adds	r6, r4, #4
10005d3c:	0030      	movs	r0, r6
10005d3e:	f001 fc45 	bl	100075cc <uxListRemove>
10005d42:	6aa3      	ldr	r3, [r4, #40]	; 0x28
10005d44:	2b00      	cmp	r3, #0
10005d46:	d003      	beq.n	10005d50 <vTaskDelete+0x24>
10005d48:	0020      	movs	r0, r4
10005d4a:	3018      	adds	r0, #24
10005d4c:	f001 fc3e 	bl	100075cc <uxListRemove>
10005d50:	6f6b      	ldr	r3, [r5, #116]	; 0x74
10005d52:	3301      	adds	r3, #1
10005d54:	676b      	str	r3, [r5, #116]	; 0x74
10005d56:	686b      	ldr	r3, [r5, #4]
10005d58:	42a3      	cmp	r3, r4
10005d5a:	d022      	beq.n	10005da2 <vTaskDelete+0x76>
10005d5c:	4a18      	ldr	r2, [pc, #96]	; (10005dc0 <vTaskDelete+0x94>)
10005d5e:	6993      	ldr	r3, [r2, #24]
10005d60:	3b01      	subs	r3, #1
10005d62:	6193      	str	r3, [r2, #24]
10005d64:	6a2b      	ldr	r3, [r5, #32]
10005d66:	681b      	ldr	r3, [r3, #0]
10005d68:	2b00      	cmp	r3, #0
10005d6a:	d015      	beq.n	10005d98 <vTaskDelete+0x6c>
10005d6c:	6a2b      	ldr	r3, [r5, #32]
10005d6e:	68db      	ldr	r3, [r3, #12]
10005d70:	681b      	ldr	r3, [r3, #0]
10005d72:	626b      	str	r3, [r5, #36]	; 0x24
10005d74:	f001 fb7a 	bl	1000746c <vPortExitCritical>
10005d78:	686b      	ldr	r3, [r5, #4]
10005d7a:	42a3      	cmp	r3, r4
10005d7c:	d005      	beq.n	10005d8a <vTaskDelete+0x5e>
10005d7e:	6b20      	ldr	r0, [r4, #48]	; 0x30
10005d80:	f001 fb18 	bl	100073b4 <vPortFree>
10005d84:	0020      	movs	r0, r4
10005d86:	f001 fb15 	bl	100073b4 <vPortFree>
10005d8a:	6f2b      	ldr	r3, [r5, #112]	; 0x70
10005d8c:	2b00      	cmp	r3, #0
10005d8e:	d002      	beq.n	10005d96 <vTaskDelete+0x6a>
10005d90:	686b      	ldr	r3, [r5, #4]
10005d92:	42a3      	cmp	r3, r4
10005d94:	d00e      	beq.n	10005db4 <vTaskDelete+0x88>
10005d96:	bdf8      	pop	{r3, r4, r5, r6, r7, pc}
10005d98:	3b01      	subs	r3, #1
10005d9a:	626b      	str	r3, [r5, #36]	; 0x24
10005d9c:	e7ea      	b.n	10005d74 <vTaskDelete+0x48>
10005d9e:	686c      	ldr	r4, [r5, #4]
10005da0:	e7cb      	b.n	10005d3a <vTaskDelete+0xe>
10005da2:	4f07      	ldr	r7, [pc, #28]	; (10005dc0 <vTaskDelete+0x94>)
10005da4:	0031      	movs	r1, r6
10005da6:	1d38      	adds	r0, r7, #4
10005da8:	f001 fbec 	bl	10007584 <vListInsertEnd>
10005dac:	683b      	ldr	r3, [r7, #0]
10005dae:	3301      	adds	r3, #1
10005db0:	603b      	str	r3, [r7, #0]
10005db2:	e7df      	b.n	10005d74 <vTaskDelete+0x48>
10005db4:	f001 fb42 	bl	1000743c <vPortYield>
10005db8:	e7ed      	b.n	10005d96 <vTaskDelete+0x6a>
10005dba:	46c0      	nop			; (mov r8, r8)
10005dbc:	20000edc 	.word	0x20000edc
10005dc0:	20000e5c 	.word	0x20000e5c

10005dc4 <uxTaskPriorityGet>:
10005dc4:	b510      	push	{r4, lr}
10005dc6:	0004      	movs	r4, r0
10005dc8:	f001 fb44 	bl	10007454 <vPortEnterCritical>
10005dcc:	2c00      	cmp	r4, #0
10005dce:	d004      	beq.n	10005dda <uxTaskPriorityGet+0x16>
10005dd0:	6ae4      	ldr	r4, [r4, #44]	; 0x2c
10005dd2:	f001 fb4b 	bl	1000746c <vPortExitCritical>
10005dd6:	0020      	movs	r0, r4
10005dd8:	bd10      	pop	{r4, pc}
10005dda:	4b01      	ldr	r3, [pc, #4]	; (10005de0 <uxTaskPriorityGet+0x1c>)
10005ddc:	685c      	ldr	r4, [r3, #4]
10005dde:	e7f7      	b.n	10005dd0 <uxTaskPriorityGet+0xc>
10005de0:	20000edc 	.word	0x20000edc

10005de4 <uxTaskPriorityGetFromISR>:
10005de4:	b510      	push	{r4, lr}
10005de6:	0004      	movs	r4, r0
10005de8:	f001 fb4a 	bl	10007480 <ulSetInterruptMaskFromISR>
10005dec:	2c00      	cmp	r4, #0
10005dee:	d004      	beq.n	10005dfa <uxTaskPriorityGetFromISR+0x16>
10005df0:	6ae4      	ldr	r4, [r4, #44]	; 0x2c
10005df2:	f001 fb49 	bl	10007488 <vClearInterruptMaskFromISR>
10005df6:	0020      	movs	r0, r4
10005df8:	bd10      	pop	{r4, pc}
10005dfa:	4b01      	ldr	r3, [pc, #4]	; (10005e00 <uxTaskPriorityGetFromISR+0x1c>)
10005dfc:	685c      	ldr	r4, [r3, #4]
10005dfe:	e7f7      	b.n	10005df0 <uxTaskPriorityGetFromISR+0xc>
10005e00:	20000edc 	.word	0x20000edc

10005e04 <vTaskPrioritySet>:
10005e04:	b5f0      	push	{r4, r5, r6, r7, lr}
10005e06:	46c6      	mov	lr, r8
10005e08:	0004      	movs	r4, r0
10005e0a:	000d      	movs	r5, r1
10005e0c:	b500      	push	{lr}
10005e0e:	2904      	cmp	r1, #4
10005e10:	d900      	bls.n	10005e14 <vTaskPrioritySet+0x10>
10005e12:	2504      	movs	r5, #4
10005e14:	f001 fb1e 	bl	10007454 <vPortEnterCritical>
10005e18:	2c00      	cmp	r4, #0
10005e1a:	d02b      	beq.n	10005e74 <vTaskPrioritySet+0x70>
10005e1c:	6ae3      	ldr	r3, [r4, #44]	; 0x2c
10005e1e:	429d      	cmp	r5, r3
10005e20:	d01a      	beq.n	10005e58 <vTaskPrioritySet+0x54>
10005e22:	4f25      	ldr	r7, [pc, #148]	; (10005eb8 <vTaskPrioritySet+0xb4>)
10005e24:	d81d      	bhi.n	10005e62 <vTaskPrioritySet+0x5e>
10005e26:	687e      	ldr	r6, [r7, #4]
10005e28:	1b36      	subs	r6, r6, r4
10005e2a:	4272      	negs	r2, r6
10005e2c:	4156      	adcs	r6, r2
10005e2e:	69a2      	ldr	r2, [r4, #24]
10005e30:	62e5      	str	r5, [r4, #44]	; 0x2c
10005e32:	2a00      	cmp	r2, #0
10005e34:	db02      	blt.n	10005e3c <vTaskPrioritySet+0x38>
10005e36:	2105      	movs	r1, #5
10005e38:	1b4d      	subs	r5, r1, r5
10005e3a:	61a5      	str	r5, [r4, #24]
10005e3c:	4d1f      	ldr	r5, [pc, #124]	; (10005ebc <vTaskPrioritySet+0xb8>)
10005e3e:	009a      	lsls	r2, r3, #2
10005e40:	0029      	movs	r1, r5
10005e42:	18d3      	adds	r3, r2, r3
10005e44:	311c      	adds	r1, #28
10005e46:	009b      	lsls	r3, r3, #2
10005e48:	6962      	ldr	r2, [r4, #20]
10005e4a:	18cb      	adds	r3, r1, r3
10005e4c:	429a      	cmp	r2, r3
10005e4e:	d014      	beq.n	10005e7a <vTaskPrioritySet+0x76>
10005e50:	2e00      	cmp	r6, #0
10005e52:	d001      	beq.n	10005e58 <vTaskPrioritySet+0x54>
10005e54:	f001 faf2 	bl	1000743c <vPortYield>
10005e58:	f001 fb08 	bl	1000746c <vPortExitCritical>
10005e5c:	bc04      	pop	{r2}
10005e5e:	4690      	mov	r8, r2
10005e60:	bdf0      	pop	{r4, r5, r6, r7, pc}
10005e62:	687a      	ldr	r2, [r7, #4]
10005e64:	42a2      	cmp	r2, r4
10005e66:	d025      	beq.n	10005eb4 <vTaskPrioritySet+0xb0>
10005e68:	2600      	movs	r6, #0
10005e6a:	687a      	ldr	r2, [r7, #4]
10005e6c:	6ad2      	ldr	r2, [r2, #44]	; 0x2c
10005e6e:	4295      	cmp	r5, r2
10005e70:	4176      	adcs	r6, r6
10005e72:	e7dc      	b.n	10005e2e <vTaskPrioritySet+0x2a>
10005e74:	4b10      	ldr	r3, [pc, #64]	; (10005eb8 <vTaskPrioritySet+0xb4>)
10005e76:	685c      	ldr	r4, [r3, #4]
10005e78:	e7d0      	b.n	10005e1c <vTaskPrioritySet+0x18>
10005e7a:	1d23      	adds	r3, r4, #4
10005e7c:	0018      	movs	r0, r3
10005e7e:	4698      	mov	r8, r3
10005e80:	f001 fba4 	bl	100075cc <uxListRemove>
10005e84:	6ae2      	ldr	r2, [r4, #44]	; 0x2c
10005e86:	6afb      	ldr	r3, [r7, #44]	; 0x2c
10005e88:	429a      	cmp	r2, r3
10005e8a:	d900      	bls.n	10005e8e <vTaskPrioritySet+0x8a>
10005e8c:	62fa      	str	r2, [r7, #44]	; 0x2c
10005e8e:	4647      	mov	r7, r8
10005e90:	0093      	lsls	r3, r2, #2
10005e92:	189b      	adds	r3, r3, r2
10005e94:	009b      	lsls	r3, r3, #2
10005e96:	18e9      	adds	r1, r5, r3
10005e98:	6a0a      	ldr	r2, [r1, #32]
10005e9a:	351c      	adds	r5, #28
10005e9c:	6890      	ldr	r0, [r2, #8]
10005e9e:	18ed      	adds	r5, r5, r3
10005ea0:	60e0      	str	r0, [r4, #12]
10005ea2:	69cb      	ldr	r3, [r1, #28]
10005ea4:	6890      	ldr	r0, [r2, #8]
10005ea6:	3301      	adds	r3, #1
10005ea8:	60a2      	str	r2, [r4, #8]
10005eaa:	6047      	str	r7, [r0, #4]
10005eac:	6097      	str	r7, [r2, #8]
10005eae:	6165      	str	r5, [r4, #20]
10005eb0:	61cb      	str	r3, [r1, #28]
10005eb2:	e7cd      	b.n	10005e50 <vTaskPrioritySet+0x4c>
10005eb4:	2600      	movs	r6, #0
10005eb6:	e7ba      	b.n	10005e2e <vTaskPrioritySet+0x2a>
10005eb8:	20000edc 	.word	0x20000edc
10005ebc:	20000e5c 	.word	0x20000e5c

10005ec0 <vTaskSuspend>:
10005ec0:	b570      	push	{r4, r5, r6, lr}
10005ec2:	0004      	movs	r4, r0
10005ec4:	f001 fac6 	bl	10007454 <vPortEnterCritical>
10005ec8:	4d4b      	ldr	r5, [pc, #300]	; (10005ff8 <vTaskSuspend+0x138>)
10005eca:	2c00      	cmp	r4, #0
10005ecc:	d047      	beq.n	10005f5e <vTaskSuspend+0x9e>
10005ece:	1d26      	adds	r6, r4, #4
10005ed0:	0030      	movs	r0, r6
10005ed2:	f001 fb7b 	bl	100075cc <uxListRemove>
10005ed6:	6aa3      	ldr	r3, [r4, #40]	; 0x28
10005ed8:	2b00      	cmp	r3, #0
10005eda:	d003      	beq.n	10005ee4 <vTaskSuspend+0x24>
10005edc:	0020      	movs	r0, r4
10005ede:	3018      	adds	r0, #24
10005ee0:	f001 fb74 	bl	100075cc <uxListRemove>
10005ee4:	0028      	movs	r0, r5
10005ee6:	0031      	movs	r1, r6
10005ee8:	3008      	adds	r0, #8
10005eea:	f001 fb4b 	bl	10007584 <vListInsertEnd>
10005eee:	2364      	movs	r3, #100	; 0x64
10005ef0:	5ce2      	ldrb	r2, [r4, r3]
10005ef2:	2a01      	cmp	r2, #1
10005ef4:	d101      	bne.n	10005efa <vTaskSuspend+0x3a>
10005ef6:	2200      	movs	r2, #0
10005ef8:	54e2      	strb	r2, [r4, r3]
10005efa:	2365      	movs	r3, #101	; 0x65
10005efc:	5ce2      	ldrb	r2, [r4, r3]
10005efe:	2a01      	cmp	r2, #1
10005f00:	d101      	bne.n	10005f06 <vTaskSuspend+0x46>
10005f02:	2200      	movs	r2, #0
10005f04:	54e2      	strb	r2, [r4, r3]
10005f06:	2366      	movs	r3, #102	; 0x66
10005f08:	5ce2      	ldrb	r2, [r4, r3]
10005f0a:	2a01      	cmp	r2, #1
10005f0c:	d101      	bne.n	10005f12 <vTaskSuspend+0x52>
10005f0e:	2200      	movs	r2, #0
10005f10:	54e2      	strb	r2, [r4, r3]
10005f12:	f001 faab 	bl	1000746c <vPortExitCritical>
10005f16:	6f2b      	ldr	r3, [r5, #112]	; 0x70
10005f18:	2b00      	cmp	r3, #0
10005f1a:	d103      	bne.n	10005f24 <vTaskSuspend+0x64>
10005f1c:	686b      	ldr	r3, [r5, #4]
10005f1e:	42a3      	cmp	r3, r4
10005f20:	d00f      	beq.n	10005f42 <vTaskSuspend+0x82>
10005f22:	bd70      	pop	{r4, r5, r6, pc}
10005f24:	f001 fa96 	bl	10007454 <vPortEnterCritical>
10005f28:	6a2b      	ldr	r3, [r5, #32]
10005f2a:	681b      	ldr	r3, [r3, #0]
10005f2c:	2b00      	cmp	r3, #0
10005f2e:	d018      	beq.n	10005f62 <vTaskSuspend+0xa2>
10005f30:	6a2b      	ldr	r3, [r5, #32]
10005f32:	68db      	ldr	r3, [r3, #12]
10005f34:	681b      	ldr	r3, [r3, #0]
10005f36:	626b      	str	r3, [r5, #36]	; 0x24
10005f38:	f001 fa98 	bl	1000746c <vPortExitCritical>
10005f3c:	686b      	ldr	r3, [r5, #4]
10005f3e:	42a3      	cmp	r3, r4
10005f40:	d1ef      	bne.n	10005f22 <vTaskSuspend+0x62>
10005f42:	6f2a      	ldr	r2, [r5, #112]	; 0x70
10005f44:	2a00      	cmp	r2, #0
10005f46:	d111      	bne.n	10005f6c <vTaskSuspend+0xac>
10005f48:	4b2c      	ldr	r3, [pc, #176]	; (10005ffc <vTaskSuspend+0x13c>)
10005f4a:	68a8      	ldr	r0, [r5, #8]
10005f4c:	6999      	ldr	r1, [r3, #24]
10005f4e:	4288      	cmp	r0, r1
10005f50:	d00a      	beq.n	10005f68 <vTaskSuspend+0xa8>
10005f52:	6faa      	ldr	r2, [r5, #120]	; 0x78
10005f54:	2a00      	cmp	r2, #0
10005f56:	d00c      	beq.n	10005f72 <vTaskSuspend+0xb2>
10005f58:	2301      	movs	r3, #1
10005f5a:	632b      	str	r3, [r5, #48]	; 0x30
10005f5c:	e7e1      	b.n	10005f22 <vTaskSuspend+0x62>
10005f5e:	686c      	ldr	r4, [r5, #4]
10005f60:	e7b5      	b.n	10005ece <vTaskSuspend+0xe>
10005f62:	3b01      	subs	r3, #1
10005f64:	626b      	str	r3, [r5, #36]	; 0x24
10005f66:	e7e7      	b.n	10005f38 <vTaskSuspend+0x78>
10005f68:	606a      	str	r2, [r5, #4]
10005f6a:	e7da      	b.n	10005f22 <vTaskSuspend+0x62>
10005f6c:	f001 fa66 	bl	1000743c <vPortYield>
10005f70:	e7d7      	b.n	10005f22 <vTaskSuspend+0x62>
10005f72:	632a      	str	r2, [r5, #48]	; 0x30
10005f74:	6ae9      	ldr	r1, [r5, #44]	; 0x2c
10005f76:	008a      	lsls	r2, r1, #2
10005f78:	1850      	adds	r0, r2, r1
10005f7a:	0080      	lsls	r0, r0, #2
10005f7c:	1818      	adds	r0, r3, r0
10005f7e:	69c0      	ldr	r0, [r0, #28]
10005f80:	2800      	cmp	r0, #0
10005f82:	d125      	bne.n	10005fd0 <vTaskSuspend+0x110>
10005f84:	1e4c      	subs	r4, r1, #1
10005f86:	00a2      	lsls	r2, r4, #2
10005f88:	1910      	adds	r0, r2, r4
10005f8a:	0080      	lsls	r0, r0, #2
10005f8c:	1818      	adds	r0, r3, r0
10005f8e:	69c0      	ldr	r0, [r0, #28]
10005f90:	2800      	cmp	r0, #0
10005f92:	d12e      	bne.n	10005ff2 <vTaskSuspend+0x132>
10005f94:	1e8c      	subs	r4, r1, #2
10005f96:	00a2      	lsls	r2, r4, #2
10005f98:	1910      	adds	r0, r2, r4
10005f9a:	0080      	lsls	r0, r0, #2
10005f9c:	1818      	adds	r0, r3, r0
10005f9e:	69c0      	ldr	r0, [r0, #28]
10005fa0:	2800      	cmp	r0, #0
10005fa2:	d126      	bne.n	10005ff2 <vTaskSuspend+0x132>
10005fa4:	1ecc      	subs	r4, r1, #3
10005fa6:	00a2      	lsls	r2, r4, #2
10005fa8:	1910      	adds	r0, r2, r4
10005faa:	0080      	lsls	r0, r0, #2
10005fac:	1818      	adds	r0, r3, r0
10005fae:	69c0      	ldr	r0, [r0, #28]
10005fb0:	2800      	cmp	r0, #0
10005fb2:	d11e      	bne.n	10005ff2 <vTaskSuspend+0x132>
10005fb4:	1f0c      	subs	r4, r1, #4
10005fb6:	00a2      	lsls	r2, r4, #2
10005fb8:	1910      	adds	r0, r2, r4
10005fba:	0080      	lsls	r0, r0, #2
10005fbc:	1818      	adds	r0, r3, r0
10005fbe:	69c0      	ldr	r0, [r0, #28]
10005fc0:	2800      	cmp	r0, #0
10005fc2:	d116      	bne.n	10005ff2 <vTaskSuspend+0x132>
10005fc4:	3905      	subs	r1, #5
10005fc6:	008a      	lsls	r2, r1, #2
10005fc8:	1850      	adds	r0, r2, r1
10005fca:	0080      	lsls	r0, r0, #2
10005fcc:	1818      	adds	r0, r3, r0
10005fce:	69c0      	ldr	r0, [r0, #28]
10005fd0:	1852      	adds	r2, r2, r1
10005fd2:	0092      	lsls	r2, r2, #2
10005fd4:	189c      	adds	r4, r3, r2
10005fd6:	0023      	movs	r3, r4
10005fd8:	6a20      	ldr	r0, [r4, #32]
10005fda:	3324      	adds	r3, #36	; 0x24
10005fdc:	6840      	ldr	r0, [r0, #4]
10005fde:	6220      	str	r0, [r4, #32]
10005fe0:	4298      	cmp	r0, r3
10005fe2:	d003      	beq.n	10005fec <vTaskSuspend+0x12c>
10005fe4:	68c3      	ldr	r3, [r0, #12]
10005fe6:	606b      	str	r3, [r5, #4]
10005fe8:	62e9      	str	r1, [r5, #44]	; 0x2c
10005fea:	e79a      	b.n	10005f22 <vTaskSuspend+0x62>
10005fec:	6840      	ldr	r0, [r0, #4]
10005fee:	6220      	str	r0, [r4, #32]
10005ff0:	e7f8      	b.n	10005fe4 <vTaskSuspend+0x124>
10005ff2:	0021      	movs	r1, r4
10005ff4:	e7ec      	b.n	10005fd0 <vTaskSuspend+0x110>
10005ff6:	46c0      	nop			; (mov r8, r8)
10005ff8:	20000edc 	.word	0x20000edc
10005ffc:	20000e5c 	.word	0x20000e5c

10006000 <vTaskResume>:
10006000:	b5f8      	push	{r3, r4, r5, r6, r7, lr}
10006002:	4d1e      	ldr	r5, [pc, #120]	; (1000607c <vTaskResume+0x7c>)
10006004:	0004      	movs	r4, r0
10006006:	686b      	ldr	r3, [r5, #4]
10006008:	4283      	cmp	r3, r0
1000600a:	d00a      	beq.n	10006022 <vTaskResume+0x22>
1000600c:	2800      	cmp	r0, #0
1000600e:	d008      	beq.n	10006022 <vTaskResume+0x22>
10006010:	f001 fa20 	bl	10007454 <vPortEnterCritical>
10006014:	002b      	movs	r3, r5
10006016:	6962      	ldr	r2, [r4, #20]
10006018:	3308      	adds	r3, #8
1000601a:	429a      	cmp	r2, r3
1000601c:	d002      	beq.n	10006024 <vTaskResume+0x24>
1000601e:	f001 fa25 	bl	1000746c <vPortExitCritical>
10006022:	bdf8      	pop	{r3, r4, r5, r6, r7, pc}
10006024:	002a      	movs	r2, r5
10006026:	6aa3      	ldr	r3, [r4, #40]	; 0x28
10006028:	325c      	adds	r2, #92	; 0x5c
1000602a:	4293      	cmp	r3, r2
1000602c:	d0f7      	beq.n	1000601e <vTaskResume+0x1e>
1000602e:	2b00      	cmp	r3, #0
10006030:	d1f5      	bne.n	1000601e <vTaskResume+0x1e>
10006032:	1d26      	adds	r6, r4, #4
10006034:	0030      	movs	r0, r6
10006036:	f001 fac9 	bl	100075cc <uxListRemove>
1000603a:	6ae1      	ldr	r1, [r4, #44]	; 0x2c
1000603c:	6aeb      	ldr	r3, [r5, #44]	; 0x2c
1000603e:	4299      	cmp	r1, r3
10006040:	d900      	bls.n	10006044 <vTaskResume+0x44>
10006042:	62e9      	str	r1, [r5, #44]	; 0x2c
10006044:	4b0e      	ldr	r3, [pc, #56]	; (10006080 <vTaskResume+0x80>)
10006046:	008a      	lsls	r2, r1, #2
10006048:	469c      	mov	ip, r3
1000604a:	1852      	adds	r2, r2, r1
1000604c:	0092      	lsls	r2, r2, #2
1000604e:	189f      	adds	r7, r3, r2
10006050:	6a38      	ldr	r0, [r7, #32]
10006052:	6883      	ldr	r3, [r0, #8]
10006054:	60a0      	str	r0, [r4, #8]
10006056:	60e3      	str	r3, [r4, #12]
10006058:	6883      	ldr	r3, [r0, #8]
1000605a:	605e      	str	r6, [r3, #4]
1000605c:	4663      	mov	r3, ip
1000605e:	331c      	adds	r3, #28
10006060:	189b      	adds	r3, r3, r2
10006062:	6086      	str	r6, [r0, #8]
10006064:	6163      	str	r3, [r4, #20]
10006066:	69fb      	ldr	r3, [r7, #28]
10006068:	3301      	adds	r3, #1
1000606a:	61fb      	str	r3, [r7, #28]
1000606c:	686b      	ldr	r3, [r5, #4]
1000606e:	6adb      	ldr	r3, [r3, #44]	; 0x2c
10006070:	4299      	cmp	r1, r3
10006072:	d3d4      	bcc.n	1000601e <vTaskResume+0x1e>
10006074:	f001 f9e2 	bl	1000743c <vPortYield>
10006078:	e7d1      	b.n	1000601e <vTaskResume+0x1e>
1000607a:	46c0      	nop			; (mov r8, r8)
1000607c:	20000edc 	.word	0x20000edc
10006080:	20000e5c 	.word	0x20000e5c

10006084 <xTaskResumeFromISR>:
10006084:	b5f0      	push	{r4, r5, r6, r7, lr}
10006086:	46c6      	mov	lr, r8
10006088:	b500      	push	{lr}
1000608a:	0004      	movs	r4, r0
1000608c:	f001 f9f8 	bl	10007480 <ulSetInterruptMaskFromISR>
10006090:	4e22      	ldr	r6, [pc, #136]	; (1000611c <xTaskResumeFromISR+0x98>)
10006092:	6962      	ldr	r2, [r4, #20]
10006094:	0033      	movs	r3, r6
10006096:	3308      	adds	r3, #8
10006098:	0005      	movs	r5, r0
1000609a:	2700      	movs	r7, #0
1000609c:	429a      	cmp	r2, r3
1000609e:	d006      	beq.n	100060ae <xTaskResumeFromISR+0x2a>
100060a0:	0028      	movs	r0, r5
100060a2:	f001 f9f1 	bl	10007488 <vClearInterruptMaskFromISR>
100060a6:	0038      	movs	r0, r7
100060a8:	bc04      	pop	{r2}
100060aa:	4690      	mov	r8, r2
100060ac:	bdf0      	pop	{r4, r5, r6, r7, pc}
100060ae:	0030      	movs	r0, r6
100060b0:	6aa3      	ldr	r3, [r4, #40]	; 0x28
100060b2:	305c      	adds	r0, #92	; 0x5c
100060b4:	4283      	cmp	r3, r0
100060b6:	d0f3      	beq.n	100060a0 <xTaskResumeFromISR+0x1c>
100060b8:	2b00      	cmp	r3, #0
100060ba:	d1f1      	bne.n	100060a0 <xTaskResumeFromISR+0x1c>
100060bc:	6fb3      	ldr	r3, [r6, #120]	; 0x78
100060be:	2b00      	cmp	r3, #0
100060c0:	d127      	bne.n	10006112 <xTaskResumeFromISR+0x8e>
100060c2:	6873      	ldr	r3, [r6, #4]
100060c4:	6ae2      	ldr	r2, [r4, #44]	; 0x2c
100060c6:	6adb      	ldr	r3, [r3, #44]	; 0x2c
100060c8:	429a      	cmp	r2, r3
100060ca:	d302      	bcc.n	100060d2 <xTaskResumeFromISR+0x4e>
100060cc:	2301      	movs	r3, #1
100060ce:	3701      	adds	r7, #1
100060d0:	6333      	str	r3, [r6, #48]	; 0x30
100060d2:	1d23      	adds	r3, r4, #4
100060d4:	0018      	movs	r0, r3
100060d6:	4698      	mov	r8, r3
100060d8:	f001 fa78 	bl	100075cc <uxListRemove>
100060dc:	6ae1      	ldr	r1, [r4, #44]	; 0x2c
100060de:	6af3      	ldr	r3, [r6, #44]	; 0x2c
100060e0:	4299      	cmp	r1, r3
100060e2:	d900      	bls.n	100060e6 <xTaskResumeFromISR+0x62>
100060e4:	62f1      	str	r1, [r6, #44]	; 0x2c
100060e6:	008a      	lsls	r2, r1, #2
100060e8:	4b0d      	ldr	r3, [pc, #52]	; (10006120 <xTaskResumeFromISR+0x9c>)
100060ea:	1852      	adds	r2, r2, r1
100060ec:	0092      	lsls	r2, r2, #2
100060ee:	189e      	adds	r6, r3, r2
100060f0:	469c      	mov	ip, r3
100060f2:	4643      	mov	r3, r8
100060f4:	6a31      	ldr	r1, [r6, #32]
100060f6:	6888      	ldr	r0, [r1, #8]
100060f8:	60a1      	str	r1, [r4, #8]
100060fa:	60e0      	str	r0, [r4, #12]
100060fc:	6888      	ldr	r0, [r1, #8]
100060fe:	6043      	str	r3, [r0, #4]
10006100:	608b      	str	r3, [r1, #8]
10006102:	4663      	mov	r3, ip
10006104:	331c      	adds	r3, #28
10006106:	189b      	adds	r3, r3, r2
10006108:	6163      	str	r3, [r4, #20]
1000610a:	69f3      	ldr	r3, [r6, #28]
1000610c:	3301      	adds	r3, #1
1000610e:	61f3      	str	r3, [r6, #28]
10006110:	e7c6      	b.n	100060a0 <xTaskResumeFromISR+0x1c>
10006112:	0021      	movs	r1, r4
10006114:	3118      	adds	r1, #24
10006116:	f001 fa35 	bl	10007584 <vListInsertEnd>
1000611a:	e7c1      	b.n	100060a0 <xTaskResumeFromISR+0x1c>
1000611c:	20000edc 	.word	0x20000edc
10006120:	20000e5c 	.word	0x20000e5c

10006124 <vTaskStartScheduler>:
10006124:	b5f8      	push	{r3, r4, r5, r6, r7, lr}
10006126:	2080      	movs	r0, #128	; 0x80
10006128:	46ce      	mov	lr, r9
1000612a:	4647      	mov	r7, r8
1000612c:	0080      	lsls	r0, r0, #2
1000612e:	b580      	push	{r7, lr}
10006130:	f001 f934 	bl	1000739c <pvPortMalloc>
10006134:	1e05      	subs	r5, r0, #0
10006136:	d064      	beq.n	10006202 <vTaskStartScheduler+0xde>
10006138:	2068      	movs	r0, #104	; 0x68
1000613a:	f001 f92f 	bl	1000739c <pvPortMalloc>
1000613e:	1e04      	subs	r4, r0, #0
10006140:	d065      	beq.n	1000620e <vTaskStartScheduler+0xea>
10006142:	2100      	movs	r1, #0
10006144:	2268      	movs	r2, #104	; 0x68
10006146:	f7fb fedd 	bl	10001f04 <__wrap_memset>
1000614a:	2307      	movs	r3, #7
1000614c:	6325      	str	r5, [r4, #48]	; 0x30
1000614e:	35fd      	adds	r5, #253	; 0xfd
10006150:	35ff      	adds	r5, #255	; 0xff
10006152:	439d      	bics	r5, r3
10006154:	4b4f      	ldr	r3, [pc, #316]	; (10006294 <vTaskStartScheduler+0x170>)
10006156:	2238      	movs	r2, #56	; 0x38
10006158:	6363      	str	r3, [r4, #52]	; 0x34
1000615a:	2300      	movs	r3, #0
1000615c:	1d27      	adds	r7, r4, #4
1000615e:	54a3      	strb	r3, [r4, r2]
10006160:	320b      	adds	r2, #11
10006162:	54a3      	strb	r3, [r4, r2]
10006164:	0038      	movs	r0, r7
10006166:	f001 fa09 	bl	1000757c <vListInitialiseItem>
1000616a:	0020      	movs	r0, r4
1000616c:	3018      	adds	r0, #24
1000616e:	f001 fa05 	bl	1000757c <vListInitialiseItem>
10006172:	2305      	movs	r3, #5
10006174:	2200      	movs	r2, #0
10006176:	61a3      	str	r3, [r4, #24]
10006178:	0028      	movs	r0, r5
1000617a:	4947      	ldr	r1, [pc, #284]	; (10006298 <vTaskStartScheduler+0x174>)
1000617c:	6124      	str	r4, [r4, #16]
1000617e:	6264      	str	r4, [r4, #36]	; 0x24
10006180:	f001 f948 	bl	10007414 <pxPortInitialiseStack>
10006184:	4d45      	ldr	r5, [pc, #276]	; (1000629c <vTaskStartScheduler+0x178>)
10006186:	6020      	str	r0, [r4, #0]
10006188:	67ec      	str	r4, [r5, #124]	; 0x7c
1000618a:	f001 f963 	bl	10007454 <vPortEnterCritical>
1000618e:	4e44      	ldr	r6, [pc, #272]	; (100062a0 <vTaskStartScheduler+0x17c>)
10006190:	69b3      	ldr	r3, [r6, #24]
10006192:	3301      	adds	r3, #1
10006194:	61b3      	str	r3, [r6, #24]
10006196:	686b      	ldr	r3, [r5, #4]
10006198:	2b00      	cmp	r3, #0
1000619a:	d043      	beq.n	10006224 <vTaskStartScheduler+0x100>
1000619c:	6f2b      	ldr	r3, [r5, #112]	; 0x70
1000619e:	2b00      	cmp	r3, #0
100061a0:	d039      	beq.n	10006216 <vTaskStartScheduler+0xf2>
100061a2:	6ae2      	ldr	r2, [r4, #44]	; 0x2c
100061a4:	6f6b      	ldr	r3, [r5, #116]	; 0x74
100061a6:	3301      	adds	r3, #1
100061a8:	676b      	str	r3, [r5, #116]	; 0x74
100061aa:	6aeb      	ldr	r3, [r5, #44]	; 0x2c
100061ac:	4293      	cmp	r3, r2
100061ae:	d200      	bcs.n	100061b2 <vTaskStartScheduler+0x8e>
100061b0:	62ea      	str	r2, [r5, #44]	; 0x2c
100061b2:	0093      	lsls	r3, r2, #2
100061b4:	189b      	adds	r3, r3, r2
100061b6:	009b      	lsls	r3, r3, #2
100061b8:	18f1      	adds	r1, r6, r3
100061ba:	6a0a      	ldr	r2, [r1, #32]
100061bc:	361c      	adds	r6, #28
100061be:	6890      	ldr	r0, [r2, #8]
100061c0:	18f6      	adds	r6, r6, r3
100061c2:	60e0      	str	r0, [r4, #12]
100061c4:	69cb      	ldr	r3, [r1, #28]
100061c6:	6890      	ldr	r0, [r2, #8]
100061c8:	3301      	adds	r3, #1
100061ca:	60a2      	str	r2, [r4, #8]
100061cc:	6047      	str	r7, [r0, #4]
100061ce:	6097      	str	r7, [r2, #8]
100061d0:	6166      	str	r6, [r4, #20]
100061d2:	61cb      	str	r3, [r1, #28]
100061d4:	f001 f94a 	bl	1000746c <vPortExitCritical>
100061d8:	6f2b      	ldr	r3, [r5, #112]	; 0x70
100061da:	2b00      	cmp	r3, #0
100061dc:	d004      	beq.n	100061e8 <vTaskStartScheduler+0xc4>
100061de:	686b      	ldr	r3, [r5, #4]
100061e0:	6ada      	ldr	r2, [r3, #44]	; 0x2c
100061e2:	6ae3      	ldr	r3, [r4, #44]	; 0x2c
100061e4:	429a      	cmp	r2, r3
100061e6:	d351      	bcc.n	1000628c <vTaskStartScheduler+0x168>
100061e8:	f000 ffca 	bl	10007180 <xTimerCreateTimerTask>
100061ec:	2801      	cmp	r0, #1
100061ee:	d108      	bne.n	10006202 <vTaskStartScheduler+0xde>
100061f0:	b672      	cpsid	i
100061f2:	2301      	movs	r3, #1
100061f4:	425b      	negs	r3, r3
100061f6:	626b      	str	r3, [r5, #36]	; 0x24
100061f8:	2300      	movs	r3, #0
100061fa:	6728      	str	r0, [r5, #112]	; 0x70
100061fc:	602b      	str	r3, [r5, #0]
100061fe:	f001 f98f 	bl	10007520 <xPortStartScheduler>
10006202:	4b28      	ldr	r3, [pc, #160]	; (100062a4 <vTaskStartScheduler+0x180>)
10006204:	681b      	ldr	r3, [r3, #0]
10006206:	bc0c      	pop	{r2, r3}
10006208:	4690      	mov	r8, r2
1000620a:	4699      	mov	r9, r3
1000620c:	bdf8      	pop	{r3, r4, r5, r6, r7, pc}
1000620e:	0028      	movs	r0, r5
10006210:	f001 f8d0 	bl	100073b4 <vPortFree>
10006214:	e7f5      	b.n	10006202 <vTaskStartScheduler+0xde>
10006216:	686b      	ldr	r3, [r5, #4]
10006218:	6ae2      	ldr	r2, [r4, #44]	; 0x2c
1000621a:	6adb      	ldr	r3, [r3, #44]	; 0x2c
1000621c:	4293      	cmp	r3, r2
1000621e:	d8c1      	bhi.n	100061a4 <vTaskStartScheduler+0x80>
10006220:	606c      	str	r4, [r5, #4]
10006222:	e7bf      	b.n	100061a4 <vTaskStartScheduler+0x80>
10006224:	606c      	str	r4, [r5, #4]
10006226:	69b3      	ldr	r3, [r6, #24]
10006228:	2b01      	cmp	r3, #1
1000622a:	d1ba      	bne.n	100061a2 <vTaskStartScheduler+0x7e>
1000622c:	0030      	movs	r0, r6
1000622e:	301c      	adds	r0, #28
10006230:	f001 f998 	bl	10007564 <vListInitialise>
10006234:	0030      	movs	r0, r6
10006236:	3030      	adds	r0, #48	; 0x30
10006238:	f001 f994 	bl	10007564 <vListInitialise>
1000623c:	0030      	movs	r0, r6
1000623e:	3044      	adds	r0, #68	; 0x44
10006240:	f001 f990 	bl	10007564 <vListInitialise>
10006244:	0030      	movs	r0, r6
10006246:	3058      	adds	r0, #88	; 0x58
10006248:	f001 f98c 	bl	10007564 <vListInitialise>
1000624c:	0030      	movs	r0, r6
1000624e:	306c      	adds	r0, #108	; 0x6c
10006250:	f001 f988 	bl	10007564 <vListInitialise>
10006254:	2334      	movs	r3, #52	; 0x34
10006256:	4699      	mov	r9, r3
10006258:	44a9      	add	r9, r5
1000625a:	4648      	mov	r0, r9
1000625c:	f001 f982 	bl	10007564 <vListInitialise>
10006260:	2348      	movs	r3, #72	; 0x48
10006262:	4698      	mov	r8, r3
10006264:	44a8      	add	r8, r5
10006266:	4640      	mov	r0, r8
10006268:	f001 f97c 	bl	10007564 <vListInitialise>
1000626c:	0028      	movs	r0, r5
1000626e:	305c      	adds	r0, #92	; 0x5c
10006270:	f001 f978 	bl	10007564 <vListInitialise>
10006274:	1d30      	adds	r0, r6, #4
10006276:	f001 f975 	bl	10007564 <vListInitialise>
1000627a:	0028      	movs	r0, r5
1000627c:	3008      	adds	r0, #8
1000627e:	f001 f971 	bl	10007564 <vListInitialise>
10006282:	464b      	mov	r3, r9
10006284:	622b      	str	r3, [r5, #32]
10006286:	4643      	mov	r3, r8
10006288:	61eb      	str	r3, [r5, #28]
1000628a:	e78a      	b.n	100061a2 <vTaskStartScheduler+0x7e>
1000628c:	f001 f8d6 	bl	1000743c <vPortYield>
10006290:	e7aa      	b.n	100061e8 <vTaskStartScheduler+0xc4>
10006292:	46c0      	nop			; (mov r8, r8)
10006294:	454c4449 	.word	0x454c4449
10006298:	10005915 	.word	0x10005915
1000629c:	20000edc 	.word	0x20000edc
100062a0:	20000e5c 	.word	0x20000e5c
100062a4:	200004d0 	.word	0x200004d0

100062a8 <vTaskEndScheduler>:
100062a8:	b510      	push	{r4, lr}
100062aa:	b672      	cpsid	i
100062ac:	2200      	movs	r2, #0
100062ae:	4b02      	ldr	r3, [pc, #8]	; (100062b8 <vTaskEndScheduler+0x10>)
100062b0:	671a      	str	r2, [r3, #112]	; 0x70
100062b2:	f001 f8c1 	bl	10007438 <vPortEndScheduler>
100062b6:	bd10      	pop	{r4, pc}
100062b8:	20000edc 	.word	0x20000edc

100062bc <vTaskSuspendAll>:
100062bc:	4a02      	ldr	r2, [pc, #8]	; (100062c8 <vTaskSuspendAll+0xc>)
100062be:	6f93      	ldr	r3, [r2, #120]	; 0x78
100062c0:	3301      	adds	r3, #1
100062c2:	6793      	str	r3, [r2, #120]	; 0x78
100062c4:	4770      	bx	lr
100062c6:	46c0      	nop			; (mov r8, r8)
100062c8:	20000edc 	.word	0x20000edc

100062cc <xTaskResumeAll>:
100062cc:	b5f0      	push	{r4, r5, r6, r7, lr}
100062ce:	46d6      	mov	lr, sl
100062d0:	464f      	mov	r7, r9
100062d2:	4646      	mov	r6, r8
100062d4:	b5c0      	push	{r6, r7, lr}
100062d6:	f001 f8bd 	bl	10007454 <vPortEnterCritical>
100062da:	4c47      	ldr	r4, [pc, #284]	; (100063f8 <xTaskResumeAll+0x12c>)
100062dc:	6fa3      	ldr	r3, [r4, #120]	; 0x78
100062de:	3b01      	subs	r3, #1
100062e0:	67a3      	str	r3, [r4, #120]	; 0x78
100062e2:	6fa3      	ldr	r3, [r4, #120]	; 0x78
100062e4:	2b00      	cmp	r3, #0
100062e6:	d16c      	bne.n	100063c2 <xTaskResumeAll+0xf6>
100062e8:	4b44      	ldr	r3, [pc, #272]	; (100063fc <xTaskResumeAll+0x130>)
100062ea:	469a      	mov	sl, r3
100062ec:	699b      	ldr	r3, [r3, #24]
100062ee:	2b00      	cmp	r3, #0
100062f0:	d067      	beq.n	100063c2 <xTaskResumeAll+0xf6>
100062f2:	6de3      	ldr	r3, [r4, #92]	; 0x5c
100062f4:	2b00      	cmp	r3, #0
100062f6:	d049      	beq.n	1000638c <xTaskResumeAll+0xc0>
100062f8:	2300      	movs	r3, #0
100062fa:	469c      	mov	ip, r3
100062fc:	331c      	adds	r3, #28
100062fe:	4699      	mov	r9, r3
10006300:	3b1b      	subs	r3, #27
10006302:	4698      	mov	r8, r3
10006304:	44d1      	add	r9, sl
10006306:	6ea3      	ldr	r3, [r4, #104]	; 0x68
10006308:	68db      	ldr	r3, [r3, #12]
1000630a:	69d8      	ldr	r0, [r3, #28]
1000630c:	6a1d      	ldr	r5, [r3, #32]
1000630e:	6a9a      	ldr	r2, [r3, #40]	; 0x28
10006310:	6085      	str	r5, [r0, #8]
10006312:	6a19      	ldr	r1, [r3, #32]
10006314:	6048      	str	r0, [r1, #4]
10006316:	0019      	movs	r1, r3
10006318:	6850      	ldr	r0, [r2, #4]
1000631a:	3118      	adds	r1, #24
1000631c:	4288      	cmp	r0, r1
1000631e:	d05f      	beq.n	100063e0 <xTaskResumeAll+0x114>
10006320:	4661      	mov	r1, ip
10006322:	6299      	str	r1, [r3, #40]	; 0x28
10006324:	6811      	ldr	r1, [r2, #0]
10006326:	3901      	subs	r1, #1
10006328:	6011      	str	r1, [r2, #0]
1000632a:	695a      	ldr	r2, [r3, #20]
1000632c:	6898      	ldr	r0, [r3, #8]
1000632e:	68d9      	ldr	r1, [r3, #12]
10006330:	1d1f      	adds	r7, r3, #4
10006332:	6081      	str	r1, [r0, #8]
10006334:	6048      	str	r0, [r1, #4]
10006336:	6850      	ldr	r0, [r2, #4]
10006338:	42b8      	cmp	r0, r7
1000633a:	d04f      	beq.n	100063dc <xTaskResumeAll+0x110>
1000633c:	6811      	ldr	r1, [r2, #0]
1000633e:	3901      	subs	r1, #1
10006340:	6011      	str	r1, [r2, #0]
10006342:	6ae2      	ldr	r2, [r4, #44]	; 0x2c
10006344:	6ad9      	ldr	r1, [r3, #44]	; 0x2c
10006346:	4291      	cmp	r1, r2
10006348:	d900      	bls.n	1000634c <xTaskResumeAll+0x80>
1000634a:	62e1      	str	r1, [r4, #44]	; 0x2c
1000634c:	4650      	mov	r0, sl
1000634e:	008a      	lsls	r2, r1, #2
10006350:	1852      	adds	r2, r2, r1
10006352:	0092      	lsls	r2, r2, #2
10006354:	1885      	adds	r5, r0, r2
10006356:	6a28      	ldr	r0, [r5, #32]
10006358:	444a      	add	r2, r9
1000635a:	6886      	ldr	r6, [r0, #8]
1000635c:	6098      	str	r0, [r3, #8]
1000635e:	60de      	str	r6, [r3, #12]
10006360:	6886      	ldr	r6, [r0, #8]
10006362:	6077      	str	r7, [r6, #4]
10006364:	6087      	str	r7, [r0, #8]
10006366:	615a      	str	r2, [r3, #20]
10006368:	69eb      	ldr	r3, [r5, #28]
1000636a:	3301      	adds	r3, #1
1000636c:	61eb      	str	r3, [r5, #28]
1000636e:	6863      	ldr	r3, [r4, #4]
10006370:	6adb      	ldr	r3, [r3, #44]	; 0x2c
10006372:	4299      	cmp	r1, r3
10006374:	d32e      	bcc.n	100063d4 <xTaskResumeAll+0x108>
10006376:	4643      	mov	r3, r8
10006378:	6323      	str	r3, [r4, #48]	; 0x30
1000637a:	6de3      	ldr	r3, [r4, #92]	; 0x5c
1000637c:	2b00      	cmp	r3, #0
1000637e:	d1c2      	bne.n	10006306 <xTaskResumeAll+0x3a>
10006380:	6a23      	ldr	r3, [r4, #32]
10006382:	681b      	ldr	r3, [r3, #0]
10006384:	2b00      	cmp	r3, #0
10006386:	d12d      	bne.n	100063e4 <xTaskResumeAll+0x118>
10006388:	3b01      	subs	r3, #1
1000638a:	6263      	str	r3, [r4, #36]	; 0x24
1000638c:	4e1c      	ldr	r6, [pc, #112]	; (10006400 <xTaskResumeAll+0x134>)
1000638e:	6835      	ldr	r5, [r6, #0]
10006390:	2d00      	cmp	r5, #0
10006392:	d013      	beq.n	100063bc <xTaskResumeAll+0xf0>
10006394:	2701      	movs	r7, #1
10006396:	e007      	b.n	100063a8 <xTaskResumeAll+0xdc>
10006398:	f7ff fb1a 	bl	100059d0 <xTaskIncrementTick.part.0>
1000639c:	2800      	cmp	r0, #0
1000639e:	d000      	beq.n	100063a2 <xTaskResumeAll+0xd6>
100063a0:	6327      	str	r7, [r4, #48]	; 0x30
100063a2:	3d01      	subs	r5, #1
100063a4:	2d00      	cmp	r5, #0
100063a6:	d008      	beq.n	100063ba <xTaskResumeAll+0xee>
100063a8:	6fa3      	ldr	r3, [r4, #120]	; 0x78
100063aa:	2b00      	cmp	r3, #0
100063ac:	d0f4      	beq.n	10006398 <xTaskResumeAll+0xcc>
100063ae:	6833      	ldr	r3, [r6, #0]
100063b0:	3d01      	subs	r5, #1
100063b2:	3301      	adds	r3, #1
100063b4:	6033      	str	r3, [r6, #0]
100063b6:	2d00      	cmp	r5, #0
100063b8:	d1f6      	bne.n	100063a8 <xTaskResumeAll+0xdc>
100063ba:	6035      	str	r5, [r6, #0]
100063bc:	6b23      	ldr	r3, [r4, #48]	; 0x30
100063be:	2b00      	cmp	r3, #0
100063c0:	d115      	bne.n	100063ee <xTaskResumeAll+0x122>
100063c2:	2400      	movs	r4, #0
100063c4:	f001 f852 	bl	1000746c <vPortExitCritical>
100063c8:	0020      	movs	r0, r4
100063ca:	bc1c      	pop	{r2, r3, r4}
100063cc:	4690      	mov	r8, r2
100063ce:	4699      	mov	r9, r3
100063d0:	46a2      	mov	sl, r4
100063d2:	bdf0      	pop	{r4, r5, r6, r7, pc}
100063d4:	6de3      	ldr	r3, [r4, #92]	; 0x5c
100063d6:	2b00      	cmp	r3, #0
100063d8:	d195      	bne.n	10006306 <xTaskResumeAll+0x3a>
100063da:	e7d1      	b.n	10006380 <xTaskResumeAll+0xb4>
100063dc:	6051      	str	r1, [r2, #4]
100063de:	e7ad      	b.n	1000633c <xTaskResumeAll+0x70>
100063e0:	6055      	str	r5, [r2, #4]
100063e2:	e79d      	b.n	10006320 <xTaskResumeAll+0x54>
100063e4:	6a23      	ldr	r3, [r4, #32]
100063e6:	68db      	ldr	r3, [r3, #12]
100063e8:	681b      	ldr	r3, [r3, #0]
100063ea:	6263      	str	r3, [r4, #36]	; 0x24
100063ec:	e7ce      	b.n	1000638c <xTaskResumeAll+0xc0>
100063ee:	f001 f825 	bl	1000743c <vPortYield>
100063f2:	2401      	movs	r4, #1
100063f4:	e7e6      	b.n	100063c4 <xTaskResumeAll+0xf8>
100063f6:	46c0      	nop			; (mov r8, r8)
100063f8:	20000edc 	.word	0x20000edc
100063fc:	20000e5c 	.word	0x20000e5c
10006400:	20000f5c 	.word	0x20000f5c

10006404 <xTaskDelayUntil>:
10006404:	b5f8      	push	{r3, r4, r5, r6, r7, lr}
10006406:	4e1d      	ldr	r6, [pc, #116]	; (1000647c <xTaskDelayUntil+0x78>)
10006408:	6fb3      	ldr	r3, [r6, #120]	; 0x78
1000640a:	3301      	adds	r3, #1
1000640c:	67b3      	str	r3, [r6, #120]	; 0x78
1000640e:	6802      	ldr	r2, [r0, #0]
10006410:	6835      	ldr	r5, [r6, #0]
10006412:	1854      	adds	r4, r2, r1
10006414:	6004      	str	r4, [r0, #0]
10006416:	42aa      	cmp	r2, r5
10006418:	d908      	bls.n	1000642c <xTaskDelayUntil+0x28>
1000641a:	42a2      	cmp	r2, r4
1000641c:	d808      	bhi.n	10006430 <xTaskDelayUntil+0x2c>
1000641e:	2500      	movs	r5, #0
10006420:	f7ff ff54 	bl	100062cc <xTaskResumeAll>
10006424:	2800      	cmp	r0, #0
10006426:	d01a      	beq.n	1000645e <xTaskDelayUntil+0x5a>
10006428:	0028      	movs	r0, r5
1000642a:	bdf8      	pop	{r3, r4, r5, r6, r7, pc}
1000642c:	42a2      	cmp	r2, r4
1000642e:	d801      	bhi.n	10006434 <xTaskDelayUntil+0x30>
10006430:	42a5      	cmp	r5, r4
10006432:	d2f4      	bcs.n	1000641e <xTaskDelayUntil+0x1a>
10006434:	6837      	ldr	r7, [r6, #0]
10006436:	6870      	ldr	r0, [r6, #4]
10006438:	1b7d      	subs	r5, r7, r5
1000643a:	3004      	adds	r0, #4
1000643c:	f001 f8c6 	bl	100075cc <uxListRemove>
10006440:	6873      	ldr	r3, [r6, #4]
10006442:	1964      	adds	r4, r4, r5
10006444:	605c      	str	r4, [r3, #4]
10006446:	42a7      	cmp	r7, r4
10006448:	d90c      	bls.n	10006464 <xTaskDelayUntil+0x60>
1000644a:	69f0      	ldr	r0, [r6, #28]
1000644c:	6871      	ldr	r1, [r6, #4]
1000644e:	2501      	movs	r5, #1
10006450:	3104      	adds	r1, #4
10006452:	f001 f8a3 	bl	1000759c <vListInsert>
10006456:	f7ff ff39 	bl	100062cc <xTaskResumeAll>
1000645a:	2800      	cmp	r0, #0
1000645c:	d1e4      	bne.n	10006428 <xTaskDelayUntil+0x24>
1000645e:	f000 ffed 	bl	1000743c <vPortYield>
10006462:	e7e1      	b.n	10006428 <xTaskDelayUntil+0x24>
10006464:	6a30      	ldr	r0, [r6, #32]
10006466:	6871      	ldr	r1, [r6, #4]
10006468:	2501      	movs	r5, #1
1000646a:	3104      	adds	r1, #4
1000646c:	f001 f896 	bl	1000759c <vListInsert>
10006470:	6a73      	ldr	r3, [r6, #36]	; 0x24
10006472:	429c      	cmp	r4, r3
10006474:	d2d4      	bcs.n	10006420 <xTaskDelayUntil+0x1c>
10006476:	6274      	str	r4, [r6, #36]	; 0x24
10006478:	e7d2      	b.n	10006420 <xTaskDelayUntil+0x1c>
1000647a:	46c0      	nop			; (mov r8, r8)
1000647c:	20000edc 	.word	0x20000edc

10006480 <vTaskDelay>:
10006480:	b570      	push	{r4, r5, r6, lr}
10006482:	1e04      	subs	r4, r0, #0
10006484:	d016      	beq.n	100064b4 <vTaskDelay+0x34>
10006486:	4d12      	ldr	r5, [pc, #72]	; (100064d0 <vTaskDelay+0x50>)
10006488:	6fab      	ldr	r3, [r5, #120]	; 0x78
1000648a:	3301      	adds	r3, #1
1000648c:	67ab      	str	r3, [r5, #120]	; 0x78
1000648e:	682e      	ldr	r6, [r5, #0]
10006490:	6868      	ldr	r0, [r5, #4]
10006492:	19a4      	adds	r4, r4, r6
10006494:	3004      	adds	r0, #4
10006496:	f001 f899 	bl	100075cc <uxListRemove>
1000649a:	686b      	ldr	r3, [r5, #4]
1000649c:	605c      	str	r4, [r3, #4]
1000649e:	42a6      	cmp	r6, r4
100064a0:	d90b      	bls.n	100064ba <vTaskDelay+0x3a>
100064a2:	69e8      	ldr	r0, [r5, #28]
100064a4:	6869      	ldr	r1, [r5, #4]
100064a6:	3104      	adds	r1, #4
100064a8:	f001 f878 	bl	1000759c <vListInsert>
100064ac:	f7ff ff0e 	bl	100062cc <xTaskResumeAll>
100064b0:	2800      	cmp	r0, #0
100064b2:	d101      	bne.n	100064b8 <vTaskDelay+0x38>
100064b4:	f000 ffc2 	bl	1000743c <vPortYield>
100064b8:	bd70      	pop	{r4, r5, r6, pc}
100064ba:	6a28      	ldr	r0, [r5, #32]
100064bc:	6869      	ldr	r1, [r5, #4]
100064be:	3104      	adds	r1, #4
100064c0:	f001 f86c 	bl	1000759c <vListInsert>
100064c4:	6a6b      	ldr	r3, [r5, #36]	; 0x24
100064c6:	429c      	cmp	r4, r3
100064c8:	d2f0      	bcs.n	100064ac <vTaskDelay+0x2c>
100064ca:	626c      	str	r4, [r5, #36]	; 0x24
100064cc:	e7ee      	b.n	100064ac <vTaskDelay+0x2c>
100064ce:	46c0      	nop			; (mov r8, r8)
100064d0:	20000edc 	.word	0x20000edc

100064d4 <xTaskGetTickCount>:
100064d4:	4b01      	ldr	r3, [pc, #4]	; (100064dc <xTaskGetTickCount+0x8>)
100064d6:	6818      	ldr	r0, [r3, #0]
100064d8:	4770      	bx	lr
100064da:	46c0      	nop			; (mov r8, r8)
100064dc:	20000edc 	.word	0x20000edc

100064e0 <xTaskGetTickCountFromISR>:
100064e0:	4b01      	ldr	r3, [pc, #4]	; (100064e8 <xTaskGetTickCountFromISR+0x8>)
100064e2:	6818      	ldr	r0, [r3, #0]
100064e4:	4770      	bx	lr
100064e6:	46c0      	nop			; (mov r8, r8)
100064e8:	20000edc 	.word	0x20000edc

100064ec <uxTaskGetNumberOfTasks>:
100064ec:	4b01      	ldr	r3, [pc, #4]	; (100064f4 <uxTaskGetNumberOfTasks+0x8>)
100064ee:	6998      	ldr	r0, [r3, #24]
100064f0:	4770      	bx	lr
100064f2:	46c0      	nop			; (mov r8, r8)
100064f4:	20000e5c 	.word	0x20000e5c

100064f8 <pcTaskGetName>:
100064f8:	2800      	cmp	r0, #0
100064fa:	d001      	beq.n	10006500 <pcTaskGetName+0x8>
100064fc:	3034      	adds	r0, #52	; 0x34
100064fe:	4770      	bx	lr
10006500:	4b01      	ldr	r3, [pc, #4]	; (10006508 <pcTaskGetName+0x10>)
10006502:	6858      	ldr	r0, [r3, #4]
10006504:	e7fa      	b.n	100064fc <pcTaskGetName+0x4>
10006506:	46c0      	nop			; (mov r8, r8)
10006508:	20000edc 	.word	0x20000edc

1000650c <xTaskCatchUpTicks>:
1000650c:	4a08      	ldr	r2, [pc, #32]	; (10006530 <xTaskCatchUpTicks+0x24>)
1000650e:	b510      	push	{r4, lr}
10006510:	6f93      	ldr	r3, [r2, #120]	; 0x78
10006512:	0004      	movs	r4, r0
10006514:	3301      	adds	r3, #1
10006516:	6793      	str	r3, [r2, #120]	; 0x78
10006518:	f000 ff9c 	bl	10007454 <vPortEnterCritical>
1000651c:	4b05      	ldr	r3, [pc, #20]	; (10006534 <xTaskCatchUpTicks+0x28>)
1000651e:	6818      	ldr	r0, [r3, #0]
10006520:	1900      	adds	r0, r0, r4
10006522:	6018      	str	r0, [r3, #0]
10006524:	f000 ffa2 	bl	1000746c <vPortExitCritical>
10006528:	f7ff fed0 	bl	100062cc <xTaskResumeAll>
1000652c:	bd10      	pop	{r4, pc}
1000652e:	46c0      	nop			; (mov r8, r8)
10006530:	20000edc 	.word	0x20000edc
10006534:	20000f5c 	.word	0x20000f5c

10006538 <xTaskIncrementTick>:
10006538:	4b06      	ldr	r3, [pc, #24]	; (10006554 <xTaskIncrementTick+0x1c>)
1000653a:	b510      	push	{r4, lr}
1000653c:	6f9b      	ldr	r3, [r3, #120]	; 0x78
1000653e:	2b00      	cmp	r3, #0
10006540:	d102      	bne.n	10006548 <xTaskIncrementTick+0x10>
10006542:	f7ff fa45 	bl	100059d0 <xTaskIncrementTick.part.0>
10006546:	bd10      	pop	{r4, pc}
10006548:	4a03      	ldr	r2, [pc, #12]	; (10006558 <xTaskIncrementTick+0x20>)
1000654a:	2000      	movs	r0, #0
1000654c:	6813      	ldr	r3, [r2, #0]
1000654e:	3301      	adds	r3, #1
10006550:	6013      	str	r3, [r2, #0]
10006552:	e7f8      	b.n	10006546 <xTaskIncrementTick+0xe>
10006554:	20000edc 	.word	0x20000edc
10006558:	20000f5c 	.word	0x20000f5c

1000655c <vTaskSwitchContext>:
1000655c:	b530      	push	{r4, r5, lr}
1000655e:	4c27      	ldr	r4, [pc, #156]	; (100065fc <vTaskSwitchContext+0xa0>)
10006560:	6fa3      	ldr	r3, [r4, #120]	; 0x78
10006562:	2b00      	cmp	r3, #0
10006564:	d002      	beq.n	1000656c <vTaskSwitchContext+0x10>
10006566:	2301      	movs	r3, #1
10006568:	6323      	str	r3, [r4, #48]	; 0x30
1000656a:	bd30      	pop	{r4, r5, pc}
1000656c:	6323      	str	r3, [r4, #48]	; 0x30
1000656e:	6ae0      	ldr	r0, [r4, #44]	; 0x2c
10006570:	4923      	ldr	r1, [pc, #140]	; (10006600 <vTaskSwitchContext+0xa4>)
10006572:	0083      	lsls	r3, r0, #2
10006574:	181a      	adds	r2, r3, r0
10006576:	0092      	lsls	r2, r2, #2
10006578:	188a      	adds	r2, r1, r2
1000657a:	69d2      	ldr	r2, [r2, #28]
1000657c:	2a00      	cmp	r2, #0
1000657e:	d125      	bne.n	100065cc <vTaskSwitchContext+0x70>
10006580:	1e45      	subs	r5, r0, #1
10006582:	00aa      	lsls	r2, r5, #2
10006584:	1953      	adds	r3, r2, r5
10006586:	009b      	lsls	r3, r3, #2
10006588:	18cb      	adds	r3, r1, r3
1000658a:	69db      	ldr	r3, [r3, #28]
1000658c:	2b00      	cmp	r3, #0
1000658e:	d12b      	bne.n	100065e8 <vTaskSwitchContext+0x8c>
10006590:	1e85      	subs	r5, r0, #2
10006592:	00aa      	lsls	r2, r5, #2
10006594:	1953      	adds	r3, r2, r5
10006596:	009b      	lsls	r3, r3, #2
10006598:	18cb      	adds	r3, r1, r3
1000659a:	69db      	ldr	r3, [r3, #28]
1000659c:	2b00      	cmp	r3, #0
1000659e:	d123      	bne.n	100065e8 <vTaskSwitchContext+0x8c>
100065a0:	1ec5      	subs	r5, r0, #3
100065a2:	00aa      	lsls	r2, r5, #2
100065a4:	1953      	adds	r3, r2, r5
100065a6:	009b      	lsls	r3, r3, #2
100065a8:	18cb      	adds	r3, r1, r3
100065aa:	69db      	ldr	r3, [r3, #28]
100065ac:	2b00      	cmp	r3, #0
100065ae:	d11b      	bne.n	100065e8 <vTaskSwitchContext+0x8c>
100065b0:	1f05      	subs	r5, r0, #4
100065b2:	00aa      	lsls	r2, r5, #2
100065b4:	1953      	adds	r3, r2, r5
100065b6:	009b      	lsls	r3, r3, #2
100065b8:	18cb      	adds	r3, r1, r3
100065ba:	69db      	ldr	r3, [r3, #28]
100065bc:	2b00      	cmp	r3, #0
100065be:	d113      	bne.n	100065e8 <vTaskSwitchContext+0x8c>
100065c0:	3805      	subs	r0, #5
100065c2:	0083      	lsls	r3, r0, #2
100065c4:	181a      	adds	r2, r3, r0
100065c6:	0092      	lsls	r2, r2, #2
100065c8:	188a      	adds	r2, r1, r2
100065ca:	69d2      	ldr	r2, [r2, #28]
100065cc:	181b      	adds	r3, r3, r0
100065ce:	009b      	lsls	r3, r3, #2
100065d0:	18cd      	adds	r5, r1, r3
100065d2:	002b      	movs	r3, r5
100065d4:	6a2a      	ldr	r2, [r5, #32]
100065d6:	3324      	adds	r3, #36	; 0x24
100065d8:	6852      	ldr	r2, [r2, #4]
100065da:	622a      	str	r2, [r5, #32]
100065dc:	429a      	cmp	r2, r3
100065de:	d006      	beq.n	100065ee <vTaskSwitchContext+0x92>
100065e0:	68d3      	ldr	r3, [r2, #12]
100065e2:	6063      	str	r3, [r4, #4]
100065e4:	62e0      	str	r0, [r4, #44]	; 0x2c
100065e6:	e7c0      	b.n	1000656a <vTaskSwitchContext+0xe>
100065e8:	0028      	movs	r0, r5
100065ea:	0013      	movs	r3, r2
100065ec:	e7ee      	b.n	100065cc <vTaskSwitchContext+0x70>
100065ee:	6852      	ldr	r2, [r2, #4]
100065f0:	68d3      	ldr	r3, [r2, #12]
100065f2:	622a      	str	r2, [r5, #32]
100065f4:	6063      	str	r3, [r4, #4]
100065f6:	62e0      	str	r0, [r4, #44]	; 0x2c
100065f8:	e7b7      	b.n	1000656a <vTaskSwitchContext+0xe>
100065fa:	46c0      	nop			; (mov r8, r8)
100065fc:	20000edc 	.word	0x20000edc
10006600:	20000e5c 	.word	0x20000e5c

10006604 <vTaskPlaceOnEventList>:
10006604:	b570      	push	{r4, r5, r6, lr}
10006606:	000d      	movs	r5, r1
10006608:	4c1a      	ldr	r4, [pc, #104]	; (10006674 <vTaskPlaceOnEventList+0x70>)
1000660a:	6861      	ldr	r1, [r4, #4]
1000660c:	3118      	adds	r1, #24
1000660e:	f000 ffc5 	bl	1000759c <vListInsert>
10006612:	6826      	ldr	r6, [r4, #0]
10006614:	6860      	ldr	r0, [r4, #4]
10006616:	3004      	adds	r0, #4
10006618:	f000 ffd8 	bl	100075cc <uxListRemove>
1000661c:	1c6b      	adds	r3, r5, #1
1000661e:	d014      	beq.n	1000664a <vTaskPlaceOnEventList+0x46>
10006620:	6863      	ldr	r3, [r4, #4]
10006622:	19ad      	adds	r5, r5, r6
10006624:	605d      	str	r5, [r3, #4]
10006626:	42ae      	cmp	r6, r5
10006628:	d905      	bls.n	10006636 <vTaskPlaceOnEventList+0x32>
1000662a:	69e0      	ldr	r0, [r4, #28]
1000662c:	6861      	ldr	r1, [r4, #4]
1000662e:	3104      	adds	r1, #4
10006630:	f000 ffb4 	bl	1000759c <vListInsert>
10006634:	bd70      	pop	{r4, r5, r6, pc}
10006636:	6a20      	ldr	r0, [r4, #32]
10006638:	6861      	ldr	r1, [r4, #4]
1000663a:	3104      	adds	r1, #4
1000663c:	f000 ffae 	bl	1000759c <vListInsert>
10006640:	6a63      	ldr	r3, [r4, #36]	; 0x24
10006642:	429d      	cmp	r5, r3
10006644:	d2f6      	bcs.n	10006634 <vTaskPlaceOnEventList+0x30>
10006646:	6265      	str	r5, [r4, #36]	; 0x24
10006648:	e7f4      	b.n	10006634 <vTaskPlaceOnEventList+0x30>
1000664a:	6862      	ldr	r2, [r4, #4]
1000664c:	68e3      	ldr	r3, [r4, #12]
1000664e:	6899      	ldr	r1, [r3, #8]
10006650:	6093      	str	r3, [r2, #8]
10006652:	6862      	ldr	r2, [r4, #4]
10006654:	60d1      	str	r1, [r2, #12]
10006656:	6862      	ldr	r2, [r4, #4]
10006658:	6899      	ldr	r1, [r3, #8]
1000665a:	3204      	adds	r2, #4
1000665c:	604a      	str	r2, [r1, #4]
1000665e:	6862      	ldr	r2, [r4, #4]
10006660:	3204      	adds	r2, #4
10006662:	609a      	str	r2, [r3, #8]
10006664:	0022      	movs	r2, r4
10006666:	6863      	ldr	r3, [r4, #4]
10006668:	3208      	adds	r2, #8
1000666a:	615a      	str	r2, [r3, #20]
1000666c:	68a3      	ldr	r3, [r4, #8]
1000666e:	3301      	adds	r3, #1
10006670:	60a3      	str	r3, [r4, #8]
10006672:	e7df      	b.n	10006634 <vTaskPlaceOnEventList+0x30>
10006674:	20000edc 	.word	0x20000edc

10006678 <vTaskPlaceOnUnorderedEventList>:
10006678:	2380      	movs	r3, #128	; 0x80
1000667a:	b570      	push	{r4, r5, r6, lr}
1000667c:	0015      	movs	r5, r2
1000667e:	4c24      	ldr	r4, [pc, #144]	; (10006710 <vTaskPlaceOnUnorderedEventList+0x98>)
10006680:	061b      	lsls	r3, r3, #24
10006682:	6862      	ldr	r2, [r4, #4]
10006684:	430b      	orrs	r3, r1
10006686:	6193      	str	r3, [r2, #24]
10006688:	6843      	ldr	r3, [r0, #4]
1000668a:	6862      	ldr	r2, [r4, #4]
1000668c:	6899      	ldr	r1, [r3, #8]
1000668e:	61d3      	str	r3, [r2, #28]
10006690:	6862      	ldr	r2, [r4, #4]
10006692:	6211      	str	r1, [r2, #32]
10006694:	6862      	ldr	r2, [r4, #4]
10006696:	6899      	ldr	r1, [r3, #8]
10006698:	3218      	adds	r2, #24
1000669a:	604a      	str	r2, [r1, #4]
1000669c:	6862      	ldr	r2, [r4, #4]
1000669e:	3218      	adds	r2, #24
100066a0:	609a      	str	r2, [r3, #8]
100066a2:	6863      	ldr	r3, [r4, #4]
100066a4:	6298      	str	r0, [r3, #40]	; 0x28
100066a6:	6803      	ldr	r3, [r0, #0]
100066a8:	3301      	adds	r3, #1
100066aa:	6003      	str	r3, [r0, #0]
100066ac:	6826      	ldr	r6, [r4, #0]
100066ae:	6860      	ldr	r0, [r4, #4]
100066b0:	3004      	adds	r0, #4
100066b2:	f000 ff8b 	bl	100075cc <uxListRemove>
100066b6:	1c6b      	adds	r3, r5, #1
100066b8:	d014      	beq.n	100066e4 <vTaskPlaceOnUnorderedEventList+0x6c>
100066ba:	6863      	ldr	r3, [r4, #4]
100066bc:	19ad      	adds	r5, r5, r6
100066be:	605d      	str	r5, [r3, #4]
100066c0:	42ae      	cmp	r6, r5
100066c2:	d905      	bls.n	100066d0 <vTaskPlaceOnUnorderedEventList+0x58>
100066c4:	69e0      	ldr	r0, [r4, #28]
100066c6:	6861      	ldr	r1, [r4, #4]
100066c8:	3104      	adds	r1, #4
100066ca:	f000 ff67 	bl	1000759c <vListInsert>
100066ce:	bd70      	pop	{r4, r5, r6, pc}
100066d0:	6a20      	ldr	r0, [r4, #32]
100066d2:	6861      	ldr	r1, [r4, #4]
100066d4:	3104      	adds	r1, #4
100066d6:	f000 ff61 	bl	1000759c <vListInsert>
100066da:	6a63      	ldr	r3, [r4, #36]	; 0x24
100066dc:	429d      	cmp	r5, r3
100066de:	d2f6      	bcs.n	100066ce <vTaskPlaceOnUnorderedEventList+0x56>
100066e0:	6265      	str	r5, [r4, #36]	; 0x24
100066e2:	e7f4      	b.n	100066ce <vTaskPlaceOnUnorderedEventList+0x56>
100066e4:	6862      	ldr	r2, [r4, #4]
100066e6:	68e3      	ldr	r3, [r4, #12]
100066e8:	6899      	ldr	r1, [r3, #8]
100066ea:	6093      	str	r3, [r2, #8]
100066ec:	6862      	ldr	r2, [r4, #4]
100066ee:	60d1      	str	r1, [r2, #12]
100066f0:	6862      	ldr	r2, [r4, #4]
100066f2:	6899      	ldr	r1, [r3, #8]
100066f4:	3204      	adds	r2, #4
100066f6:	604a      	str	r2, [r1, #4]
100066f8:	6862      	ldr	r2, [r4, #4]
100066fa:	3204      	adds	r2, #4
100066fc:	609a      	str	r2, [r3, #8]
100066fe:	0022      	movs	r2, r4
10006700:	6863      	ldr	r3, [r4, #4]
10006702:	3208      	adds	r2, #8
10006704:	615a      	str	r2, [r3, #20]
10006706:	68a3      	ldr	r3, [r4, #8]
10006708:	3301      	adds	r3, #1
1000670a:	60a3      	str	r3, [r4, #8]
1000670c:	e7df      	b.n	100066ce <vTaskPlaceOnUnorderedEventList+0x56>
1000670e:	46c0      	nop			; (mov r8, r8)
10006710:	20000edc 	.word	0x20000edc

10006714 <vTaskPlaceOnEventListRestricted>:
10006714:	b570      	push	{r4, r5, r6, lr}
10006716:	4c25      	ldr	r4, [pc, #148]	; (100067ac <vTaskPlaceOnEventListRestricted+0x98>)
10006718:	6843      	ldr	r3, [r0, #4]
1000671a:	000d      	movs	r5, r1
1000671c:	6861      	ldr	r1, [r4, #4]
1000671e:	689e      	ldr	r6, [r3, #8]
10006720:	61cb      	str	r3, [r1, #28]
10006722:	6861      	ldr	r1, [r4, #4]
10006724:	620e      	str	r6, [r1, #32]
10006726:	6861      	ldr	r1, [r4, #4]
10006728:	689e      	ldr	r6, [r3, #8]
1000672a:	3118      	adds	r1, #24
1000672c:	6071      	str	r1, [r6, #4]
1000672e:	6861      	ldr	r1, [r4, #4]
10006730:	3118      	adds	r1, #24
10006732:	6099      	str	r1, [r3, #8]
10006734:	6863      	ldr	r3, [r4, #4]
10006736:	6298      	str	r0, [r3, #40]	; 0x28
10006738:	6803      	ldr	r3, [r0, #0]
1000673a:	3301      	adds	r3, #1
1000673c:	6003      	str	r3, [r0, #0]
1000673e:	2a00      	cmp	r2, #0
10006740:	d019      	beq.n	10006776 <vTaskPlaceOnEventListRestricted+0x62>
10006742:	6823      	ldr	r3, [r4, #0]
10006744:	6860      	ldr	r0, [r4, #4]
10006746:	3004      	adds	r0, #4
10006748:	f000 ff40 	bl	100075cc <uxListRemove>
1000674c:	6862      	ldr	r2, [r4, #4]
1000674e:	68e3      	ldr	r3, [r4, #12]
10006750:	6899      	ldr	r1, [r3, #8]
10006752:	6093      	str	r3, [r2, #8]
10006754:	6862      	ldr	r2, [r4, #4]
10006756:	60d1      	str	r1, [r2, #12]
10006758:	6862      	ldr	r2, [r4, #4]
1000675a:	6899      	ldr	r1, [r3, #8]
1000675c:	3204      	adds	r2, #4
1000675e:	604a      	str	r2, [r1, #4]
10006760:	6862      	ldr	r2, [r4, #4]
10006762:	3204      	adds	r2, #4
10006764:	609a      	str	r2, [r3, #8]
10006766:	0022      	movs	r2, r4
10006768:	6863      	ldr	r3, [r4, #4]
1000676a:	3208      	adds	r2, #8
1000676c:	615a      	str	r2, [r3, #20]
1000676e:	68a3      	ldr	r3, [r4, #8]
10006770:	3301      	adds	r3, #1
10006772:	60a3      	str	r3, [r4, #8]
10006774:	bd70      	pop	{r4, r5, r6, pc}
10006776:	6826      	ldr	r6, [r4, #0]
10006778:	6860      	ldr	r0, [r4, #4]
1000677a:	19ad      	adds	r5, r5, r6
1000677c:	3004      	adds	r0, #4
1000677e:	f000 ff25 	bl	100075cc <uxListRemove>
10006782:	6863      	ldr	r3, [r4, #4]
10006784:	605d      	str	r5, [r3, #4]
10006786:	42ae      	cmp	r6, r5
10006788:	d809      	bhi.n	1000679e <vTaskPlaceOnEventListRestricted+0x8a>
1000678a:	6a20      	ldr	r0, [r4, #32]
1000678c:	6861      	ldr	r1, [r4, #4]
1000678e:	3104      	adds	r1, #4
10006790:	f000 ff04 	bl	1000759c <vListInsert>
10006794:	6a63      	ldr	r3, [r4, #36]	; 0x24
10006796:	429d      	cmp	r5, r3
10006798:	d2ec      	bcs.n	10006774 <vTaskPlaceOnEventListRestricted+0x60>
1000679a:	6265      	str	r5, [r4, #36]	; 0x24
1000679c:	e7ea      	b.n	10006774 <vTaskPlaceOnEventListRestricted+0x60>
1000679e:	69e0      	ldr	r0, [r4, #28]
100067a0:	6861      	ldr	r1, [r4, #4]
100067a2:	3104      	adds	r1, #4
100067a4:	f000 fefa 	bl	1000759c <vListInsert>
100067a8:	e7e4      	b.n	10006774 <vTaskPlaceOnEventListRestricted+0x60>
100067aa:	46c0      	nop			; (mov r8, r8)
100067ac:	20000edc 	.word	0x20000edc

100067b0 <xTaskRemoveFromEventList>:
100067b0:	68c3      	ldr	r3, [r0, #12]
100067b2:	b5f0      	push	{r4, r5, r6, r7, lr}
100067b4:	68db      	ldr	r3, [r3, #12]
100067b6:	69d8      	ldr	r0, [r3, #28]
100067b8:	6a19      	ldr	r1, [r3, #32]
100067ba:	6a9a      	ldr	r2, [r3, #40]	; 0x28
100067bc:	6081      	str	r1, [r0, #8]
100067be:	6048      	str	r0, [r1, #4]
100067c0:	0018      	movs	r0, r3
100067c2:	6854      	ldr	r4, [r2, #4]
100067c4:	3018      	adds	r0, #24
100067c6:	4284      	cmp	r4, r0
100067c8:	d047      	beq.n	1000685a <xTaskRemoveFromEventList+0xaa>
100067ca:	2100      	movs	r1, #0
100067cc:	6299      	str	r1, [r3, #40]	; 0x28
100067ce:	6811      	ldr	r1, [r2, #0]
100067d0:	3901      	subs	r1, #1
100067d2:	6011      	str	r1, [r2, #0]
100067d4:	4a26      	ldr	r2, [pc, #152]	; (10006870 <xTaskRemoveFromEventList+0xc0>)
100067d6:	6f91      	ldr	r1, [r2, #120]	; 0x78
100067d8:	2900      	cmp	r1, #0
100067da:	d12d      	bne.n	10006838 <xTaskRemoveFromEventList+0x88>
100067dc:	6898      	ldr	r0, [r3, #8]
100067de:	68dc      	ldr	r4, [r3, #12]
100067e0:	6959      	ldr	r1, [r3, #20]
100067e2:	6084      	str	r4, [r0, #8]
100067e4:	68dc      	ldr	r4, [r3, #12]
100067e6:	1d1f      	adds	r7, r3, #4
100067e8:	6060      	str	r0, [r4, #4]
100067ea:	6848      	ldr	r0, [r1, #4]
100067ec:	42b8      	cmp	r0, r7
100067ee:	d036      	beq.n	1000685e <xTaskRemoveFromEventList+0xae>
100067f0:	6808      	ldr	r0, [r1, #0]
100067f2:	3801      	subs	r0, #1
100067f4:	6008      	str	r0, [r1, #0]
100067f6:	6ad0      	ldr	r0, [r2, #44]	; 0x2c
100067f8:	6ad9      	ldr	r1, [r3, #44]	; 0x2c
100067fa:	4281      	cmp	r1, r0
100067fc:	d82b      	bhi.n	10006856 <xTaskRemoveFromEventList+0xa6>
100067fe:	481d      	ldr	r0, [pc, #116]	; (10006874 <xTaskRemoveFromEventList+0xc4>)
10006800:	008c      	lsls	r4, r1, #2
10006802:	4684      	mov	ip, r0
10006804:	1864      	adds	r4, r4, r1
10006806:	00a4      	lsls	r4, r4, #2
10006808:	1906      	adds	r6, r0, r4
1000680a:	6a35      	ldr	r5, [r6, #32]
1000680c:	68a8      	ldr	r0, [r5, #8]
1000680e:	609d      	str	r5, [r3, #8]
10006810:	60d8      	str	r0, [r3, #12]
10006812:	68a8      	ldr	r0, [r5, #8]
10006814:	6047      	str	r7, [r0, #4]
10006816:	4660      	mov	r0, ip
10006818:	301c      	adds	r0, #28
1000681a:	1900      	adds	r0, r0, r4
1000681c:	60af      	str	r7, [r5, #8]
1000681e:	6158      	str	r0, [r3, #20]
10006820:	69f3      	ldr	r3, [r6, #28]
10006822:	3301      	adds	r3, #1
10006824:	61f3      	str	r3, [r6, #28]
10006826:	6853      	ldr	r3, [r2, #4]
10006828:	2000      	movs	r0, #0
1000682a:	6adb      	ldr	r3, [r3, #44]	; 0x2c
1000682c:	428b      	cmp	r3, r1
1000682e:	d202      	bcs.n	10006836 <xTaskRemoveFromEventList+0x86>
10006830:	2301      	movs	r3, #1
10006832:	3001      	adds	r0, #1
10006834:	6313      	str	r3, [r2, #48]	; 0x30
10006836:	bdf0      	pop	{r4, r5, r6, r7, pc}
10006838:	6e11      	ldr	r1, [r2, #96]	; 0x60
1000683a:	688c      	ldr	r4, [r1, #8]
1000683c:	61d9      	str	r1, [r3, #28]
1000683e:	621c      	str	r4, [r3, #32]
10006840:	688c      	ldr	r4, [r1, #8]
10006842:	6060      	str	r0, [r4, #4]
10006844:	6088      	str	r0, [r1, #8]
10006846:	0011      	movs	r1, r2
10006848:	315c      	adds	r1, #92	; 0x5c
1000684a:	6299      	str	r1, [r3, #40]	; 0x28
1000684c:	6dd1      	ldr	r1, [r2, #92]	; 0x5c
1000684e:	3101      	adds	r1, #1
10006850:	65d1      	str	r1, [r2, #92]	; 0x5c
10006852:	6ad9      	ldr	r1, [r3, #44]	; 0x2c
10006854:	e7e7      	b.n	10006826 <xTaskRemoveFromEventList+0x76>
10006856:	62d1      	str	r1, [r2, #44]	; 0x2c
10006858:	e7d1      	b.n	100067fe <xTaskRemoveFromEventList+0x4e>
1000685a:	6051      	str	r1, [r2, #4]
1000685c:	e7b5      	b.n	100067ca <xTaskRemoveFromEventList+0x1a>
1000685e:	6808      	ldr	r0, [r1, #0]
10006860:	604c      	str	r4, [r1, #4]
10006862:	3801      	subs	r0, #1
10006864:	6008      	str	r0, [r1, #0]
10006866:	6ad0      	ldr	r0, [r2, #44]	; 0x2c
10006868:	6ad9      	ldr	r1, [r3, #44]	; 0x2c
1000686a:	4281      	cmp	r1, r0
1000686c:	d9c7      	bls.n	100067fe <xTaskRemoveFromEventList+0x4e>
1000686e:	e7f2      	b.n	10006856 <xTaskRemoveFromEventList+0xa6>
10006870:	20000edc 	.word	0x20000edc
10006874:	20000e5c 	.word	0x20000e5c

10006878 <vTaskRemoveFromUnorderedEventList>:
10006878:	2380      	movs	r3, #128	; 0x80
1000687a:	061b      	lsls	r3, r3, #24
1000687c:	b5f0      	push	{r4, r5, r6, r7, lr}
1000687e:	430b      	orrs	r3, r1
10006880:	6884      	ldr	r4, [r0, #8]
10006882:	6841      	ldr	r1, [r0, #4]
10006884:	6902      	ldr	r2, [r0, #16]
10006886:	6003      	str	r3, [r0, #0]
10006888:	68c3      	ldr	r3, [r0, #12]
1000688a:	608c      	str	r4, [r1, #8]
1000688c:	6884      	ldr	r4, [r0, #8]
1000688e:	6061      	str	r1, [r4, #4]
10006890:	6851      	ldr	r1, [r2, #4]
10006892:	4281      	cmp	r1, r0
10006894:	d032      	beq.n	100068fc <vTaskRemoveFromUnorderedEventList+0x84>
10006896:	2100      	movs	r1, #0
10006898:	6101      	str	r1, [r0, #16]
1000689a:	6811      	ldr	r1, [r2, #0]
1000689c:	68d8      	ldr	r0, [r3, #12]
1000689e:	3901      	subs	r1, #1
100068a0:	6011      	str	r1, [r2, #0]
100068a2:	6899      	ldr	r1, [r3, #8]
100068a4:	695a      	ldr	r2, [r3, #20]
100068a6:	6088      	str	r0, [r1, #8]
100068a8:	68d8      	ldr	r0, [r3, #12]
100068aa:	1d1f      	adds	r7, r3, #4
100068ac:	6041      	str	r1, [r0, #4]
100068ae:	6851      	ldr	r1, [r2, #4]
100068b0:	42b9      	cmp	r1, r7
100068b2:	d025      	beq.n	10006900 <vTaskRemoveFromUnorderedEventList+0x88>
100068b4:	6811      	ldr	r1, [r2, #0]
100068b6:	4d13      	ldr	r5, [pc, #76]	; (10006904 <vTaskRemoveFromUnorderedEventList+0x8c>)
100068b8:	3901      	subs	r1, #1
100068ba:	6011      	str	r1, [r2, #0]
100068bc:	6ad8      	ldr	r0, [r3, #44]	; 0x2c
100068be:	6aea      	ldr	r2, [r5, #44]	; 0x2c
100068c0:	4290      	cmp	r0, r2
100068c2:	d900      	bls.n	100068c6 <vTaskRemoveFromUnorderedEventList+0x4e>
100068c4:	62e8      	str	r0, [r5, #44]	; 0x2c
100068c6:	4a10      	ldr	r2, [pc, #64]	; (10006908 <vTaskRemoveFromUnorderedEventList+0x90>)
100068c8:	0081      	lsls	r1, r0, #2
100068ca:	4694      	mov	ip, r2
100068cc:	1809      	adds	r1, r1, r0
100068ce:	0089      	lsls	r1, r1, #2
100068d0:	1856      	adds	r6, r2, r1
100068d2:	6a34      	ldr	r4, [r6, #32]
100068d4:	68a2      	ldr	r2, [r4, #8]
100068d6:	609c      	str	r4, [r3, #8]
100068d8:	60da      	str	r2, [r3, #12]
100068da:	68a2      	ldr	r2, [r4, #8]
100068dc:	6057      	str	r7, [r2, #4]
100068de:	4662      	mov	r2, ip
100068e0:	321c      	adds	r2, #28
100068e2:	1852      	adds	r2, r2, r1
100068e4:	60a7      	str	r7, [r4, #8]
100068e6:	615a      	str	r2, [r3, #20]
100068e8:	69f3      	ldr	r3, [r6, #28]
100068ea:	3301      	adds	r3, #1
100068ec:	61f3      	str	r3, [r6, #28]
100068ee:	686b      	ldr	r3, [r5, #4]
100068f0:	6adb      	ldr	r3, [r3, #44]	; 0x2c
100068f2:	4298      	cmp	r0, r3
100068f4:	d901      	bls.n	100068fa <vTaskRemoveFromUnorderedEventList+0x82>
100068f6:	2301      	movs	r3, #1
100068f8:	632b      	str	r3, [r5, #48]	; 0x30
100068fa:	bdf0      	pop	{r4, r5, r6, r7, pc}
100068fc:	6054      	str	r4, [r2, #4]
100068fe:	e7ca      	b.n	10006896 <vTaskRemoveFromUnorderedEventList+0x1e>
10006900:	6050      	str	r0, [r2, #4]
10006902:	e7d7      	b.n	100068b4 <vTaskRemoveFromUnorderedEventList+0x3c>
10006904:	20000edc 	.word	0x20000edc
10006908:	20000e5c 	.word	0x20000e5c

1000690c <vTaskSetTimeOutState>:
1000690c:	b510      	push	{r4, lr}
1000690e:	0004      	movs	r4, r0
10006910:	f000 fda0 	bl	10007454 <vPortEnterCritical>
10006914:	4b03      	ldr	r3, [pc, #12]	; (10006924 <vTaskSetTimeOutState+0x18>)
10006916:	6a9a      	ldr	r2, [r3, #40]	; 0x28
10006918:	681b      	ldr	r3, [r3, #0]
1000691a:	6022      	str	r2, [r4, #0]
1000691c:	6063      	str	r3, [r4, #4]
1000691e:	f000 fda5 	bl	1000746c <vPortExitCritical>
10006922:	bd10      	pop	{r4, pc}
10006924:	20000edc 	.word	0x20000edc

10006928 <vTaskInternalSetTimeOutState>:
10006928:	4b02      	ldr	r3, [pc, #8]	; (10006934 <vTaskInternalSetTimeOutState+0xc>)
1000692a:	6a9a      	ldr	r2, [r3, #40]	; 0x28
1000692c:	681b      	ldr	r3, [r3, #0]
1000692e:	6002      	str	r2, [r0, #0]
10006930:	6043      	str	r3, [r0, #4]
10006932:	4770      	bx	lr
10006934:	20000edc 	.word	0x20000edc

10006938 <xTaskCheckForTimeOut>:
10006938:	b5f8      	push	{r3, r4, r5, r6, r7, lr}
1000693a:	000d      	movs	r5, r1
1000693c:	0004      	movs	r4, r0
1000693e:	f000 fd89 	bl	10007454 <vPortEnterCritical>
10006942:	4a10      	ldr	r2, [pc, #64]	; (10006984 <xTaskCheckForTimeOut+0x4c>)
10006944:	682b      	ldr	r3, [r5, #0]
10006946:	6811      	ldr	r1, [r2, #0]
10006948:	1c58      	adds	r0, r3, #1
1000694a:	d019      	beq.n	10006980 <xTaskCheckForTimeOut+0x48>
1000694c:	6a96      	ldr	r6, [r2, #40]	; 0x28
1000694e:	6827      	ldr	r7, [r4, #0]
10006950:	6860      	ldr	r0, [r4, #4]
10006952:	42b7      	cmp	r7, r6
10006954:	d008      	beq.n	10006968 <xTaskCheckForTimeOut+0x30>
10006956:	4288      	cmp	r0, r1
10006958:	d806      	bhi.n	10006968 <xTaskCheckForTimeOut+0x30>
1000695a:	2300      	movs	r3, #0
1000695c:	2401      	movs	r4, #1
1000695e:	602b      	str	r3, [r5, #0]
10006960:	f000 fd84 	bl	1000746c <vPortExitCritical>
10006964:	0020      	movs	r0, r4
10006966:	bdf8      	pop	{r3, r4, r5, r6, r7, pc}
10006968:	1a0e      	subs	r6, r1, r0
1000696a:	42b3      	cmp	r3, r6
1000696c:	d9f5      	bls.n	1000695a <xTaskCheckForTimeOut+0x22>
1000696e:	1a5b      	subs	r3, r3, r1
10006970:	181b      	adds	r3, r3, r0
10006972:	602b      	str	r3, [r5, #0]
10006974:	6a93      	ldr	r3, [r2, #40]	; 0x28
10006976:	6023      	str	r3, [r4, #0]
10006978:	6813      	ldr	r3, [r2, #0]
1000697a:	6063      	str	r3, [r4, #4]
1000697c:	2400      	movs	r4, #0
1000697e:	e7ef      	b.n	10006960 <xTaskCheckForTimeOut+0x28>
10006980:	2400      	movs	r4, #0
10006982:	e7ed      	b.n	10006960 <xTaskCheckForTimeOut+0x28>
10006984:	20000edc 	.word	0x20000edc

10006988 <vTaskMissedYield>:
10006988:	2201      	movs	r2, #1
1000698a:	4b01      	ldr	r3, [pc, #4]	; (10006990 <vTaskMissedYield+0x8>)
1000698c:	631a      	str	r2, [r3, #48]	; 0x30
1000698e:	4770      	bx	lr
10006990:	20000edc 	.word	0x20000edc

10006994 <vTaskSetThreadLocalStoragePointer>:
10006994:	2904      	cmp	r1, #4
10006996:	dc05      	bgt.n	100069a4 <vTaskSetThreadLocalStoragePointer+0x10>
10006998:	2800      	cmp	r0, #0
1000699a:	d004      	beq.n	100069a6 <vTaskSetThreadLocalStoragePointer+0x12>
1000699c:	3110      	adds	r1, #16
1000699e:	0089      	lsls	r1, r1, #2
100069a0:	1841      	adds	r1, r0, r1
100069a2:	604a      	str	r2, [r1, #4]
100069a4:	4770      	bx	lr
100069a6:	4b01      	ldr	r3, [pc, #4]	; (100069ac <vTaskSetThreadLocalStoragePointer+0x18>)
100069a8:	6858      	ldr	r0, [r3, #4]
100069aa:	e7f7      	b.n	1000699c <vTaskSetThreadLocalStoragePointer+0x8>
100069ac:	20000edc 	.word	0x20000edc

100069b0 <pvTaskGetThreadLocalStoragePointer>:
100069b0:	2904      	cmp	r1, #4
100069b2:	dc09      	bgt.n	100069c8 <pvTaskGetThreadLocalStoragePointer+0x18>
100069b4:	2800      	cmp	r0, #0
100069b6:	d004      	beq.n	100069c2 <pvTaskGetThreadLocalStoragePointer+0x12>
100069b8:	3110      	adds	r1, #16
100069ba:	0089      	lsls	r1, r1, #2
100069bc:	1841      	adds	r1, r0, r1
100069be:	6848      	ldr	r0, [r1, #4]
100069c0:	4770      	bx	lr
100069c2:	4b02      	ldr	r3, [pc, #8]	; (100069cc <pvTaskGetThreadLocalStoragePointer+0x1c>)
100069c4:	6858      	ldr	r0, [r3, #4]
100069c6:	e7f7      	b.n	100069b8 <pvTaskGetThreadLocalStoragePointer+0x8>
100069c8:	2000      	movs	r0, #0
100069ca:	e7f9      	b.n	100069c0 <pvTaskGetThreadLocalStoragePointer+0x10>
100069cc:	20000edc 	.word	0x20000edc

100069d0 <xTaskGetCurrentTaskHandle>:
100069d0:	4b01      	ldr	r3, [pc, #4]	; (100069d8 <xTaskGetCurrentTaskHandle+0x8>)
100069d2:	6858      	ldr	r0, [r3, #4]
100069d4:	4770      	bx	lr
100069d6:	46c0      	nop			; (mov r8, r8)
100069d8:	20000edc 	.word	0x20000edc

100069dc <xTaskGetSchedulerState>:
100069dc:	4b04      	ldr	r3, [pc, #16]	; (100069f0 <xTaskGetSchedulerState+0x14>)
100069de:	2001      	movs	r0, #1
100069e0:	6f1a      	ldr	r2, [r3, #112]	; 0x70
100069e2:	2a00      	cmp	r2, #0
100069e4:	d003      	beq.n	100069ee <xTaskGetSchedulerState+0x12>
100069e6:	6f98      	ldr	r0, [r3, #120]	; 0x78
100069e8:	4243      	negs	r3, r0
100069ea:	4158      	adcs	r0, r3
100069ec:	0040      	lsls	r0, r0, #1
100069ee:	4770      	bx	lr
100069f0:	20000edc 	.word	0x20000edc

100069f4 <uxTaskResetEventItemValue>:
100069f4:	4b04      	ldr	r3, [pc, #16]	; (10006a08 <uxTaskResetEventItemValue+0x14>)
100069f6:	685a      	ldr	r2, [r3, #4]
100069f8:	6859      	ldr	r1, [r3, #4]
100069fa:	6990      	ldr	r0, [r2, #24]
100069fc:	685a      	ldr	r2, [r3, #4]
100069fe:	2305      	movs	r3, #5
10006a00:	6ac9      	ldr	r1, [r1, #44]	; 0x2c
10006a02:	1a5b      	subs	r3, r3, r1
10006a04:	6193      	str	r3, [r2, #24]
10006a06:	4770      	bx	lr
10006a08:	20000edc 	.word	0x20000edc

10006a0c <ulTaskGenericNotifyTake>:
10006a0c:	b5f0      	push	{r4, r5, r6, r7, lr}
10006a0e:	0004      	movs	r4, r0
10006a10:	46c6      	mov	lr, r8
10006a12:	0025      	movs	r5, r4
10006a14:	b500      	push	{lr}
10006a16:	0017      	movs	r7, r2
10006a18:	4688      	mov	r8, r1
10006a1a:	f000 fd1b 	bl	10007454 <vPortEnterCritical>
10006a1e:	4e19      	ldr	r6, [pc, #100]	; (10006a84 <ulTaskGenericNotifyTake+0x78>)
10006a20:	3516      	adds	r5, #22
10006a22:	6873      	ldr	r3, [r6, #4]
10006a24:	00aa      	lsls	r2, r5, #2
10006a26:	58d3      	ldr	r3, [r2, r3]
10006a28:	2b00      	cmp	r3, #0
10006a2a:	d106      	bne.n	10006a3a <ulTaskGenericNotifyTake+0x2e>
10006a2c:	2201      	movs	r2, #1
10006a2e:	6873      	ldr	r3, [r6, #4]
10006a30:	191b      	adds	r3, r3, r4
10006a32:	3364      	adds	r3, #100	; 0x64
10006a34:	701a      	strb	r2, [r3, #0]
10006a36:	2f00      	cmp	r7, #0
10006a38:	d11d      	bne.n	10006a76 <ulTaskGenericNotifyTake+0x6a>
10006a3a:	f000 fd17 	bl	1000746c <vPortExitCritical>
10006a3e:	f000 fd09 	bl	10007454 <vPortEnterCritical>
10006a42:	6873      	ldr	r3, [r6, #4]
10006a44:	00ad      	lsls	r5, r5, #2
10006a46:	58ef      	ldr	r7, [r5, r3]
10006a48:	2f00      	cmp	r7, #0
10006a4a:	d005      	beq.n	10006a58 <ulTaskGenericNotifyTake+0x4c>
10006a4c:	4643      	mov	r3, r8
10006a4e:	2b00      	cmp	r3, #0
10006a50:	d00d      	beq.n	10006a6e <ulTaskGenericNotifyTake+0x62>
10006a52:	2200      	movs	r2, #0
10006a54:	6873      	ldr	r3, [r6, #4]
10006a56:	50ea      	str	r2, [r5, r3]
10006a58:	2300      	movs	r3, #0
10006a5a:	6870      	ldr	r0, [r6, #4]
10006a5c:	1900      	adds	r0, r0, r4
10006a5e:	3064      	adds	r0, #100	; 0x64
10006a60:	7003      	strb	r3, [r0, #0]
10006a62:	f000 fd03 	bl	1000746c <vPortExitCritical>
10006a66:	0038      	movs	r0, r7
10006a68:	bc04      	pop	{r2}
10006a6a:	4690      	mov	r8, r2
10006a6c:	bdf0      	pop	{r4, r5, r6, r7, pc}
10006a6e:	6873      	ldr	r3, [r6, #4]
10006a70:	1e7a      	subs	r2, r7, #1
10006a72:	50ea      	str	r2, [r5, r3]
10006a74:	e7f0      	b.n	10006a58 <ulTaskGenericNotifyTake+0x4c>
10006a76:	2101      	movs	r1, #1
10006a78:	0038      	movs	r0, r7
10006a7a:	f7fe ff6f 	bl	1000595c <prvAddCurrentTaskToDelayedList>
10006a7e:	f000 fcdd 	bl	1000743c <vPortYield>
10006a82:	e7da      	b.n	10006a3a <ulTaskGenericNotifyTake+0x2e>
10006a84:	20000edc 	.word	0x20000edc

10006a88 <xTaskGenericNotifyWait>:
10006a88:	b5f0      	push	{r4, r5, r6, r7, lr}
10006a8a:	46c6      	mov	lr, r8
10006a8c:	0004      	movs	r4, r0
10006a8e:	b500      	push	{lr}
10006a90:	001f      	movs	r7, r3
10006a92:	4688      	mov	r8, r1
10006a94:	0016      	movs	r6, r2
10006a96:	f000 fcdd 	bl	10007454 <vPortEnterCritical>
10006a9a:	4d21      	ldr	r5, [pc, #132]	; (10006b20 <xTaskGenericNotifyWait+0x98>)
10006a9c:	6868      	ldr	r0, [r5, #4]
10006a9e:	1900      	adds	r0, r0, r4
10006aa0:	3064      	adds	r0, #100	; 0x64
10006aa2:	7803      	ldrb	r3, [r0, #0]
10006aa4:	2b02      	cmp	r3, #2
10006aa6:	d00e      	beq.n	10006ac6 <xTaskGenericNotifyWait+0x3e>
10006aa8:	4641      	mov	r1, r8
10006aaa:	686b      	ldr	r3, [r5, #4]
10006aac:	00a2      	lsls	r2, r4, #2
10006aae:	189b      	adds	r3, r3, r2
10006ab0:	6d9a      	ldr	r2, [r3, #88]	; 0x58
10006ab2:	438a      	bics	r2, r1
10006ab4:	659a      	str	r2, [r3, #88]	; 0x58
10006ab6:	2201      	movs	r2, #1
10006ab8:	686b      	ldr	r3, [r5, #4]
10006aba:	191b      	adds	r3, r3, r4
10006abc:	3364      	adds	r3, #100	; 0x64
10006abe:	701a      	strb	r2, [r3, #0]
10006ac0:	9b06      	ldr	r3, [sp, #24]
10006ac2:	2b00      	cmp	r3, #0
10006ac4:	d124      	bne.n	10006b10 <xTaskGenericNotifyWait+0x88>
10006ac6:	f000 fcd1 	bl	1000746c <vPortExitCritical>
10006aca:	f000 fcc3 	bl	10007454 <vPortEnterCritical>
10006ace:	2f00      	cmp	r7, #0
10006ad0:	d005      	beq.n	10006ade <xTaskGenericNotifyWait+0x56>
10006ad2:	0023      	movs	r3, r4
10006ad4:	686a      	ldr	r2, [r5, #4]
10006ad6:	3316      	adds	r3, #22
10006ad8:	009b      	lsls	r3, r3, #2
10006ada:	589b      	ldr	r3, [r3, r2]
10006adc:	603b      	str	r3, [r7, #0]
10006ade:	686b      	ldr	r3, [r5, #4]
10006ae0:	2700      	movs	r7, #0
10006ae2:	191b      	adds	r3, r3, r4
10006ae4:	3364      	adds	r3, #100	; 0x64
10006ae6:	781b      	ldrb	r3, [r3, #0]
10006ae8:	2b02      	cmp	r3, #2
10006aea:	d106      	bne.n	10006afa <xTaskGenericNotifyWait+0x72>
10006aec:	686b      	ldr	r3, [r5, #4]
10006aee:	00a2      	lsls	r2, r4, #2
10006af0:	189b      	adds	r3, r3, r2
10006af2:	6d9a      	ldr	r2, [r3, #88]	; 0x58
10006af4:	3701      	adds	r7, #1
10006af6:	43b2      	bics	r2, r6
10006af8:	659a      	str	r2, [r3, #88]	; 0x58
10006afa:	2300      	movs	r3, #0
10006afc:	6868      	ldr	r0, [r5, #4]
10006afe:	1904      	adds	r4, r0, r4
10006b00:	3464      	adds	r4, #100	; 0x64
10006b02:	7023      	strb	r3, [r4, #0]
10006b04:	f000 fcb2 	bl	1000746c <vPortExitCritical>
10006b08:	0038      	movs	r0, r7
10006b0a:	bc04      	pop	{r2}
10006b0c:	4690      	mov	r8, r2
10006b0e:	bdf0      	pop	{r4, r5, r6, r7, pc}
10006b10:	2101      	movs	r1, #1
10006b12:	0018      	movs	r0, r3
10006b14:	f7fe ff22 	bl	1000595c <prvAddCurrentTaskToDelayedList>
10006b18:	f000 fc90 	bl	1000743c <vPortYield>
10006b1c:	e7d3      	b.n	10006ac6 <xTaskGenericNotifyWait+0x3e>
10006b1e:	46c0      	nop			; (mov r8, r8)
10006b20:	20000edc 	.word	0x20000edc

10006b24 <xTaskGenericNotify>:
10006b24:	b5f0      	push	{r4, r5, r6, r7, lr}
10006b26:	46c6      	mov	lr, r8
10006b28:	b500      	push	{lr}
10006b2a:	9d06      	ldr	r5, [sp, #24]
10006b2c:	0006      	movs	r6, r0
10006b2e:	000c      	movs	r4, r1
10006b30:	4690      	mov	r8, r2
10006b32:	001f      	movs	r7, r3
10006b34:	f000 fc8e 	bl	10007454 <vPortEnterCritical>
10006b38:	2d00      	cmp	r5, #0
10006b3a:	d004      	beq.n	10006b46 <xTaskGenericNotify+0x22>
10006b3c:	0023      	movs	r3, r4
10006b3e:	3316      	adds	r3, #22
10006b40:	009b      	lsls	r3, r3, #2
10006b42:	599b      	ldr	r3, [r3, r6]
10006b44:	602b      	str	r3, [r5, #0]
10006b46:	2302      	movs	r3, #2
10006b48:	1931      	adds	r1, r6, r4
10006b4a:	3164      	adds	r1, #100	; 0x64
10006b4c:	780d      	ldrb	r5, [r1, #0]
10006b4e:	700b      	strb	r3, [r1, #0]
10006b50:	b2ed      	uxtb	r5, r5
10006b52:	2f03      	cmp	r7, #3
10006b54:	d016      	beq.n	10006b84 <xTaskGenericNotify+0x60>
10006b56:	d811      	bhi.n	10006b7c <xTaskGenericNotify+0x58>
10006b58:	2f01      	cmp	r7, #1
10006b5a:	d049      	beq.n	10006bf0 <xTaskGenericNotify+0xcc>
10006b5c:	2f02      	cmp	r7, #2
10006b5e:	d104      	bne.n	10006b6a <xTaskGenericNotify+0x46>
10006b60:	00a4      	lsls	r4, r4, #2
10006b62:	1934      	adds	r4, r6, r4
10006b64:	6da3      	ldr	r3, [r4, #88]	; 0x58
10006b66:	3301      	adds	r3, #1
10006b68:	65a3      	str	r3, [r4, #88]	; 0x58
10006b6a:	2d01      	cmp	r5, #1
10006b6c:	d010      	beq.n	10006b90 <xTaskGenericNotify+0x6c>
10006b6e:	2401      	movs	r4, #1
10006b70:	f000 fc7c 	bl	1000746c <vPortExitCritical>
10006b74:	0020      	movs	r0, r4
10006b76:	bc04      	pop	{r2}
10006b78:	4690      	mov	r8, r2
10006b7a:	bdf0      	pop	{r4, r5, r6, r7, pc}
10006b7c:	2f04      	cmp	r7, #4
10006b7e:	d1f4      	bne.n	10006b6a <xTaskGenericNotify+0x46>
10006b80:	2d02      	cmp	r5, #2
10006b82:	d033      	beq.n	10006bec <xTaskGenericNotify+0xc8>
10006b84:	4643      	mov	r3, r8
10006b86:	3416      	adds	r4, #22
10006b88:	00a4      	lsls	r4, r4, #2
10006b8a:	51a3      	str	r3, [r4, r6]
10006b8c:	2d01      	cmp	r5, #1
10006b8e:	d1ee      	bne.n	10006b6e <xTaskGenericNotify+0x4a>
10006b90:	68b2      	ldr	r2, [r6, #8]
10006b92:	68f1      	ldr	r1, [r6, #12]
10006b94:	6973      	ldr	r3, [r6, #20]
10006b96:	6091      	str	r1, [r2, #8]
10006b98:	68f1      	ldr	r1, [r6, #12]
10006b9a:	1d37      	adds	r7, r6, #4
10006b9c:	604a      	str	r2, [r1, #4]
10006b9e:	685a      	ldr	r2, [r3, #4]
10006ba0:	42ba      	cmp	r2, r7
10006ba2:	d02e      	beq.n	10006c02 <xTaskGenericNotify+0xde>
10006ba4:	681a      	ldr	r2, [r3, #0]
10006ba6:	4d18      	ldr	r5, [pc, #96]	; (10006c08 <xTaskGenericNotify+0xe4>)
10006ba8:	3a01      	subs	r2, #1
10006baa:	601a      	str	r2, [r3, #0]
10006bac:	6af1      	ldr	r1, [r6, #44]	; 0x2c
10006bae:	6aeb      	ldr	r3, [r5, #44]	; 0x2c
10006bb0:	4299      	cmp	r1, r3
10006bb2:	d900      	bls.n	10006bb6 <xTaskGenericNotify+0x92>
10006bb4:	62e9      	str	r1, [r5, #44]	; 0x2c
10006bb6:	4b15      	ldr	r3, [pc, #84]	; (10006c0c <xTaskGenericNotify+0xe8>)
10006bb8:	008a      	lsls	r2, r1, #2
10006bba:	469c      	mov	ip, r3
10006bbc:	1852      	adds	r2, r2, r1
10006bbe:	0092      	lsls	r2, r2, #2
10006bc0:	189c      	adds	r4, r3, r2
10006bc2:	6a20      	ldr	r0, [r4, #32]
10006bc4:	6883      	ldr	r3, [r0, #8]
10006bc6:	60b0      	str	r0, [r6, #8]
10006bc8:	60f3      	str	r3, [r6, #12]
10006bca:	6883      	ldr	r3, [r0, #8]
10006bcc:	605f      	str	r7, [r3, #4]
10006bce:	4663      	mov	r3, ip
10006bd0:	331c      	adds	r3, #28
10006bd2:	189b      	adds	r3, r3, r2
10006bd4:	6087      	str	r7, [r0, #8]
10006bd6:	6173      	str	r3, [r6, #20]
10006bd8:	69e3      	ldr	r3, [r4, #28]
10006bda:	3301      	adds	r3, #1
10006bdc:	61e3      	str	r3, [r4, #28]
10006bde:	686b      	ldr	r3, [r5, #4]
10006be0:	6adb      	ldr	r3, [r3, #44]	; 0x2c
10006be2:	4299      	cmp	r1, r3
10006be4:	d9c3      	bls.n	10006b6e <xTaskGenericNotify+0x4a>
10006be6:	f000 fc29 	bl	1000743c <vPortYield>
10006bea:	e7c0      	b.n	10006b6e <xTaskGenericNotify+0x4a>
10006bec:	2400      	movs	r4, #0
10006bee:	e7bf      	b.n	10006b70 <xTaskGenericNotify+0x4c>
10006bf0:	4647      	mov	r7, r8
10006bf2:	00a4      	lsls	r4, r4, #2
10006bf4:	1934      	adds	r4, r6, r4
10006bf6:	6da2      	ldr	r2, [r4, #88]	; 0x58
10006bf8:	4317      	orrs	r7, r2
10006bfa:	65a7      	str	r7, [r4, #88]	; 0x58
10006bfc:	2d01      	cmp	r5, #1
10006bfe:	d1b6      	bne.n	10006b6e <xTaskGenericNotify+0x4a>
10006c00:	e7c6      	b.n	10006b90 <xTaskGenericNotify+0x6c>
10006c02:	6059      	str	r1, [r3, #4]
10006c04:	e7ce      	b.n	10006ba4 <xTaskGenericNotify+0x80>
10006c06:	46c0      	nop			; (mov r8, r8)
10006c08:	20000edc 	.word	0x20000edc
10006c0c:	20000e5c 	.word	0x20000e5c

10006c10 <xTaskGenericNotifyFromISR>:
10006c10:	b5f8      	push	{r3, r4, r5, r6, r7, lr}
10006c12:	4647      	mov	r7, r8
10006c14:	46ce      	mov	lr, r9
10006c16:	b580      	push	{r7, lr}
10006c18:	9f08      	ldr	r7, [sp, #32]
10006c1a:	0006      	movs	r6, r0
10006c1c:	000c      	movs	r4, r1
10006c1e:	4690      	mov	r8, r2
10006c20:	001d      	movs	r5, r3
10006c22:	f000 fc2d 	bl	10007480 <ulSetInterruptMaskFromISR>
10006c26:	2f00      	cmp	r7, #0
10006c28:	d004      	beq.n	10006c34 <xTaskGenericNotifyFromISR+0x24>
10006c2a:	0023      	movs	r3, r4
10006c2c:	3316      	adds	r3, #22
10006c2e:	009b      	lsls	r3, r3, #2
10006c30:	599b      	ldr	r3, [r3, r6]
10006c32:	603b      	str	r3, [r7, #0]
10006c34:	2202      	movs	r2, #2
10006c36:	1933      	adds	r3, r6, r4
10006c38:	3364      	adds	r3, #100	; 0x64
10006c3a:	781f      	ldrb	r7, [r3, #0]
10006c3c:	701a      	strb	r2, [r3, #0]
10006c3e:	b2ff      	uxtb	r7, r7
10006c40:	2d03      	cmp	r5, #3
10006c42:	d017      	beq.n	10006c74 <xTaskGenericNotifyFromISR+0x64>
10006c44:	d812      	bhi.n	10006c6c <xTaskGenericNotifyFromISR+0x5c>
10006c46:	2d01      	cmp	r5, #1
10006c48:	d03b      	beq.n	10006cc2 <xTaskGenericNotifyFromISR+0xb2>
10006c4a:	2d02      	cmp	r5, #2
10006c4c:	d104      	bne.n	10006c58 <xTaskGenericNotifyFromISR+0x48>
10006c4e:	00a4      	lsls	r4, r4, #2
10006c50:	1934      	adds	r4, r6, r4
10006c52:	6da3      	ldr	r3, [r4, #88]	; 0x58
10006c54:	3301      	adds	r3, #1
10006c56:	65a3      	str	r3, [r4, #88]	; 0x58
10006c58:	2f01      	cmp	r7, #1
10006c5a:	d011      	beq.n	10006c80 <xTaskGenericNotifyFromISR+0x70>
10006c5c:	2401      	movs	r4, #1
10006c5e:	f000 fc13 	bl	10007488 <vClearInterruptMaskFromISR>
10006c62:	0020      	movs	r0, r4
10006c64:	bc0c      	pop	{r2, r3}
10006c66:	4690      	mov	r8, r2
10006c68:	4699      	mov	r9, r3
10006c6a:	bdf8      	pop	{r3, r4, r5, r6, r7, pc}
10006c6c:	2d04      	cmp	r5, #4
10006c6e:	d1f3      	bne.n	10006c58 <xTaskGenericNotifyFromISR+0x48>
10006c70:	2f02      	cmp	r7, #2
10006c72:	d05a      	beq.n	10006d2a <xTaskGenericNotifyFromISR+0x11a>
10006c74:	4643      	mov	r3, r8
10006c76:	3416      	adds	r4, #22
10006c78:	00a4      	lsls	r4, r4, #2
10006c7a:	51a3      	str	r3, [r4, r6]
10006c7c:	2f01      	cmp	r7, #1
10006c7e:	d1ed      	bne.n	10006c5c <xTaskGenericNotifyFromISR+0x4c>
10006c80:	4b2c      	ldr	r3, [pc, #176]	; (10006d34 <xTaskGenericNotifyFromISR+0x124>)
10006c82:	6f9a      	ldr	r2, [r3, #120]	; 0x78
10006c84:	2a00      	cmp	r2, #0
10006c86:	d025      	beq.n	10006cd4 <xTaskGenericNotifyFromISR+0xc4>
10006c88:	6e1a      	ldr	r2, [r3, #96]	; 0x60
10006c8a:	6891      	ldr	r1, [r2, #8]
10006c8c:	61f2      	str	r2, [r6, #28]
10006c8e:	6231      	str	r1, [r6, #32]
10006c90:	0031      	movs	r1, r6
10006c92:	6894      	ldr	r4, [r2, #8]
10006c94:	3118      	adds	r1, #24
10006c96:	6061      	str	r1, [r4, #4]
10006c98:	6091      	str	r1, [r2, #8]
10006c9a:	001a      	movs	r2, r3
10006c9c:	325c      	adds	r2, #92	; 0x5c
10006c9e:	62b2      	str	r2, [r6, #40]	; 0x28
10006ca0:	6dda      	ldr	r2, [r3, #92]	; 0x5c
10006ca2:	3201      	adds	r2, #1
10006ca4:	65da      	str	r2, [r3, #92]	; 0x5c
10006ca6:	6af2      	ldr	r2, [r6, #44]	; 0x2c
10006ca8:	6859      	ldr	r1, [r3, #4]
10006caa:	6ac9      	ldr	r1, [r1, #44]	; 0x2c
10006cac:	4291      	cmp	r1, r2
10006cae:	d2d5      	bcs.n	10006c5c <xTaskGenericNotifyFromISR+0x4c>
10006cb0:	9a09      	ldr	r2, [sp, #36]	; 0x24
10006cb2:	2a00      	cmp	r2, #0
10006cb4:	d002      	beq.n	10006cbc <xTaskGenericNotifyFromISR+0xac>
10006cb6:	0011      	movs	r1, r2
10006cb8:	2201      	movs	r2, #1
10006cba:	600a      	str	r2, [r1, #0]
10006cbc:	2201      	movs	r2, #1
10006cbe:	631a      	str	r2, [r3, #48]	; 0x30
10006cc0:	e7cc      	b.n	10006c5c <xTaskGenericNotifyFromISR+0x4c>
10006cc2:	4643      	mov	r3, r8
10006cc4:	00a4      	lsls	r4, r4, #2
10006cc6:	1934      	adds	r4, r6, r4
10006cc8:	6da2      	ldr	r2, [r4, #88]	; 0x58
10006cca:	431a      	orrs	r2, r3
10006ccc:	65a2      	str	r2, [r4, #88]	; 0x58
10006cce:	2f01      	cmp	r7, #1
10006cd0:	d1c4      	bne.n	10006c5c <xTaskGenericNotifyFromISR+0x4c>
10006cd2:	e7d5      	b.n	10006c80 <xTaskGenericNotifyFromISR+0x70>
10006cd4:	68b1      	ldr	r1, [r6, #8]
10006cd6:	68f4      	ldr	r4, [r6, #12]
10006cd8:	6972      	ldr	r2, [r6, #20]
10006cda:	608c      	str	r4, [r1, #8]
10006cdc:	68f4      	ldr	r4, [r6, #12]
10006cde:	6061      	str	r1, [r4, #4]
10006ce0:	1d31      	adds	r1, r6, #4
10006ce2:	4688      	mov	r8, r1
10006ce4:	6851      	ldr	r1, [r2, #4]
10006ce6:	4541      	cmp	r1, r8
10006ce8:	d021      	beq.n	10006d2e <xTaskGenericNotifyFromISR+0x11e>
10006cea:	6811      	ldr	r1, [r2, #0]
10006cec:	3901      	subs	r1, #1
10006cee:	6011      	str	r1, [r2, #0]
10006cf0:	6ad9      	ldr	r1, [r3, #44]	; 0x2c
10006cf2:	6af2      	ldr	r2, [r6, #44]	; 0x2c
10006cf4:	428a      	cmp	r2, r1
10006cf6:	d900      	bls.n	10006cfa <xTaskGenericNotifyFromISR+0xea>
10006cf8:	62da      	str	r2, [r3, #44]	; 0x2c
10006cfa:	490f      	ldr	r1, [pc, #60]	; (10006d38 <xTaskGenericNotifyFromISR+0x128>)
10006cfc:	0094      	lsls	r4, r2, #2
10006cfe:	468c      	mov	ip, r1
10006d00:	18a4      	adds	r4, r4, r2
10006d02:	00a1      	lsls	r1, r4, #2
10006d04:	4689      	mov	r9, r1
10006d06:	4667      	mov	r7, ip
10006d08:	4644      	mov	r4, r8
10006d0a:	444f      	add	r7, r9
10006d0c:	6a3d      	ldr	r5, [r7, #32]
10006d0e:	68a9      	ldr	r1, [r5, #8]
10006d10:	60b5      	str	r5, [r6, #8]
10006d12:	60f1      	str	r1, [r6, #12]
10006d14:	68a9      	ldr	r1, [r5, #8]
10006d16:	604c      	str	r4, [r1, #4]
10006d18:	4661      	mov	r1, ip
10006d1a:	311c      	adds	r1, #28
10006d1c:	4449      	add	r1, r9
10006d1e:	60ac      	str	r4, [r5, #8]
10006d20:	6171      	str	r1, [r6, #20]
10006d22:	69f9      	ldr	r1, [r7, #28]
10006d24:	3101      	adds	r1, #1
10006d26:	61f9      	str	r1, [r7, #28]
10006d28:	e7be      	b.n	10006ca8 <xTaskGenericNotifyFromISR+0x98>
10006d2a:	2400      	movs	r4, #0
10006d2c:	e797      	b.n	10006c5e <xTaskGenericNotifyFromISR+0x4e>
10006d2e:	6054      	str	r4, [r2, #4]
10006d30:	e7db      	b.n	10006cea <xTaskGenericNotifyFromISR+0xda>
10006d32:	46c0      	nop			; (mov r8, r8)
10006d34:	20000edc 	.word	0x20000edc
10006d38:	20000e5c 	.word	0x20000e5c

10006d3c <vTaskGenericNotifyGiveFromISR>:
10006d3c:	b5f0      	push	{r4, r5, r6, r7, lr}
10006d3e:	46d6      	mov	lr, sl
10006d40:	4646      	mov	r6, r8
10006d42:	464f      	mov	r7, r9
10006d44:	000c      	movs	r4, r1
10006d46:	0005      	movs	r5, r0
10006d48:	b5c0      	push	{r6, r7, lr}
10006d4a:	0016      	movs	r6, r2
10006d4c:	f000 fb98 	bl	10007480 <ulSetInterruptMaskFromISR>
10006d50:	2102      	movs	r1, #2
10006d52:	192b      	adds	r3, r5, r4
10006d54:	3364      	adds	r3, #100	; 0x64
10006d56:	00a4      	lsls	r4, r4, #2
10006d58:	781a      	ldrb	r2, [r3, #0]
10006d5a:	192c      	adds	r4, r5, r4
10006d5c:	7019      	strb	r1, [r3, #0]
10006d5e:	6da3      	ldr	r3, [r4, #88]	; 0x58
10006d60:	3301      	adds	r3, #1
10006d62:	65a3      	str	r3, [r4, #88]	; 0x58
10006d64:	2a01      	cmp	r2, #1
10006d66:	d006      	beq.n	10006d76 <vTaskGenericNotifyGiveFromISR+0x3a>
10006d68:	f000 fb8e 	bl	10007488 <vClearInterruptMaskFromISR>
10006d6c:	bc1c      	pop	{r2, r3, r4}
10006d6e:	4690      	mov	r8, r2
10006d70:	4699      	mov	r9, r3
10006d72:	46a2      	mov	sl, r4
10006d74:	bdf0      	pop	{r4, r5, r6, r7, pc}
10006d76:	4b27      	ldr	r3, [pc, #156]	; (10006e14 <vTaskGenericNotifyGiveFromISR+0xd8>)
10006d78:	6f9a      	ldr	r2, [r3, #120]	; 0x78
10006d7a:	2a00      	cmp	r2, #0
10006d7c:	d01a      	beq.n	10006db4 <vTaskGenericNotifyGiveFromISR+0x78>
10006d7e:	6e1a      	ldr	r2, [r3, #96]	; 0x60
10006d80:	6891      	ldr	r1, [r2, #8]
10006d82:	61ea      	str	r2, [r5, #28]
10006d84:	6229      	str	r1, [r5, #32]
10006d86:	0029      	movs	r1, r5
10006d88:	6894      	ldr	r4, [r2, #8]
10006d8a:	3118      	adds	r1, #24
10006d8c:	6061      	str	r1, [r4, #4]
10006d8e:	6091      	str	r1, [r2, #8]
10006d90:	001a      	movs	r2, r3
10006d92:	325c      	adds	r2, #92	; 0x5c
10006d94:	62aa      	str	r2, [r5, #40]	; 0x28
10006d96:	6dda      	ldr	r2, [r3, #92]	; 0x5c
10006d98:	3201      	adds	r2, #1
10006d9a:	65da      	str	r2, [r3, #92]	; 0x5c
10006d9c:	6aea      	ldr	r2, [r5, #44]	; 0x2c
10006d9e:	6859      	ldr	r1, [r3, #4]
10006da0:	6ac9      	ldr	r1, [r1, #44]	; 0x2c
10006da2:	4291      	cmp	r1, r2
10006da4:	d2e0      	bcs.n	10006d68 <vTaskGenericNotifyGiveFromISR+0x2c>
10006da6:	2e00      	cmp	r6, #0
10006da8:	d001      	beq.n	10006dae <vTaskGenericNotifyGiveFromISR+0x72>
10006daa:	2201      	movs	r2, #1
10006dac:	6032      	str	r2, [r6, #0]
10006dae:	2201      	movs	r2, #1
10006db0:	631a      	str	r2, [r3, #48]	; 0x30
10006db2:	e7d9      	b.n	10006d68 <vTaskGenericNotifyGiveFromISR+0x2c>
10006db4:	68a9      	ldr	r1, [r5, #8]
10006db6:	68ec      	ldr	r4, [r5, #12]
10006db8:	696a      	ldr	r2, [r5, #20]
10006dba:	608c      	str	r4, [r1, #8]
10006dbc:	68ec      	ldr	r4, [r5, #12]
10006dbe:	6061      	str	r1, [r4, #4]
10006dc0:	1d29      	adds	r1, r5, #4
10006dc2:	4688      	mov	r8, r1
10006dc4:	6851      	ldr	r1, [r2, #4]
10006dc6:	4541      	cmp	r1, r8
10006dc8:	d022      	beq.n	10006e10 <vTaskGenericNotifyGiveFromISR+0xd4>
10006dca:	6811      	ldr	r1, [r2, #0]
10006dcc:	3901      	subs	r1, #1
10006dce:	6011      	str	r1, [r2, #0]
10006dd0:	6ad9      	ldr	r1, [r3, #44]	; 0x2c
10006dd2:	6aea      	ldr	r2, [r5, #44]	; 0x2c
10006dd4:	428a      	cmp	r2, r1
10006dd6:	d900      	bls.n	10006dda <vTaskGenericNotifyGiveFromISR+0x9e>
10006dd8:	62da      	str	r2, [r3, #44]	; 0x2c
10006dda:	490f      	ldr	r1, [pc, #60]	; (10006e18 <vTaskGenericNotifyGiveFromISR+0xdc>)
10006ddc:	0094      	lsls	r4, r2, #2
10006dde:	468c      	mov	ip, r1
10006de0:	18a4      	adds	r4, r4, r2
10006de2:	00a1      	lsls	r1, r4, #2
10006de4:	468a      	mov	sl, r1
10006de6:	46e1      	mov	r9, ip
10006de8:	44d1      	add	r9, sl
10006dea:	4649      	mov	r1, r9
10006dec:	4647      	mov	r7, r8
10006dee:	6a09      	ldr	r1, [r1, #32]
10006df0:	688c      	ldr	r4, [r1, #8]
10006df2:	60a9      	str	r1, [r5, #8]
10006df4:	60ec      	str	r4, [r5, #12]
10006df6:	688c      	ldr	r4, [r1, #8]
10006df8:	6067      	str	r7, [r4, #4]
10006dfa:	608f      	str	r7, [r1, #8]
10006dfc:	4661      	mov	r1, ip
10006dfe:	311c      	adds	r1, #28
10006e00:	4451      	add	r1, sl
10006e02:	6169      	str	r1, [r5, #20]
10006e04:	4649      	mov	r1, r9
10006e06:	464c      	mov	r4, r9
10006e08:	69c9      	ldr	r1, [r1, #28]
10006e0a:	3101      	adds	r1, #1
10006e0c:	61e1      	str	r1, [r4, #28]
10006e0e:	e7c6      	b.n	10006d9e <vTaskGenericNotifyGiveFromISR+0x62>
10006e10:	6054      	str	r4, [r2, #4]
10006e12:	e7da      	b.n	10006dca <vTaskGenericNotifyGiveFromISR+0x8e>
10006e14:	20000edc 	.word	0x20000edc
10006e18:	20000e5c 	.word	0x20000e5c

10006e1c <xTaskGenericNotifyStateClear>:
10006e1c:	b570      	push	{r4, r5, r6, lr}
10006e1e:	0004      	movs	r4, r0
10006e20:	000d      	movs	r5, r1
10006e22:	2800      	cmp	r0, #0
10006e24:	d00d      	beq.n	10006e42 <xTaskGenericNotifyStateClear+0x26>
10006e26:	1964      	adds	r4, r4, r5
10006e28:	3464      	adds	r4, #100	; 0x64
10006e2a:	f000 fb13 	bl	10007454 <vPortEnterCritical>
10006e2e:	7823      	ldrb	r3, [r4, #0]
10006e30:	2500      	movs	r5, #0
10006e32:	2b02      	cmp	r3, #2
10006e34:	d101      	bne.n	10006e3a <xTaskGenericNotifyStateClear+0x1e>
10006e36:	7025      	strb	r5, [r4, #0]
10006e38:	3501      	adds	r5, #1
10006e3a:	f000 fb17 	bl	1000746c <vPortExitCritical>
10006e3e:	0028      	movs	r0, r5
10006e40:	bd70      	pop	{r4, r5, r6, pc}
10006e42:	4b01      	ldr	r3, [pc, #4]	; (10006e48 <xTaskGenericNotifyStateClear+0x2c>)
10006e44:	685c      	ldr	r4, [r3, #4]
10006e46:	e7ee      	b.n	10006e26 <xTaskGenericNotifyStateClear+0xa>
10006e48:	20000edc 	.word	0x20000edc

10006e4c <ulTaskGenericNotifyValueClear>:
10006e4c:	b570      	push	{r4, r5, r6, lr}
10006e4e:	0004      	movs	r4, r0
10006e50:	000d      	movs	r5, r1
10006e52:	0016      	movs	r6, r2
10006e54:	2800      	cmp	r0, #0
10006e56:	d00b      	beq.n	10006e70 <ulTaskGenericNotifyValueClear+0x24>
10006e58:	f000 fafc 	bl	10007454 <vPortEnterCritical>
10006e5c:	00a8      	lsls	r0, r5, #2
10006e5e:	1820      	adds	r0, r4, r0
10006e60:	6d84      	ldr	r4, [r0, #88]	; 0x58
10006e62:	6d83      	ldr	r3, [r0, #88]	; 0x58
10006e64:	43b3      	bics	r3, r6
10006e66:	6583      	str	r3, [r0, #88]	; 0x58
10006e68:	f000 fb00 	bl	1000746c <vPortExitCritical>
10006e6c:	0020      	movs	r0, r4
10006e6e:	bd70      	pop	{r4, r5, r6, pc}
10006e70:	4b01      	ldr	r3, [pc, #4]	; (10006e78 <ulTaskGenericNotifyValueClear+0x2c>)
10006e72:	685c      	ldr	r4, [r3, #4]
10006e74:	e7f0      	b.n	10006e58 <ulTaskGenericNotifyValueClear+0xc>
10006e76:	46c0      	nop			; (mov r8, r8)
10006e78:	20000edc 	.word	0x20000edc

10006e7c <prvTimerTask>:
10006e7c:	b5f0      	push	{r4, r5, r6, r7, lr}
10006e7e:	4645      	mov	r5, r8
10006e80:	46de      	mov	lr, fp
10006e82:	4657      	mov	r7, sl
10006e84:	464e      	mov	r6, r9
10006e86:	b5e0      	push	{r5, r6, r7, lr}
10006e88:	4dbb      	ldr	r5, [pc, #748]	; (10007178 <prvTimerTask+0x2fc>)
10006e8a:	b087      	sub	sp, #28
10006e8c:	682b      	ldr	r3, [r5, #0]
10006e8e:	681c      	ldr	r4, [r3, #0]
10006e90:	2c00      	cmp	r4, #0
10006e92:	d100      	bne.n	10006e96 <prvTimerTask+0x1a>
10006e94:	e0c8      	b.n	10007028 <prvTimerTask+0x1ac>
10006e96:	68db      	ldr	r3, [r3, #12]
10006e98:	681c      	ldr	r4, [r3, #0]
10006e9a:	f7ff fa0f 	bl	100062bc <vTaskSuspendAll>
10006e9e:	f7ff fb19 	bl	100064d4 <xTaskGetTickCount>
10006ea2:	686b      	ldr	r3, [r5, #4]
10006ea4:	0007      	movs	r7, r0
10006ea6:	4298      	cmp	r0, r3
10006ea8:	d200      	bcs.n	10006eac <prvTimerTask+0x30>
10006eaa:	e0d6      	b.n	1000705a <prvTimerTask+0x1de>
10006eac:	6068      	str	r0, [r5, #4]
10006eae:	4284      	cmp	r4, r0
10006eb0:	d800      	bhi.n	10006eb4 <prvTimerTask+0x38>
10006eb2:	e127      	b.n	10007104 <prvTimerTask+0x288>
10006eb4:	2200      	movs	r2, #0
10006eb6:	68e8      	ldr	r0, [r5, #12]
10006eb8:	1be1      	subs	r1, r4, r7
10006eba:	f7fe fcc3 	bl	10005844 <vQueueWaitForMessageRestricted>
10006ebe:	f7ff fa05 	bl	100062cc <xTaskResumeAll>
10006ec2:	2800      	cmp	r0, #0
10006ec4:	d100      	bne.n	10006ec8 <prvTimerTask+0x4c>
10006ec6:	e0c5      	b.n	10007054 <prvTimerTask+0x1d8>
10006ec8:	2324      	movs	r3, #36	; 0x24
10006eca:	469a      	mov	sl, r3
10006ecc:	2200      	movs	r2, #0
10006ece:	68e8      	ldr	r0, [r5, #12]
10006ed0:	a903      	add	r1, sp, #12
10006ed2:	f7fd ff09 	bl	10004ce8 <xQueueReceive>
10006ed6:	2800      	cmp	r0, #0
10006ed8:	d0d8      	beq.n	10006e8c <prvTimerTask+0x10>
10006eda:	9b03      	ldr	r3, [sp, #12]
10006edc:	9301      	str	r3, [sp, #4]
10006ede:	2b00      	cmp	r3, #0
10006ee0:	dbf4      	blt.n	10006ecc <prvTimerTask+0x50>
10006ee2:	9f05      	ldr	r7, [sp, #20]
10006ee4:	697b      	ldr	r3, [r7, #20]
10006ee6:	2b00      	cmp	r3, #0
10006ee8:	d002      	beq.n	10006ef0 <prvTimerTask+0x74>
10006eea:	1d38      	adds	r0, r7, #4
10006eec:	f000 fb6e 	bl	100075cc <uxListRemove>
10006ef0:	f7ff faf0 	bl	100064d4 <xTaskGetTickCount>
10006ef4:	686b      	ldr	r3, [r5, #4]
10006ef6:	4680      	mov	r8, r0
10006ef8:	4298      	cmp	r0, r3
10006efa:	d30f      	bcc.n	10006f1c <prvTimerTask+0xa0>
10006efc:	4643      	mov	r3, r8
10006efe:	606b      	str	r3, [r5, #4]
10006f00:	9b03      	ldr	r3, [sp, #12]
10006f02:	2b09      	cmp	r3, #9
10006f04:	d8e2      	bhi.n	10006ecc <prvTimerTask+0x50>
10006f06:	4a9d      	ldr	r2, [pc, #628]	; (1000717c <prvTimerTask+0x300>)
10006f08:	009b      	lsls	r3, r3, #2
10006f0a:	58d3      	ldr	r3, [r2, r3]
10006f0c:	469f      	mov	pc, r3
10006f0e:	2201      	movs	r2, #1
10006f10:	4393      	bics	r3, r2
10006f12:	4652      	mov	r2, sl
10006f14:	54a3      	strb	r3, [r4, r2]
10006f16:	0020      	movs	r0, r4
10006f18:	6a23      	ldr	r3, [r4, #32]
10006f1a:	4798      	blx	r3
10006f1c:	682b      	ldr	r3, [r5, #0]
10006f1e:	681a      	ldr	r2, [r3, #0]
10006f20:	2a00      	cmp	r2, #0
10006f22:	d100      	bne.n	10006f26 <prvTimerTask+0xaa>
10006f24:	e0e0      	b.n	100070e8 <prvTimerTask+0x26c>
10006f26:	68db      	ldr	r3, [r3, #12]
10006f28:	68dc      	ldr	r4, [r3, #12]
10006f2a:	681e      	ldr	r6, [r3, #0]
10006f2c:	1d23      	adds	r3, r4, #4
10006f2e:	0018      	movs	r0, r3
10006f30:	469b      	mov	fp, r3
10006f32:	f000 fb4b 	bl	100075cc <uxListRemove>
10006f36:	4653      	mov	r3, sl
10006f38:	2204      	movs	r2, #4
10006f3a:	5ce3      	ldrb	r3, [r4, r3]
10006f3c:	421a      	tst	r2, r3
10006f3e:	d0e6      	beq.n	10006f0e <prvTimerTask+0x92>
10006f40:	69a3      	ldr	r3, [r4, #24]
10006f42:	6124      	str	r4, [r4, #16]
10006f44:	199a      	adds	r2, r3, r6
10006f46:	43f6      	mvns	r6, r6
10006f48:	4691      	mov	r9, r2
10006f4a:	6062      	str	r2, [r4, #4]
10006f4c:	429e      	cmp	r6, r3
10006f4e:	d30b      	bcc.n	10006f68 <prvTimerTask+0xec>
10006f50:	464e      	mov	r6, r9
10006f52:	6a23      	ldr	r3, [r4, #32]
10006f54:	0020      	movs	r0, r4
10006f56:	4798      	blx	r3
10006f58:	69a3      	ldr	r3, [r4, #24]
10006f5a:	43f6      	mvns	r6, r6
10006f5c:	4499      	add	r9, r3
10006f5e:	464a      	mov	r2, r9
10006f60:	6124      	str	r4, [r4, #16]
10006f62:	6062      	str	r2, [r4, #4]
10006f64:	42b3      	cmp	r3, r6
10006f66:	d9f3      	bls.n	10006f50 <prvTimerTask+0xd4>
10006f68:	4659      	mov	r1, fp
10006f6a:	68a8      	ldr	r0, [r5, #8]
10006f6c:	f000 fb16 	bl	1000759c <vListInsert>
10006f70:	e7d1      	b.n	10006f16 <prvTimerTask+0x9a>
10006f72:	4653      	mov	r3, sl
10006f74:	5cf8      	ldrb	r0, [r7, r3]
10006f76:	2301      	movs	r3, #1
10006f78:	4652      	mov	r2, sl
10006f7a:	4303      	orrs	r3, r0
10006f7c:	54bb      	strb	r3, [r7, r2]
10006f7e:	9904      	ldr	r1, [sp, #16]
10006f80:	69ba      	ldr	r2, [r7, #24]
10006f82:	613f      	str	r7, [r7, #16]
10006f84:	188b      	adds	r3, r1, r2
10006f86:	607b      	str	r3, [r7, #4]
10006f88:	4543      	cmp	r3, r8
10006f8a:	d900      	bls.n	10006f8e <prvTimerTask+0x112>
10006f8c:	e0b0      	b.n	100070f0 <prvTimerTask+0x274>
10006f8e:	4644      	mov	r4, r8
10006f90:	1a61      	subs	r1, r4, r1
10006f92:	428a      	cmp	r2, r1
10006f94:	d839      	bhi.n	1000700a <prvTimerTask+0x18e>
10006f96:	0741      	lsls	r1, r0, #29
10006f98:	d411      	bmi.n	10006fbe <prvTimerTask+0x142>
10006f9a:	2301      	movs	r3, #1
10006f9c:	4398      	bics	r0, r3
10006f9e:	4653      	mov	r3, sl
10006fa0:	54f8      	strb	r0, [r7, r3]
10006fa2:	0038      	movs	r0, r7
10006fa4:	6a3b      	ldr	r3, [r7, #32]
10006fa6:	4798      	blx	r3
10006fa8:	e790      	b.n	10006ecc <prvTimerTask+0x50>
10006faa:	4641      	mov	r1, r8
10006fac:	1acb      	subs	r3, r1, r3
10006fae:	4293      	cmp	r3, r2
10006fb0:	d200      	bcs.n	10006fb4 <prvTimerTask+0x138>
10006fb2:	e0dc      	b.n	1000716e <prvTimerTask+0x2f2>
10006fb4:	6a3b      	ldr	r3, [r7, #32]
10006fb6:	0038      	movs	r0, r7
10006fb8:	4798      	blx	r3
10006fba:	0023      	movs	r3, r4
10006fbc:	69ba      	ldr	r2, [r7, #24]
10006fbe:	189c      	adds	r4, r3, r2
10006fc0:	607c      	str	r4, [r7, #4]
10006fc2:	613f      	str	r7, [r7, #16]
10006fc4:	45a0      	cmp	r8, r4
10006fc6:	d2f0      	bcs.n	10006faa <prvTimerTask+0x12e>
10006fc8:	4598      	cmp	r8, r3
10006fca:	d201      	bcs.n	10006fd0 <prvTimerTask+0x154>
10006fcc:	42a3      	cmp	r3, r4
10006fce:	d9f1      	bls.n	10006fb4 <prvTimerTask+0x138>
10006fd0:	6828      	ldr	r0, [r5, #0]
10006fd2:	1d39      	adds	r1, r7, #4
10006fd4:	f000 fae2 	bl	1000759c <vListInsert>
10006fd8:	e7e3      	b.n	10006fa2 <prvTimerTask+0x126>
10006fda:	4653      	mov	r3, sl
10006fdc:	2201      	movs	r2, #1
10006fde:	5cfb      	ldrb	r3, [r7, r3]
10006fe0:	4393      	bics	r3, r2
10006fe2:	4652      	mov	r2, sl
10006fe4:	54bb      	strb	r3, [r7, r2]
10006fe6:	e771      	b.n	10006ecc <prvTimerTask+0x50>
10006fe8:	4653      	mov	r3, sl
10006fea:	2201      	movs	r2, #1
10006fec:	5cfb      	ldrb	r3, [r7, r3]
10006fee:	4313      	orrs	r3, r2
10006ff0:	4652      	mov	r2, sl
10006ff2:	54bb      	strb	r3, [r7, r2]
10006ff4:	4642      	mov	r2, r8
10006ff6:	9b04      	ldr	r3, [sp, #16]
10006ff8:	613f      	str	r7, [r7, #16]
10006ffa:	189a      	adds	r2, r3, r2
10006ffc:	61bb      	str	r3, [r7, #24]
10006ffe:	607a      	str	r2, [r7, #4]
10007000:	4542      	cmp	r2, r8
10007002:	d87a      	bhi.n	100070fa <prvTimerTask+0x27e>
10007004:	2b00      	cmp	r3, #0
10007006:	d100      	bne.n	1000700a <prvTimerTask+0x18e>
10007008:	e760      	b.n	10006ecc <prvTimerTask+0x50>
1000700a:	68a8      	ldr	r0, [r5, #8]
1000700c:	1d39      	adds	r1, r7, #4
1000700e:	f000 fac5 	bl	1000759c <vListInsert>
10007012:	e75b      	b.n	10006ecc <prvTimerTask+0x50>
10007014:	4653      	mov	r3, sl
10007016:	5cfb      	ldrb	r3, [r7, r3]
10007018:	079a      	lsls	r2, r3, #30
1000701a:	d400      	bmi.n	1000701e <prvTimerTask+0x1a2>
1000701c:	e09e      	b.n	1000715c <prvTimerTask+0x2e0>
1000701e:	2201      	movs	r2, #1
10007020:	4393      	bics	r3, r2
10007022:	4652      	mov	r2, sl
10007024:	54bb      	strb	r3, [r7, r2]
10007026:	e751      	b.n	10006ecc <prvTimerTask+0x50>
10007028:	f7ff f948 	bl	100062bc <vTaskSuspendAll>
1000702c:	f7ff fa52 	bl	100064d4 <xTaskGetTickCount>
10007030:	686b      	ldr	r3, [r5, #4]
10007032:	0007      	movs	r7, r0
10007034:	4298      	cmp	r0, r3
10007036:	d310      	bcc.n	1000705a <prvTimerTask+0x1de>
10007038:	68ab      	ldr	r3, [r5, #8]
1000703a:	68e8      	ldr	r0, [r5, #12]
1000703c:	681a      	ldr	r2, [r3, #0]
1000703e:	1be1      	subs	r1, r4, r7
10007040:	4253      	negs	r3, r2
10007042:	415a      	adcs	r2, r3
10007044:	606f      	str	r7, [r5, #4]
10007046:	f7fe fbfd 	bl	10005844 <vQueueWaitForMessageRestricted>
1000704a:	f7ff f93f 	bl	100062cc <xTaskResumeAll>
1000704e:	2800      	cmp	r0, #0
10007050:	d000      	beq.n	10007054 <prvTimerTask+0x1d8>
10007052:	e739      	b.n	10006ec8 <prvTimerTask+0x4c>
10007054:	f000 f9f2 	bl	1000743c <vPortYield>
10007058:	e736      	b.n	10006ec8 <prvTimerTask+0x4c>
1000705a:	682b      	ldr	r3, [r5, #0]
1000705c:	681a      	ldr	r2, [r3, #0]
1000705e:	2a00      	cmp	r2, #0
10007060:	d03b      	beq.n	100070da <prvTimerTask+0x25e>
10007062:	2224      	movs	r2, #36	; 0x24
10007064:	4692      	mov	sl, r2
10007066:	3a20      	subs	r2, #32
10007068:	4693      	mov	fp, r2
1000706a:	e00a      	b.n	10007082 <prvTimerTask+0x206>
1000706c:	2201      	movs	r2, #1
1000706e:	4393      	bics	r3, r2
10007070:	4652      	mov	r2, sl
10007072:	54a3      	strb	r3, [r4, r2]
10007074:	6a23      	ldr	r3, [r4, #32]
10007076:	0020      	movs	r0, r4
10007078:	4798      	blx	r3
1000707a:	682b      	ldr	r3, [r5, #0]
1000707c:	681a      	ldr	r2, [r3, #0]
1000707e:	2a00      	cmp	r2, #0
10007080:	d02b      	beq.n	100070da <prvTimerTask+0x25e>
10007082:	68db      	ldr	r3, [r3, #12]
10007084:	68dc      	ldr	r4, [r3, #12]
10007086:	681e      	ldr	r6, [r3, #0]
10007088:	1d23      	adds	r3, r4, #4
1000708a:	0018      	movs	r0, r3
1000708c:	4699      	mov	r9, r3
1000708e:	f000 fa9d 	bl	100075cc <uxListRemove>
10007092:	4653      	mov	r3, sl
10007094:	465a      	mov	r2, fp
10007096:	5ce3      	ldrb	r3, [r4, r3]
10007098:	421a      	tst	r2, r3
1000709a:	d0e7      	beq.n	1000706c <prvTimerTask+0x1f0>
1000709c:	69a3      	ldr	r3, [r4, #24]
1000709e:	6124      	str	r4, [r4, #16]
100070a0:	18f2      	adds	r2, r6, r3
100070a2:	43f6      	mvns	r6, r6
100070a4:	4690      	mov	r8, r2
100070a6:	6062      	str	r2, [r4, #4]
100070a8:	429e      	cmp	r6, r3
100070aa:	d30b      	bcc.n	100070c4 <prvTimerTask+0x248>
100070ac:	4646      	mov	r6, r8
100070ae:	6a23      	ldr	r3, [r4, #32]
100070b0:	0020      	movs	r0, r4
100070b2:	4798      	blx	r3
100070b4:	69a3      	ldr	r3, [r4, #24]
100070b6:	43f6      	mvns	r6, r6
100070b8:	4498      	add	r8, r3
100070ba:	4642      	mov	r2, r8
100070bc:	6124      	str	r4, [r4, #16]
100070be:	6062      	str	r2, [r4, #4]
100070c0:	42b3      	cmp	r3, r6
100070c2:	d9f3      	bls.n	100070ac <prvTimerTask+0x230>
100070c4:	4649      	mov	r1, r9
100070c6:	68a8      	ldr	r0, [r5, #8]
100070c8:	f000 fa68 	bl	1000759c <vListInsert>
100070cc:	6a23      	ldr	r3, [r4, #32]
100070ce:	0020      	movs	r0, r4
100070d0:	4798      	blx	r3
100070d2:	682b      	ldr	r3, [r5, #0]
100070d4:	681a      	ldr	r2, [r3, #0]
100070d6:	2a00      	cmp	r2, #0
100070d8:	d1d3      	bne.n	10007082 <prvTimerTask+0x206>
100070da:	68aa      	ldr	r2, [r5, #8]
100070dc:	606f      	str	r7, [r5, #4]
100070de:	602a      	str	r2, [r5, #0]
100070e0:	60ab      	str	r3, [r5, #8]
100070e2:	f7ff f8f3 	bl	100062cc <xTaskResumeAll>
100070e6:	e6ef      	b.n	10006ec8 <prvTimerTask+0x4c>
100070e8:	68aa      	ldr	r2, [r5, #8]
100070ea:	60ab      	str	r3, [r5, #8]
100070ec:	602a      	str	r2, [r5, #0]
100070ee:	e705      	b.n	10006efc <prvTimerTask+0x80>
100070f0:	4541      	cmp	r1, r8
100070f2:	d902      	bls.n	100070fa <prvTimerTask+0x27e>
100070f4:	4299      	cmp	r1, r3
100070f6:	d800      	bhi.n	100070fa <prvTimerTask+0x27e>
100070f8:	e74d      	b.n	10006f96 <prvTimerTask+0x11a>
100070fa:	6828      	ldr	r0, [r5, #0]
100070fc:	1d39      	adds	r1, r7, #4
100070fe:	f000 fa4d 	bl	1000759c <vListInsert>
10007102:	e6e3      	b.n	10006ecc <prvTimerTask+0x50>
10007104:	f7ff f8e2 	bl	100062cc <xTaskResumeAll>
10007108:	682b      	ldr	r3, [r5, #0]
1000710a:	68db      	ldr	r3, [r3, #12]
1000710c:	68de      	ldr	r6, [r3, #12]
1000710e:	1d33      	adds	r3, r6, #4
10007110:	0018      	movs	r0, r3
10007112:	4699      	mov	r9, r3
10007114:	f000 fa5a 	bl	100075cc <uxListRemove>
10007118:	2224      	movs	r2, #36	; 0x24
1000711a:	5cb3      	ldrb	r3, [r6, r2]
1000711c:	0759      	lsls	r1, r3, #29
1000711e:	d40d      	bmi.n	1000713c <prvTimerTask+0x2c0>
10007120:	2101      	movs	r1, #1
10007122:	438b      	bics	r3, r1
10007124:	54b3      	strb	r3, [r6, r2]
10007126:	0030      	movs	r0, r6
10007128:	6a33      	ldr	r3, [r6, #32]
1000712a:	4798      	blx	r3
1000712c:	e6cc      	b.n	10006ec8 <prvTimerTask+0x4c>
1000712e:	1b3c      	subs	r4, r7, r4
10007130:	42a3      	cmp	r3, r4
10007132:	d817      	bhi.n	10007164 <prvTimerTask+0x2e8>
10007134:	0030      	movs	r0, r6
10007136:	6a33      	ldr	r3, [r6, #32]
10007138:	4798      	blx	r3
1000713a:	4644      	mov	r4, r8
1000713c:	69b3      	ldr	r3, [r6, #24]
1000713e:	6136      	str	r6, [r6, #16]
10007140:	18e2      	adds	r2, r4, r3
10007142:	4690      	mov	r8, r2
10007144:	6072      	str	r2, [r6, #4]
10007146:	4297      	cmp	r7, r2
10007148:	d2f1      	bcs.n	1000712e <prvTimerTask+0x2b2>
1000714a:	42a7      	cmp	r7, r4
1000714c:	d201      	bcs.n	10007152 <prvTimerTask+0x2d6>
1000714e:	4294      	cmp	r4, r2
10007150:	d9f0      	bls.n	10007134 <prvTimerTask+0x2b8>
10007152:	4649      	mov	r1, r9
10007154:	6828      	ldr	r0, [r5, #0]
10007156:	f000 fa21 	bl	1000759c <vListInsert>
1000715a:	e7e4      	b.n	10007126 <prvTimerTask+0x2aa>
1000715c:	0038      	movs	r0, r7
1000715e:	f000 f929 	bl	100073b4 <vPortFree>
10007162:	e6b3      	b.n	10006ecc <prvTimerTask+0x50>
10007164:	4649      	mov	r1, r9
10007166:	68a8      	ldr	r0, [r5, #8]
10007168:	f000 fa18 	bl	1000759c <vListInsert>
1000716c:	e7db      	b.n	10007126 <prvTimerTask+0x2aa>
1000716e:	68a8      	ldr	r0, [r5, #8]
10007170:	1d39      	adds	r1, r7, #4
10007172:	f000 fa13 	bl	1000759c <vListInsert>
10007176:	e714      	b.n	10006fa2 <prvTimerTask+0x126>
10007178:	20000f60 	.word	0x20000f60
1000717c:	10008230 	.word	0x10008230

10007180 <xTimerCreateTimerTask>:
10007180:	b570      	push	{r4, r5, r6, lr}
10007182:	b082      	sub	sp, #8
10007184:	f000 f966 	bl	10007454 <vPortEnterCritical>
10007188:	4c16      	ldr	r4, [pc, #88]	; (100071e4 <xTimerCreateTimerTask+0x64>)
1000718a:	68e3      	ldr	r3, [r4, #12]
1000718c:	2b00      	cmp	r3, #0
1000718e:	d011      	beq.n	100071b4 <xTimerCreateTimerTask+0x34>
10007190:	f000 f96c 	bl	1000746c <vPortExitCritical>
10007194:	68e3      	ldr	r3, [r4, #12]
10007196:	2000      	movs	r0, #0
10007198:	2b00      	cmp	r3, #0
1000719a:	d009      	beq.n	100071b0 <xTimerCreateTimerTask+0x30>
1000719c:	2303      	movs	r3, #3
1000719e:	3438      	adds	r4, #56	; 0x38
100071a0:	9300      	str	r3, [sp, #0]
100071a2:	2280      	movs	r2, #128	; 0x80
100071a4:	2300      	movs	r3, #0
100071a6:	4910      	ldr	r1, [pc, #64]	; (100071e8 <xTimerCreateTimerTask+0x68>)
100071a8:	4810      	ldr	r0, [pc, #64]	; (100071ec <xTimerCreateTimerTask+0x6c>)
100071aa:	9401      	str	r4, [sp, #4]
100071ac:	f7fe fca0 	bl	10005af0 <xTaskCreate>
100071b0:	b002      	add	sp, #8
100071b2:	bd70      	pop	{r4, r5, r6, pc}
100071b4:	0026      	movs	r6, r4
100071b6:	0025      	movs	r5, r4
100071b8:	3610      	adds	r6, #16
100071ba:	0030      	movs	r0, r6
100071bc:	3524      	adds	r5, #36	; 0x24
100071be:	f000 f9d1 	bl	10007564 <vListInitialise>
100071c2:	0028      	movs	r0, r5
100071c4:	f000 f9ce 	bl	10007564 <vListInitialise>
100071c8:	2200      	movs	r2, #0
100071ca:	210c      	movs	r1, #12
100071cc:	200a      	movs	r0, #10
100071ce:	6026      	str	r6, [r4, #0]
100071d0:	60a5      	str	r5, [r4, #8]
100071d2:	f7fd faed 	bl	100047b0 <xQueueGenericCreate>
100071d6:	60e0      	str	r0, [r4, #12]
100071d8:	2800      	cmp	r0, #0
100071da:	d0d9      	beq.n	10007190 <xTimerCreateTimerTask+0x10>
100071dc:	4904      	ldr	r1, [pc, #16]	; (100071f0 <xTimerCreateTimerTask+0x70>)
100071de:	f7fe fa2f 	bl	10005640 <vQueueAddToRegistry>
100071e2:	e7d5      	b.n	10007190 <xTimerCreateTimerTask+0x10>
100071e4:	20000f60 	.word	0x20000f60
100071e8:	10008260 	.word	0x10008260
100071ec:	10006e7d 	.word	0x10006e7d
100071f0:	10008258 	.word	0x10008258

100071f4 <xTimerCreate>:
100071f4:	b5f8      	push	{r3, r4, r5, r6, r7, lr}
100071f6:	4645      	mov	r5, r8
100071f8:	46de      	mov	lr, fp
100071fa:	4657      	mov	r7, sl
100071fc:	464e      	mov	r6, r9
100071fe:	b5e0      	push	{r5, r6, r7, lr}
10007200:	0007      	movs	r7, r0
10007202:	2028      	movs	r0, #40	; 0x28
10007204:	4688      	mov	r8, r1
10007206:	0016      	movs	r6, r2
10007208:	001d      	movs	r5, r3
1000720a:	f000 f8c7 	bl	1000739c <pvPortMalloc>
1000720e:	1e04      	subs	r4, r0, #0
10007210:	d01b      	beq.n	1000724a <xTimerCreate+0x56>
10007212:	2324      	movs	r3, #36	; 0x24
10007214:	2200      	movs	r2, #0
10007216:	54c2      	strb	r2, [r0, r3]
10007218:	f000 f91c 	bl	10007454 <vPortEnterCritical>
1000721c:	4b1d      	ldr	r3, [pc, #116]	; (10007294 <xTimerCreate+0xa0>)
1000721e:	4699      	mov	r9, r3
10007220:	68db      	ldr	r3, [r3, #12]
10007222:	2b00      	cmp	r3, #0
10007224:	d018      	beq.n	10007258 <xTimerCreate+0x64>
10007226:	f000 f921 	bl	1000746c <vPortExitCritical>
1000722a:	4643      	mov	r3, r8
1000722c:	61a3      	str	r3, [r4, #24]
1000722e:	9b0a      	ldr	r3, [sp, #40]	; 0x28
10007230:	6027      	str	r7, [r4, #0]
10007232:	61e5      	str	r5, [r4, #28]
10007234:	6223      	str	r3, [r4, #32]
10007236:	1d20      	adds	r0, r4, #4
10007238:	f000 f9a0 	bl	1000757c <vListInitialiseItem>
1000723c:	2e00      	cmp	r6, #0
1000723e:	d004      	beq.n	1000724a <xTimerCreate+0x56>
10007240:	2224      	movs	r2, #36	; 0x24
10007242:	2104      	movs	r1, #4
10007244:	5ca3      	ldrb	r3, [r4, r2]
10007246:	430b      	orrs	r3, r1
10007248:	54a3      	strb	r3, [r4, r2]
1000724a:	0020      	movs	r0, r4
1000724c:	bc3c      	pop	{r2, r3, r4, r5}
1000724e:	4690      	mov	r8, r2
10007250:	4699      	mov	r9, r3
10007252:	46a2      	mov	sl, r4
10007254:	46ab      	mov	fp, r5
10007256:	bdf8      	pop	{r3, r4, r5, r6, r7, pc}
10007258:	3310      	adds	r3, #16
1000725a:	444b      	add	r3, r9
1000725c:	0018      	movs	r0, r3
1000725e:	469b      	mov	fp, r3
10007260:	f000 f980 	bl	10007564 <vListInitialise>
10007264:	2324      	movs	r3, #36	; 0x24
10007266:	444b      	add	r3, r9
10007268:	0018      	movs	r0, r3
1000726a:	469a      	mov	sl, r3
1000726c:	f000 f97a 	bl	10007564 <vListInitialise>
10007270:	464b      	mov	r3, r9
10007272:	465a      	mov	r2, fp
10007274:	601a      	str	r2, [r3, #0]
10007276:	4652      	mov	r2, sl
10007278:	210c      	movs	r1, #12
1000727a:	609a      	str	r2, [r3, #8]
1000727c:	200a      	movs	r0, #10
1000727e:	2200      	movs	r2, #0
10007280:	f7fd fa96 	bl	100047b0 <xQueueGenericCreate>
10007284:	464b      	mov	r3, r9
10007286:	60d8      	str	r0, [r3, #12]
10007288:	2800      	cmp	r0, #0
1000728a:	d0cc      	beq.n	10007226 <xTimerCreate+0x32>
1000728c:	4902      	ldr	r1, [pc, #8]	; (10007298 <xTimerCreate+0xa4>)
1000728e:	f7fe f9d7 	bl	10005640 <vQueueAddToRegistry>
10007292:	e7c8      	b.n	10007226 <xTimerCreate+0x32>
10007294:	20000f60 	.word	0x20000f60
10007298:	10008258 	.word	0x10008258

1000729c <xTimerGenericCommand>:
1000729c:	b570      	push	{r4, r5, r6, lr}
1000729e:	4e13      	ldr	r6, [pc, #76]	; (100072ec <xTimerGenericCommand+0x50>)
100072a0:	001c      	movs	r4, r3
100072a2:	68f5      	ldr	r5, [r6, #12]
100072a4:	b084      	sub	sp, #16
100072a6:	2d00      	cmp	r5, #0
100072a8:	d017      	beq.n	100072da <xTimerGenericCommand+0x3e>
100072aa:	9101      	str	r1, [sp, #4]
100072ac:	9202      	str	r2, [sp, #8]
100072ae:	9003      	str	r0, [sp, #12]
100072b0:	2905      	cmp	r1, #5
100072b2:	dc0a      	bgt.n	100072ca <xTimerGenericCommand+0x2e>
100072b4:	f7ff fb92 	bl	100069dc <xTaskGetSchedulerState>
100072b8:	2802      	cmp	r0, #2
100072ba:	d010      	beq.n	100072de <xTimerGenericCommand+0x42>
100072bc:	2300      	movs	r3, #0
100072be:	2200      	movs	r2, #0
100072c0:	68f0      	ldr	r0, [r6, #12]
100072c2:	a901      	add	r1, sp, #4
100072c4:	f7fd fac0 	bl	10004848 <xQueueGenericSend>
100072c8:	e005      	b.n	100072d6 <xTimerGenericCommand+0x3a>
100072ca:	2300      	movs	r3, #0
100072cc:	0022      	movs	r2, r4
100072ce:	0028      	movs	r0, r5
100072d0:	a901      	add	r1, sp, #4
100072d2:	f7fd fc49 	bl	10004b68 <xQueueGenericSendFromISR>
100072d6:	b004      	add	sp, #16
100072d8:	bd70      	pop	{r4, r5, r6, pc}
100072da:	2000      	movs	r0, #0
100072dc:	e7fb      	b.n	100072d6 <xTimerGenericCommand+0x3a>
100072de:	2300      	movs	r3, #0
100072e0:	68f0      	ldr	r0, [r6, #12]
100072e2:	9a08      	ldr	r2, [sp, #32]
100072e4:	a901      	add	r1, sp, #4
100072e6:	f7fd faaf 	bl	10004848 <xQueueGenericSend>
100072ea:	e7f4      	b.n	100072d6 <xTimerGenericCommand+0x3a>
100072ec:	20000f60 	.word	0x20000f60

100072f0 <xTimerGetTimerDaemonTaskHandle>:
100072f0:	4b01      	ldr	r3, [pc, #4]	; (100072f8 <xTimerGetTimerDaemonTaskHandle+0x8>)
100072f2:	6b98      	ldr	r0, [r3, #56]	; 0x38
100072f4:	4770      	bx	lr
100072f6:	46c0      	nop			; (mov r8, r8)
100072f8:	20000f60 	.word	0x20000f60

100072fc <xTimerGetPeriod>:
100072fc:	6980      	ldr	r0, [r0, #24]
100072fe:	4770      	bx	lr

10007300 <vTimerSetReloadMode>:
10007300:	b570      	push	{r4, r5, r6, lr}
10007302:	0004      	movs	r4, r0
10007304:	000d      	movs	r5, r1
10007306:	f000 f8a5 	bl	10007454 <vPortEnterCritical>
1000730a:	2324      	movs	r3, #36	; 0x24
1000730c:	2204      	movs	r2, #4
1000730e:	5ce3      	ldrb	r3, [r4, r3]
10007310:	2d00      	cmp	r5, #0
10007312:	d005      	beq.n	10007320 <vTimerSetReloadMode+0x20>
10007314:	4313      	orrs	r3, r2
10007316:	2224      	movs	r2, #36	; 0x24
10007318:	54a3      	strb	r3, [r4, r2]
1000731a:	f000 f8a7 	bl	1000746c <vPortExitCritical>
1000731e:	bd70      	pop	{r4, r5, r6, pc}
10007320:	4393      	bics	r3, r2
10007322:	e7f8      	b.n	10007316 <vTimerSetReloadMode+0x16>

10007324 <xTimerGetReloadMode>:
10007324:	b510      	push	{r4, lr}
10007326:	0004      	movs	r4, r0
10007328:	f000 f894 	bl	10007454 <vPortEnterCritical>
1000732c:	2324      	movs	r3, #36	; 0x24
1000732e:	5ce4      	ldrb	r4, [r4, r3]
10007330:	0764      	lsls	r4, r4, #29
10007332:	0fe4      	lsrs	r4, r4, #31
10007334:	f000 f89a 	bl	1000746c <vPortExitCritical>
10007338:	0020      	movs	r0, r4
1000733a:	bd10      	pop	{r4, pc}

1000733c <uxTimerGetReloadMode>:
1000733c:	b510      	push	{r4, lr}
1000733e:	0004      	movs	r4, r0
10007340:	f000 f888 	bl	10007454 <vPortEnterCritical>
10007344:	2324      	movs	r3, #36	; 0x24
10007346:	5ce4      	ldrb	r4, [r4, r3]
10007348:	0764      	lsls	r4, r4, #29
1000734a:	0fe4      	lsrs	r4, r4, #31
1000734c:	f000 f88e 	bl	1000746c <vPortExitCritical>
10007350:	0020      	movs	r0, r4
10007352:	bd10      	pop	{r4, pc}

10007354 <xTimerGetExpiryTime>:
10007354:	6840      	ldr	r0, [r0, #4]
10007356:	4770      	bx	lr

10007358 <pcTimerGetName>:
10007358:	6800      	ldr	r0, [r0, #0]
1000735a:	4770      	bx	lr

1000735c <xTimerIsTimerActive>:
1000735c:	b510      	push	{r4, lr}
1000735e:	0004      	movs	r4, r0
10007360:	f000 f878 	bl	10007454 <vPortEnterCritical>
10007364:	2324      	movs	r3, #36	; 0x24
10007366:	5ce3      	ldrb	r3, [r4, r3]
10007368:	2401      	movs	r4, #1
1000736a:	401c      	ands	r4, r3
1000736c:	f000 f87e 	bl	1000746c <vPortExitCritical>
10007370:	0020      	movs	r0, r4
10007372:	bd10      	pop	{r4, pc}

10007374 <pvTimerGetTimerID>:
10007374:	b510      	push	{r4, lr}
10007376:	0004      	movs	r4, r0
10007378:	f000 f86c 	bl	10007454 <vPortEnterCritical>
1000737c:	69e4      	ldr	r4, [r4, #28]
1000737e:	f000 f875 	bl	1000746c <vPortExitCritical>
10007382:	0020      	movs	r0, r4
10007384:	bd10      	pop	{r4, pc}
10007386:	46c0      	nop			; (mov r8, r8)

10007388 <vTimerSetTimerID>:
10007388:	b570      	push	{r4, r5, r6, lr}
1000738a:	000d      	movs	r5, r1
1000738c:	0004      	movs	r4, r0
1000738e:	f000 f861 	bl	10007454 <vPortEnterCritical>
10007392:	61e5      	str	r5, [r4, #28]
10007394:	f000 f86a 	bl	1000746c <vPortExitCritical>
10007398:	bd70      	pop	{r4, r5, r6, pc}
1000739a:	46c0      	nop			; (mov r8, r8)

1000739c <pvPortMalloc>:
1000739c:	b510      	push	{r4, lr}
1000739e:	0004      	movs	r4, r0
100073a0:	f7fe ff8c 	bl	100062bc <vTaskSuspendAll>
100073a4:	0020      	movs	r0, r4
100073a6:	f7fa fd8f 	bl	10001ec8 <__wrap_malloc>
100073aa:	0004      	movs	r4, r0
100073ac:	f7fe ff8e 	bl	100062cc <xTaskResumeAll>
100073b0:	0020      	movs	r0, r4
100073b2:	bd10      	pop	{r4, pc}

100073b4 <vPortFree>:
100073b4:	b510      	push	{r4, lr}
100073b6:	1e04      	subs	r4, r0, #0
100073b8:	d006      	beq.n	100073c8 <vPortFree+0x14>
100073ba:	f7fe ff7f 	bl	100062bc <vTaskSuspendAll>
100073be:	0020      	movs	r0, r4
100073c0:	f7fa fd94 	bl	10001eec <__wrap_free>
100073c4:	f7fe ff82 	bl	100062cc <xTaskResumeAll>
100073c8:	bd10      	pop	{r4, pc}
100073ca:	46c0      	nop			; (mov r8, r8)
100073cc:	0000      	movs	r0, r0
	...

100073d0 <prvTaskExitError>:
100073d0:	2300      	movs	r3, #0
100073d2:	b082      	sub	sp, #8
100073d4:	9301      	str	r3, [sp, #4]
100073d6:	b672      	cpsid	i
100073d8:	9b01      	ldr	r3, [sp, #4]
100073da:	2b00      	cmp	r3, #0
100073dc:	d0fc      	beq.n	100073d8 <prvTaskExitError+0x8>
100073de:	b002      	add	sp, #8
100073e0:	4770      	bx	lr
100073e2:	46c0      	nop			; (mov r8, r8)

100073e4 <vPortStartFirstTask>:
100073e4:	4a0a      	ldr	r2, [pc, #40]	; (10007410 <pxCurrentTCBConst2>)
100073e6:	6813      	ldr	r3, [r2, #0]
100073e8:	6818      	ldr	r0, [r3, #0]
100073ea:	3020      	adds	r0, #32
100073ec:	f380 8809 	msr	PSP, r0
100073f0:	2002      	movs	r0, #2
100073f2:	f380 8814 	msr	CONTROL, r0
100073f6:	f3bf 8f6f 	isb	sy
100073fa:	bc3f      	pop	{r0, r1, r2, r3, r4, r5}
100073fc:	46ae      	mov	lr, r5
100073fe:	bc08      	pop	{r3}
10007400:	bc04      	pop	{r2}
10007402:	b662      	cpsie	i
10007404:	4718      	bx	r3
10007406:	46c0      	nop			; (mov r8, r8)
10007408:	46c0      	nop			; (mov r8, r8)
1000740a:	46c0      	nop			; (mov r8, r8)
1000740c:	46c0      	nop			; (mov r8, r8)
1000740e:	46c0      	nop			; (mov r8, r8)

10007410 <pxCurrentTCBConst2>:
10007410:	20000ee0 	.word	0x20000ee0

10007414 <pxPortInitialiseStack>:
10007414:	b510      	push	{r4, lr}
10007416:	2480      	movs	r4, #128	; 0x80
10007418:	1f03      	subs	r3, r0, #4
1000741a:	0464      	lsls	r4, r4, #17
1000741c:	601c      	str	r4, [r3, #0]
1000741e:	3b04      	subs	r3, #4
10007420:	6019      	str	r1, [r3, #0]
10007422:	4903      	ldr	r1, [pc, #12]	; (10007430 <pxPortInitialiseStack+0x1c>)
10007424:	3b04      	subs	r3, #4
10007426:	6019      	str	r1, [r3, #0]
10007428:	3b14      	subs	r3, #20
1000742a:	3840      	subs	r0, #64	; 0x40
1000742c:	601a      	str	r2, [r3, #0]
1000742e:	bd10      	pop	{r4, pc}
10007430:	100073d1 	.word	0x100073d1

10007434 <isr_svcall>:
10007434:	4770      	bx	lr
10007436:	46c0      	nop			; (mov r8, r8)

10007438 <vPortEndScheduler>:
10007438:	4770      	bx	lr
1000743a:	46c0      	nop			; (mov r8, r8)

1000743c <vPortYield>:
1000743c:	2280      	movs	r2, #128	; 0x80
1000743e:	4b04      	ldr	r3, [pc, #16]	; (10007450 <vPortYield+0x14>)
10007440:	0552      	lsls	r2, r2, #21
10007442:	601a      	str	r2, [r3, #0]
10007444:	f3bf 8f4f 	dsb	sy
10007448:	f3bf 8f6f 	isb	sy
1000744c:	4770      	bx	lr
1000744e:	46c0      	nop			; (mov r8, r8)
10007450:	e000ed04 	.word	0xe000ed04

10007454 <vPortEnterCritical>:
10007454:	b672      	cpsid	i
10007456:	4a04      	ldr	r2, [pc, #16]	; (10007468 <vPortEnterCritical+0x14>)
10007458:	6813      	ldr	r3, [r2, #0]
1000745a:	3301      	adds	r3, #1
1000745c:	6013      	str	r3, [r2, #0]
1000745e:	f3bf 8f4f 	dsb	sy
10007462:	f3bf 8f6f 	isb	sy
10007466:	4770      	bx	lr
10007468:	200004d4 	.word	0x200004d4

1000746c <vPortExitCritical>:
1000746c:	4a03      	ldr	r2, [pc, #12]	; (1000747c <vPortExitCritical+0x10>)
1000746e:	6813      	ldr	r3, [r2, #0]
10007470:	3b01      	subs	r3, #1
10007472:	6013      	str	r3, [r2, #0]
10007474:	2b00      	cmp	r3, #0
10007476:	d100      	bne.n	1000747a <vPortExitCritical+0xe>
10007478:	b662      	cpsie	i
1000747a:	4770      	bx	lr
1000747c:	200004d4 	.word	0x200004d4

10007480 <ulSetInterruptMaskFromISR>:
10007480:	f3ef 8010 	mrs	r0, PRIMASK
10007484:	b672      	cpsid	i
10007486:	4770      	bx	lr

10007488 <vClearInterruptMaskFromISR>:
10007488:	f380 8810 	msr	PRIMASK, r0
1000748c:	4770      	bx	lr
1000748e:	46c0      	nop			; (mov r8, r8)

10007490 <isr_pendsv>:
10007490:	f3ef 8009 	mrs	r0, PSP
10007494:	4b0e      	ldr	r3, [pc, #56]	; (100074d0 <pxCurrentTCBConst>)
10007496:	681a      	ldr	r2, [r3, #0]
10007498:	3820      	subs	r0, #32
1000749a:	6010      	str	r0, [r2, #0]
1000749c:	c0f0      	stmia	r0!, {r4, r5, r6, r7}
1000749e:	4644      	mov	r4, r8
100074a0:	464d      	mov	r5, r9
100074a2:	4656      	mov	r6, sl
100074a4:	465f      	mov	r7, fp
100074a6:	c0f0      	stmia	r0!, {r4, r5, r6, r7}
100074a8:	b508      	push	{r3, lr}
100074aa:	b672      	cpsid	i
100074ac:	f7ff f856 	bl	1000655c <vTaskSwitchContext>
100074b0:	b662      	cpsie	i
100074b2:	bc0c      	pop	{r2, r3}
100074b4:	6811      	ldr	r1, [r2, #0]
100074b6:	6808      	ldr	r0, [r1, #0]
100074b8:	3010      	adds	r0, #16
100074ba:	c8f0      	ldmia	r0!, {r4, r5, r6, r7}
100074bc:	46a0      	mov	r8, r4
100074be:	46a9      	mov	r9, r5
100074c0:	46b2      	mov	sl, r6
100074c2:	46bb      	mov	fp, r7
100074c4:	f380 8809 	msr	PSP, r0
100074c8:	3820      	subs	r0, #32
100074ca:	c8f0      	ldmia	r0!, {r4, r5, r6, r7}
100074cc:	4718      	bx	r3
100074ce:	46c0      	nop			; (mov r8, r8)

100074d0 <pxCurrentTCBConst>:
100074d0:	20000ee0 	.word	0x20000ee0

100074d4 <isr_systick>:
100074d4:	b510      	push	{r4, lr}
100074d6:	f7ff ffd3 	bl	10007480 <ulSetInterruptMaskFromISR>
100074da:	0004      	movs	r4, r0
100074dc:	f7ff f82c 	bl	10006538 <xTaskIncrementTick>
100074e0:	2800      	cmp	r0, #0
100074e2:	d003      	beq.n	100074ec <isr_systick+0x18>
100074e4:	2280      	movs	r2, #128	; 0x80
100074e6:	4b03      	ldr	r3, [pc, #12]	; (100074f4 <isr_systick+0x20>)
100074e8:	0552      	lsls	r2, r2, #21
100074ea:	601a      	str	r2, [r3, #0]
100074ec:	0020      	movs	r0, r4
100074ee:	f7ff ffcb 	bl	10007488 <vClearInterruptMaskFromISR>
100074f2:	bd10      	pop	{r4, pc}
100074f4:	e000ed04 	.word	0xe000ed04

100074f8 <vPortSetupTimerInterrupt>:
100074f8:	2200      	movs	r2, #0
100074fa:	4b05      	ldr	r3, [pc, #20]	; (10007510 <vPortSetupTimerInterrupt+0x18>)
100074fc:	4905      	ldr	r1, [pc, #20]	; (10007514 <vPortSetupTimerInterrupt+0x1c>)
100074fe:	601a      	str	r2, [r3, #0]
10007500:	600a      	str	r2, [r1, #0]
10007502:	4a05      	ldr	r2, [pc, #20]	; (10007518 <vPortSetupTimerInterrupt+0x20>)
10007504:	4905      	ldr	r1, [pc, #20]	; (1000751c <vPortSetupTimerInterrupt+0x24>)
10007506:	6011      	str	r1, [r2, #0]
10007508:	2207      	movs	r2, #7
1000750a:	601a      	str	r2, [r3, #0]
1000750c:	4770      	bx	lr
1000750e:	46c0      	nop			; (mov r8, r8)
10007510:	e000e010 	.word	0xe000e010
10007514:	e000e018 	.word	0xe000e018
10007518:	e000e014 	.word	0xe000e014
1000751c:	00144b4f 	.word	0x00144b4f

10007520 <xPortStartScheduler>:
10007520:	22ff      	movs	r2, #255	; 0xff
10007522:	4b0e      	ldr	r3, [pc, #56]	; (1000755c <xPortStartScheduler+0x3c>)
10007524:	0412      	lsls	r2, r2, #16
10007526:	6819      	ldr	r1, [r3, #0]
10007528:	b510      	push	{r4, lr}
1000752a:	430a      	orrs	r2, r1
1000752c:	601a      	str	r2, [r3, #0]
1000752e:	22ff      	movs	r2, #255	; 0xff
10007530:	2400      	movs	r4, #0
10007532:	6819      	ldr	r1, [r3, #0]
10007534:	0612      	lsls	r2, r2, #24
10007536:	430a      	orrs	r2, r1
10007538:	b082      	sub	sp, #8
1000753a:	601a      	str	r2, [r3, #0]
1000753c:	f7ff ffdc 	bl	100074f8 <vPortSetupTimerInterrupt>
10007540:	4b07      	ldr	r3, [pc, #28]	; (10007560 <xPortStartScheduler+0x40>)
10007542:	601c      	str	r4, [r3, #0]
10007544:	f7ff ff4e 	bl	100073e4 <vPortStartFirstTask>
10007548:	f7ff f808 	bl	1000655c <vTaskSwitchContext>
1000754c:	9401      	str	r4, [sp, #4]
1000754e:	b672      	cpsid	i
10007550:	9b01      	ldr	r3, [sp, #4]
10007552:	2b00      	cmp	r3, #0
10007554:	d0fc      	beq.n	10007550 <xPortStartScheduler+0x30>
10007556:	2000      	movs	r0, #0
10007558:	b002      	add	sp, #8
1000755a:	bd10      	pop	{r4, pc}
1000755c:	e000ed20 	.word	0xe000ed20
10007560:	200004d4 	.word	0x200004d4

10007564 <vListInitialise>:
10007564:	0003      	movs	r3, r0
10007566:	2201      	movs	r2, #1
10007568:	3308      	adds	r3, #8
1000756a:	6043      	str	r3, [r0, #4]
1000756c:	60c3      	str	r3, [r0, #12]
1000756e:	6103      	str	r3, [r0, #16]
10007570:	2300      	movs	r3, #0
10007572:	4252      	negs	r2, r2
10007574:	6082      	str	r2, [r0, #8]
10007576:	6003      	str	r3, [r0, #0]
10007578:	4770      	bx	lr
1000757a:	46c0      	nop			; (mov r8, r8)

1000757c <vListInitialiseItem>:
1000757c:	2300      	movs	r3, #0
1000757e:	6103      	str	r3, [r0, #16]
10007580:	4770      	bx	lr
10007582:	46c0      	nop			; (mov r8, r8)

10007584 <vListInsertEnd>:
10007584:	6843      	ldr	r3, [r0, #4]
10007586:	689a      	ldr	r2, [r3, #8]
10007588:	604b      	str	r3, [r1, #4]
1000758a:	608a      	str	r2, [r1, #8]
1000758c:	689a      	ldr	r2, [r3, #8]
1000758e:	6051      	str	r1, [r2, #4]
10007590:	6099      	str	r1, [r3, #8]
10007592:	6803      	ldr	r3, [r0, #0]
10007594:	6108      	str	r0, [r1, #16]
10007596:	3301      	adds	r3, #1
10007598:	6003      	str	r3, [r0, #0]
1000759a:	4770      	bx	lr

1000759c <vListInsert>:
1000759c:	0003      	movs	r3, r0
1000759e:	b530      	push	{r4, r5, lr}
100075a0:	680c      	ldr	r4, [r1, #0]
100075a2:	3308      	adds	r3, #8
100075a4:	1c62      	adds	r2, r4, #1
100075a6:	d00d      	beq.n	100075c4 <vListInsert+0x28>
100075a8:	001a      	movs	r2, r3
100075aa:	685b      	ldr	r3, [r3, #4]
100075ac:	681d      	ldr	r5, [r3, #0]
100075ae:	42a5      	cmp	r5, r4
100075b0:	d9fa      	bls.n	100075a8 <vListInsert+0xc>
100075b2:	604b      	str	r3, [r1, #4]
100075b4:	6099      	str	r1, [r3, #8]
100075b6:	6803      	ldr	r3, [r0, #0]
100075b8:	608a      	str	r2, [r1, #8]
100075ba:	3301      	adds	r3, #1
100075bc:	6051      	str	r1, [r2, #4]
100075be:	6108      	str	r0, [r1, #16]
100075c0:	6003      	str	r3, [r0, #0]
100075c2:	bd30      	pop	{r4, r5, pc}
100075c4:	6902      	ldr	r2, [r0, #16]
100075c6:	6853      	ldr	r3, [r2, #4]
100075c8:	e7f3      	b.n	100075b2 <vListInsert+0x16>
100075ca:	46c0      	nop			; (mov r8, r8)

100075cc <uxListRemove>:
100075cc:	6903      	ldr	r3, [r0, #16]
100075ce:	6841      	ldr	r1, [r0, #4]
100075d0:	6882      	ldr	r2, [r0, #8]
100075d2:	608a      	str	r2, [r1, #8]
100075d4:	6051      	str	r1, [r2, #4]
100075d6:	6859      	ldr	r1, [r3, #4]
100075d8:	4281      	cmp	r1, r0
100075da:	d006      	beq.n	100075ea <uxListRemove+0x1e>
100075dc:	2200      	movs	r2, #0
100075de:	6102      	str	r2, [r0, #16]
100075e0:	681a      	ldr	r2, [r3, #0]
100075e2:	3a01      	subs	r2, #1
100075e4:	601a      	str	r2, [r3, #0]
100075e6:	6818      	ldr	r0, [r3, #0]
100075e8:	4770      	bx	lr
100075ea:	605a      	str	r2, [r3, #4]
100075ec:	e7f6      	b.n	100075dc <uxListRemove+0x10>
100075ee:	46c0      	nop			; (mov r8, r8)

100075f0 <malloc>:
100075f0:	b510      	push	{r4, lr}
100075f2:	4b03      	ldr	r3, [pc, #12]	; (10007600 <malloc+0x10>)
100075f4:	0001      	movs	r1, r0
100075f6:	6818      	ldr	r0, [r3, #0]
100075f8:	f000 f80e 	bl	10007618 <_malloc_r>
100075fc:	bd10      	pop	{r4, pc}
100075fe:	46c0      	nop			; (mov r8, r8)
10007600:	200004d8 	.word	0x200004d8

10007604 <free>:
10007604:	b510      	push	{r4, lr}
10007606:	4b03      	ldr	r3, [pc, #12]	; (10007614 <free+0x10>)
10007608:	0001      	movs	r1, r0
1000760a:	6818      	ldr	r0, [r3, #0]
1000760c:	f000 fb50 	bl	10007cb0 <_free_r>
10007610:	bd10      	pop	{r4, pc}
10007612:	46c0      	nop			; (mov r8, r8)
10007614:	200004d8 	.word	0x200004d8

10007618 <_malloc_r>:
10007618:	b5f0      	push	{r4, r5, r6, r7, lr}
1000761a:	464e      	mov	r6, r9
1000761c:	4645      	mov	r5, r8
1000761e:	46de      	mov	lr, fp
10007620:	4657      	mov	r7, sl
10007622:	b5e0      	push	{r5, r6, r7, lr}
10007624:	000d      	movs	r5, r1
10007626:	350b      	adds	r5, #11
10007628:	0006      	movs	r6, r0
1000762a:	b083      	sub	sp, #12
1000762c:	2d16      	cmp	r5, #22
1000762e:	d822      	bhi.n	10007676 <_malloc_r+0x5e>
10007630:	2910      	cmp	r1, #16
10007632:	d900      	bls.n	10007636 <_malloc_r+0x1e>
10007634:	e0b2      	b.n	1000779c <_malloc_r+0x184>
10007636:	f000 faa9 	bl	10007b8c <__malloc_lock>
1000763a:	2510      	movs	r5, #16
1000763c:	2002      	movs	r0, #2
1000763e:	2318      	movs	r3, #24
10007640:	4fcc      	ldr	r7, [pc, #816]	; (10007974 <_malloc_r+0x35c>)
10007642:	18fb      	adds	r3, r7, r3
10007644:	001a      	movs	r2, r3
10007646:	685c      	ldr	r4, [r3, #4]
10007648:	3a08      	subs	r2, #8
1000764a:	4294      	cmp	r4, r2
1000764c:	d100      	bne.n	10007650 <_malloc_r+0x38>
1000764e:	e0b5      	b.n	100077bc <_malloc_r+0x1a4>
10007650:	2303      	movs	r3, #3
10007652:	6862      	ldr	r2, [r4, #4]
10007654:	439a      	bics	r2, r3
10007656:	0013      	movs	r3, r2
10007658:	68e2      	ldr	r2, [r4, #12]
1000765a:	68a1      	ldr	r1, [r4, #8]
1000765c:	60ca      	str	r2, [r1, #12]
1000765e:	6091      	str	r1, [r2, #8]
10007660:	2201      	movs	r2, #1
10007662:	18e3      	adds	r3, r4, r3
10007664:	6859      	ldr	r1, [r3, #4]
10007666:	0030      	movs	r0, r6
10007668:	430a      	orrs	r2, r1
1000766a:	605a      	str	r2, [r3, #4]
1000766c:	f000 fa90 	bl	10007b90 <__malloc_unlock>
10007670:	0020      	movs	r0, r4
10007672:	3008      	adds	r0, #8
10007674:	e095      	b.n	100077a2 <_malloc_r+0x18a>
10007676:	2307      	movs	r3, #7
10007678:	439d      	bics	r5, r3
1000767a:	d500      	bpl.n	1000767e <_malloc_r+0x66>
1000767c:	e08e      	b.n	1000779c <_malloc_r+0x184>
1000767e:	42a9      	cmp	r1, r5
10007680:	d900      	bls.n	10007684 <_malloc_r+0x6c>
10007682:	e08b      	b.n	1000779c <_malloc_r+0x184>
10007684:	f000 fa82 	bl	10007b8c <__malloc_lock>
10007688:	23fc      	movs	r3, #252	; 0xfc
1000768a:	005b      	lsls	r3, r3, #1
1000768c:	429d      	cmp	r5, r3
1000768e:	d200      	bcs.n	10007692 <_malloc_r+0x7a>
10007690:	e1a1      	b.n	100079d6 <_malloc_r+0x3be>
10007692:	0a68      	lsrs	r0, r5, #9
10007694:	d100      	bne.n	10007698 <_malloc_r+0x80>
10007696:	e08b      	b.n	100077b0 <_malloc_r+0x198>
10007698:	2804      	cmp	r0, #4
1000769a:	d900      	bls.n	1000769e <_malloc_r+0x86>
1000769c:	e174      	b.n	10007988 <_malloc_r+0x370>
1000769e:	2338      	movs	r3, #56	; 0x38
100076a0:	4698      	mov	r8, r3
100076a2:	09a8      	lsrs	r0, r5, #6
100076a4:	4480      	add	r8, r0
100076a6:	3039      	adds	r0, #57	; 0x39
100076a8:	00c1      	lsls	r1, r0, #3
100076aa:	4fb2      	ldr	r7, [pc, #712]	; (10007974 <_malloc_r+0x35c>)
100076ac:	1879      	adds	r1, r7, r1
100076ae:	684c      	ldr	r4, [r1, #4]
100076b0:	3908      	subs	r1, #8
100076b2:	42a1      	cmp	r1, r4
100076b4:	d00e      	beq.n	100076d4 <_malloc_r+0xbc>
100076b6:	2303      	movs	r3, #3
100076b8:	469c      	mov	ip, r3
100076ba:	e004      	b.n	100076c6 <_malloc_r+0xae>
100076bc:	2a00      	cmp	r2, #0
100076be:	dacb      	bge.n	10007658 <_malloc_r+0x40>
100076c0:	68e4      	ldr	r4, [r4, #12]
100076c2:	42a1      	cmp	r1, r4
100076c4:	d006      	beq.n	100076d4 <_malloc_r+0xbc>
100076c6:	4662      	mov	r2, ip
100076c8:	6863      	ldr	r3, [r4, #4]
100076ca:	4393      	bics	r3, r2
100076cc:	1b5a      	subs	r2, r3, r5
100076ce:	2a0f      	cmp	r2, #15
100076d0:	ddf4      	ble.n	100076bc <_malloc_r+0xa4>
100076d2:	4640      	mov	r0, r8
100076d4:	003a      	movs	r2, r7
100076d6:	693c      	ldr	r4, [r7, #16]
100076d8:	3208      	adds	r2, #8
100076da:	4294      	cmp	r4, r2
100076dc:	d100      	bne.n	100076e0 <_malloc_r+0xc8>
100076de:	e078      	b.n	100077d2 <_malloc_r+0x1ba>
100076e0:	2303      	movs	r3, #3
100076e2:	6861      	ldr	r1, [r4, #4]
100076e4:	4399      	bics	r1, r3
100076e6:	4689      	mov	r9, r1
100076e8:	000b      	movs	r3, r1
100076ea:	1b49      	subs	r1, r1, r5
100076ec:	290f      	cmp	r1, #15
100076ee:	dd00      	ble.n	100076f2 <_malloc_r+0xda>
100076f0:	e175      	b.n	100079de <_malloc_r+0x3c6>
100076f2:	617a      	str	r2, [r7, #20]
100076f4:	613a      	str	r2, [r7, #16]
100076f6:	2900      	cmp	r1, #0
100076f8:	dab2      	bge.n	10007660 <_malloc_r+0x48>
100076fa:	2280      	movs	r2, #128	; 0x80
100076fc:	0092      	lsls	r2, r2, #2
100076fe:	4591      	cmp	r9, r2
10007700:	d300      	bcc.n	10007704 <_malloc_r+0xec>
10007702:	e10f      	b.n	10007924 <_malloc_r+0x30c>
10007704:	0959      	lsrs	r1, r3, #5
10007706:	08da      	lsrs	r2, r3, #3
10007708:	2301      	movs	r3, #1
1000770a:	408b      	lsls	r3, r1
1000770c:	00d2      	lsls	r2, r2, #3
1000770e:	6879      	ldr	r1, [r7, #4]
10007710:	19d2      	adds	r2, r2, r7
10007712:	430b      	orrs	r3, r1
10007714:	6891      	ldr	r1, [r2, #8]
10007716:	607b      	str	r3, [r7, #4]
10007718:	60e2      	str	r2, [r4, #12]
1000771a:	60a1      	str	r1, [r4, #8]
1000771c:	6094      	str	r4, [r2, #8]
1000771e:	60cc      	str	r4, [r1, #12]
10007720:	2101      	movs	r1, #1
10007722:	1082      	asrs	r2, r0, #2
10007724:	4091      	lsls	r1, r2
10007726:	4299      	cmp	r1, r3
10007728:	d859      	bhi.n	100077de <_malloc_r+0x1c6>
1000772a:	420b      	tst	r3, r1
1000772c:	d105      	bne.n	1000773a <_malloc_r+0x122>
1000772e:	2203      	movs	r2, #3
10007730:	4390      	bics	r0, r2
10007732:	0049      	lsls	r1, r1, #1
10007734:	3004      	adds	r0, #4
10007736:	420b      	tst	r3, r1
10007738:	d0fb      	beq.n	10007732 <_malloc_r+0x11a>
1000773a:	2303      	movs	r3, #3
1000773c:	4698      	mov	r8, r3
1000773e:	00c3      	lsls	r3, r0, #3
10007740:	4699      	mov	r9, r3
10007742:	44b9      	add	r9, r7
10007744:	46cc      	mov	ip, r9
10007746:	4682      	mov	sl, r0
10007748:	4663      	mov	r3, ip
1000774a:	68dc      	ldr	r4, [r3, #12]
1000774c:	45a4      	cmp	ip, r4
1000774e:	d107      	bne.n	10007760 <_malloc_r+0x148>
10007750:	e126      	b.n	100079a0 <_malloc_r+0x388>
10007752:	2a00      	cmp	r2, #0
10007754:	db00      	blt.n	10007758 <_malloc_r+0x140>
10007756:	e12f      	b.n	100079b8 <_malloc_r+0x3a0>
10007758:	68e4      	ldr	r4, [r4, #12]
1000775a:	45a4      	cmp	ip, r4
1000775c:	d100      	bne.n	10007760 <_malloc_r+0x148>
1000775e:	e11f      	b.n	100079a0 <_malloc_r+0x388>
10007760:	4642      	mov	r2, r8
10007762:	6863      	ldr	r3, [r4, #4]
10007764:	4393      	bics	r3, r2
10007766:	1b5a      	subs	r2, r3, r5
10007768:	2a0f      	cmp	r2, #15
1000776a:	ddf2      	ble.n	10007752 <_malloc_r+0x13a>
1000776c:	2001      	movs	r0, #1
1000776e:	4680      	mov	r8, r0
10007770:	1961      	adds	r1, r4, r5
10007772:	4305      	orrs	r5, r0
10007774:	6065      	str	r5, [r4, #4]
10007776:	68a0      	ldr	r0, [r4, #8]
10007778:	68e5      	ldr	r5, [r4, #12]
1000777a:	3708      	adds	r7, #8
1000777c:	60c5      	str	r5, [r0, #12]
1000777e:	60a8      	str	r0, [r5, #8]
10007780:	4640      	mov	r0, r8
10007782:	4310      	orrs	r0, r2
10007784:	60f9      	str	r1, [r7, #12]
10007786:	60b9      	str	r1, [r7, #8]
10007788:	6048      	str	r0, [r1, #4]
1000778a:	60cf      	str	r7, [r1, #12]
1000778c:	0030      	movs	r0, r6
1000778e:	608f      	str	r7, [r1, #8]
10007790:	50e2      	str	r2, [r4, r3]
10007792:	f000 f9fd 	bl	10007b90 <__malloc_unlock>
10007796:	0020      	movs	r0, r4
10007798:	3008      	adds	r0, #8
1000779a:	e002      	b.n	100077a2 <_malloc_r+0x18a>
1000779c:	230c      	movs	r3, #12
1000779e:	2000      	movs	r0, #0
100077a0:	6033      	str	r3, [r6, #0]
100077a2:	b003      	add	sp, #12
100077a4:	bc3c      	pop	{r2, r3, r4, r5}
100077a6:	4690      	mov	r8, r2
100077a8:	4699      	mov	r9, r3
100077aa:	46a2      	mov	sl, r4
100077ac:	46ab      	mov	fp, r5
100077ae:	bdf0      	pop	{r4, r5, r6, r7, pc}
100077b0:	2180      	movs	r1, #128	; 0x80
100077b2:	233f      	movs	r3, #63	; 0x3f
100077b4:	2040      	movs	r0, #64	; 0x40
100077b6:	4698      	mov	r8, r3
100077b8:	0089      	lsls	r1, r1, #2
100077ba:	e776      	b.n	100076aa <_malloc_r+0x92>
100077bc:	68dc      	ldr	r4, [r3, #12]
100077be:	3002      	adds	r0, #2
100077c0:	42a3      	cmp	r3, r4
100077c2:	d000      	beq.n	100077c6 <_malloc_r+0x1ae>
100077c4:	e744      	b.n	10007650 <_malloc_r+0x38>
100077c6:	003a      	movs	r2, r7
100077c8:	693c      	ldr	r4, [r7, #16]
100077ca:	3208      	adds	r2, #8
100077cc:	4294      	cmp	r4, r2
100077ce:	d000      	beq.n	100077d2 <_malloc_r+0x1ba>
100077d0:	e786      	b.n	100076e0 <_malloc_r+0xc8>
100077d2:	2101      	movs	r1, #1
100077d4:	687b      	ldr	r3, [r7, #4]
100077d6:	1082      	asrs	r2, r0, #2
100077d8:	4091      	lsls	r1, r2
100077da:	4299      	cmp	r1, r3
100077dc:	d9a5      	bls.n	1000772a <_malloc_r+0x112>
100077de:	2303      	movs	r3, #3
100077e0:	68bc      	ldr	r4, [r7, #8]
100077e2:	6862      	ldr	r2, [r4, #4]
100077e4:	439a      	bics	r2, r3
100077e6:	4691      	mov	r9, r2
100077e8:	4295      	cmp	r5, r2
100077ea:	d803      	bhi.n	100077f4 <_malloc_r+0x1dc>
100077ec:	1b53      	subs	r3, r2, r5
100077ee:	2b0f      	cmp	r3, #15
100077f0:	dd00      	ble.n	100077f4 <_malloc_r+0x1dc>
100077f2:	e089      	b.n	10007908 <_malloc_r+0x2f0>
100077f4:	0023      	movs	r3, r4
100077f6:	444b      	add	r3, r9
100077f8:	4a5f      	ldr	r2, [pc, #380]	; (10007978 <_malloc_r+0x360>)
100077fa:	9301      	str	r3, [sp, #4]
100077fc:	4b5f      	ldr	r3, [pc, #380]	; (1000797c <_malloc_r+0x364>)
100077fe:	4693      	mov	fp, r2
10007800:	469a      	mov	sl, r3
10007802:	6812      	ldr	r2, [r2, #0]
10007804:	681b      	ldr	r3, [r3, #0]
10007806:	18eb      	adds	r3, r5, r3
10007808:	3201      	adds	r2, #1
1000780a:	d100      	bne.n	1000780e <_malloc_r+0x1f6>
1000780c:	e136      	b.n	10007a7c <_malloc_r+0x464>
1000780e:	4a5c      	ldr	r2, [pc, #368]	; (10007980 <_malloc_r+0x368>)
10007810:	4694      	mov	ip, r2
10007812:	4463      	add	r3, ip
10007814:	0b1b      	lsrs	r3, r3, #12
10007816:	031b      	lsls	r3, r3, #12
10007818:	9300      	str	r3, [sp, #0]
1000781a:	0030      	movs	r0, r6
1000781c:	9900      	ldr	r1, [sp, #0]
1000781e:	f000 f9b9 	bl	10007b94 <_sbrk_r>
10007822:	0003      	movs	r3, r0
10007824:	4680      	mov	r8, r0
10007826:	3301      	adds	r3, #1
10007828:	d100      	bne.n	1000782c <_malloc_r+0x214>
1000782a:	e0f3      	b.n	10007a14 <_malloc_r+0x3fc>
1000782c:	9b01      	ldr	r3, [sp, #4]
1000782e:	4283      	cmp	r3, r0
10007830:	d900      	bls.n	10007834 <_malloc_r+0x21c>
10007832:	e0ed      	b.n	10007a10 <_malloc_r+0x3f8>
10007834:	4651      	mov	r1, sl
10007836:	6849      	ldr	r1, [r1, #4]
10007838:	9b00      	ldr	r3, [sp, #0]
1000783a:	468c      	mov	ip, r1
1000783c:	4651      	mov	r1, sl
1000783e:	4463      	add	r3, ip
10007840:	604b      	str	r3, [r1, #4]
10007842:	9901      	ldr	r1, [sp, #4]
10007844:	001a      	movs	r2, r3
10007846:	4281      	cmp	r1, r0
10007848:	d100      	bne.n	1000784c <_malloc_r+0x234>
1000784a:	e14c      	b.n	10007ae6 <_malloc_r+0x4ce>
1000784c:	465b      	mov	r3, fp
1000784e:	681b      	ldr	r3, [r3, #0]
10007850:	3301      	adds	r3, #1
10007852:	d100      	bne.n	10007856 <_malloc_r+0x23e>
10007854:	e151      	b.n	10007afa <_malloc_r+0x4e2>
10007856:	4643      	mov	r3, r8
10007858:	9901      	ldr	r1, [sp, #4]
1000785a:	1a5b      	subs	r3, r3, r1
1000785c:	189a      	adds	r2, r3, r2
1000785e:	4653      	mov	r3, sl
10007860:	605a      	str	r2, [r3, #4]
10007862:	2307      	movs	r3, #7
10007864:	4642      	mov	r2, r8
10007866:	4641      	mov	r1, r8
10007868:	401a      	ands	r2, r3
1000786a:	9201      	str	r2, [sp, #4]
1000786c:	4219      	tst	r1, r3
1000786e:	d100      	bne.n	10007872 <_malloc_r+0x25a>
10007870:	e10e      	b.n	10007a90 <_malloc_r+0x478>
10007872:	2308      	movs	r3, #8
10007874:	4698      	mov	r8, r3
10007876:	1a88      	subs	r0, r1, r2
10007878:	4b42      	ldr	r3, [pc, #264]	; (10007984 <_malloc_r+0x36c>)
1000787a:	9900      	ldr	r1, [sp, #0]
1000787c:	4480      	add	r8, r0
1000787e:	4441      	add	r1, r8
10007880:	1a9b      	subs	r3, r3, r2
10007882:	1a5b      	subs	r3, r3, r1
10007884:	051b      	lsls	r3, r3, #20
10007886:	0d1b      	lsrs	r3, r3, #20
10007888:	9100      	str	r1, [sp, #0]
1000788a:	0030      	movs	r0, r6
1000788c:	0019      	movs	r1, r3
1000788e:	469b      	mov	fp, r3
10007890:	f000 f980 	bl	10007b94 <_sbrk_r>
10007894:	1c43      	adds	r3, r0, #1
10007896:	d100      	bne.n	1000789a <_malloc_r+0x282>
10007898:	e14b      	b.n	10007b32 <_malloc_r+0x51a>
1000789a:	4643      	mov	r3, r8
1000789c:	1ac0      	subs	r0, r0, r3
1000789e:	0003      	movs	r3, r0
100078a0:	445b      	add	r3, fp
100078a2:	9300      	str	r3, [sp, #0]
100078a4:	4653      	mov	r3, sl
100078a6:	4652      	mov	r2, sl
100078a8:	685b      	ldr	r3, [r3, #4]
100078aa:	2101      	movs	r1, #1
100078ac:	445b      	add	r3, fp
100078ae:	6053      	str	r3, [r2, #4]
100078b0:	4642      	mov	r2, r8
100078b2:	4640      	mov	r0, r8
100078b4:	60ba      	str	r2, [r7, #8]
100078b6:	9a00      	ldr	r2, [sp, #0]
100078b8:	430a      	orrs	r2, r1
100078ba:	6042      	str	r2, [r0, #4]
100078bc:	42bc      	cmp	r4, r7
100078be:	d100      	bne.n	100078c2 <_malloc_r+0x2aa>
100078c0:	e11f      	b.n	10007b02 <_malloc_r+0x4ea>
100078c2:	464a      	mov	r2, r9
100078c4:	2a0f      	cmp	r2, #15
100078c6:	d800      	bhi.n	100078ca <_malloc_r+0x2b2>
100078c8:	e11d      	b.n	10007b06 <_malloc_r+0x4ee>
100078ca:	2007      	movs	r0, #7
100078cc:	3a0c      	subs	r2, #12
100078ce:	4382      	bics	r2, r0
100078d0:	6860      	ldr	r0, [r4, #4]
100078d2:	4001      	ands	r1, r0
100078d4:	2005      	movs	r0, #5
100078d6:	4311      	orrs	r1, r2
100078d8:	6061      	str	r1, [r4, #4]
100078da:	18a1      	adds	r1, r4, r2
100078dc:	6048      	str	r0, [r1, #4]
100078de:	6088      	str	r0, [r1, #8]
100078e0:	2a0f      	cmp	r2, #15
100078e2:	d900      	bls.n	100078e6 <_malloc_r+0x2ce>
100078e4:	e130      	b.n	10007b48 <_malloc_r+0x530>
100078e6:	4642      	mov	r2, r8
100078e8:	4644      	mov	r4, r8
100078ea:	6852      	ldr	r2, [r2, #4]
100078ec:	4651      	mov	r1, sl
100078ee:	6ac9      	ldr	r1, [r1, #44]	; 0x2c
100078f0:	4299      	cmp	r1, r3
100078f2:	d201      	bcs.n	100078f8 <_malloc_r+0x2e0>
100078f4:	4651      	mov	r1, sl
100078f6:	62cb      	str	r3, [r1, #44]	; 0x2c
100078f8:	4651      	mov	r1, sl
100078fa:	6b09      	ldr	r1, [r1, #48]	; 0x30
100078fc:	4299      	cmp	r1, r3
100078fe:	d300      	bcc.n	10007902 <_malloc_r+0x2ea>
10007900:	e08a      	b.n	10007a18 <_malloc_r+0x400>
10007902:	4651      	mov	r1, sl
10007904:	630b      	str	r3, [r1, #48]	; 0x30
10007906:	e087      	b.n	10007a18 <_malloc_r+0x400>
10007908:	2201      	movs	r2, #1
1000790a:	0029      	movs	r1, r5
1000790c:	4313      	orrs	r3, r2
1000790e:	4311      	orrs	r1, r2
10007910:	1965      	adds	r5, r4, r5
10007912:	6061      	str	r1, [r4, #4]
10007914:	0030      	movs	r0, r6
10007916:	60bd      	str	r5, [r7, #8]
10007918:	606b      	str	r3, [r5, #4]
1000791a:	f000 f939 	bl	10007b90 <__malloc_unlock>
1000791e:	0020      	movs	r0, r4
10007920:	3008      	adds	r0, #8
10007922:	e73e      	b.n	100077a2 <_malloc_r+0x18a>
10007924:	0a5a      	lsrs	r2, r3, #9
10007926:	2a04      	cmp	r2, #4
10007928:	d96c      	bls.n	10007a04 <_malloc_r+0x3ec>
1000792a:	2a14      	cmp	r2, #20
1000792c:	d900      	bls.n	10007930 <_malloc_r+0x318>
1000792e:	e0bf      	b.n	10007ab0 <_malloc_r+0x498>
10007930:	0011      	movs	r1, r2
10007932:	325c      	adds	r2, #92	; 0x5c
10007934:	315b      	adds	r1, #91	; 0x5b
10007936:	00d2      	lsls	r2, r2, #3
10007938:	2308      	movs	r3, #8
1000793a:	425b      	negs	r3, r3
1000793c:	469c      	mov	ip, r3
1000793e:	18ba      	adds	r2, r7, r2
10007940:	4494      	add	ip, r2
10007942:	4663      	mov	r3, ip
10007944:	689a      	ldr	r2, [r3, #8]
10007946:	2303      	movs	r3, #3
10007948:	4698      	mov	r8, r3
1000794a:	4594      	cmp	ip, r2
1000794c:	d100      	bne.n	10007950 <_malloc_r+0x338>
1000794e:	e098      	b.n	10007a82 <_malloc_r+0x46a>
10007950:	4643      	mov	r3, r8
10007952:	6851      	ldr	r1, [r2, #4]
10007954:	4399      	bics	r1, r3
10007956:	4549      	cmp	r1, r9
10007958:	d902      	bls.n	10007960 <_malloc_r+0x348>
1000795a:	6892      	ldr	r2, [r2, #8]
1000795c:	4594      	cmp	ip, r2
1000795e:	d1f7      	bne.n	10007950 <_malloc_r+0x338>
10007960:	68d3      	ldr	r3, [r2, #12]
10007962:	469c      	mov	ip, r3
10007964:	687b      	ldr	r3, [r7, #4]
10007966:	4661      	mov	r1, ip
10007968:	60a2      	str	r2, [r4, #8]
1000796a:	60e1      	str	r1, [r4, #12]
1000796c:	608c      	str	r4, [r1, #8]
1000796e:	60d4      	str	r4, [r2, #12]
10007970:	e6d6      	b.n	10007720 <_malloc_r+0x108>
10007972:	46c0      	nop			; (mov r8, r8)
10007974:	20000910 	.word	0x20000910
10007978:	20000908 	.word	0x20000908
1000797c:	20000f9c 	.word	0x20000f9c
10007980:	0000100f 	.word	0x0000100f
10007984:	00001008 	.word	0x00001008
10007988:	2814      	cmp	r0, #20
1000798a:	d952      	bls.n	10007a32 <_malloc_r+0x41a>
1000798c:	2854      	cmp	r0, #84	; 0x54
1000798e:	d900      	bls.n	10007992 <_malloc_r+0x37a>
10007990:	e096      	b.n	10007ac0 <_malloc_r+0x4a8>
10007992:	236e      	movs	r3, #110	; 0x6e
10007994:	4698      	mov	r8, r3
10007996:	0b28      	lsrs	r0, r5, #12
10007998:	4480      	add	r8, r0
1000799a:	306f      	adds	r0, #111	; 0x6f
1000799c:	00c1      	lsls	r1, r0, #3
1000799e:	e684      	b.n	100076aa <_malloc_r+0x92>
100079a0:	2308      	movs	r3, #8
100079a2:	469b      	mov	fp, r3
100079a4:	3b07      	subs	r3, #7
100079a6:	44dc      	add	ip, fp
100079a8:	469b      	mov	fp, r3
100079aa:	44da      	add	sl, fp
100079ac:	4643      	mov	r3, r8
100079ae:	4652      	mov	r2, sl
100079b0:	4213      	tst	r3, r2
100079b2:	d000      	beq.n	100079b6 <_malloc_r+0x39e>
100079b4:	e6c8      	b.n	10007748 <_malloc_r+0x130>
100079b6:	e04c      	b.n	10007a52 <_malloc_r+0x43a>
100079b8:	2201      	movs	r2, #1
100079ba:	18e3      	adds	r3, r4, r3
100079bc:	6859      	ldr	r1, [r3, #4]
100079be:	0030      	movs	r0, r6
100079c0:	430a      	orrs	r2, r1
100079c2:	605a      	str	r2, [r3, #4]
100079c4:	68e3      	ldr	r3, [r4, #12]
100079c6:	68a2      	ldr	r2, [r4, #8]
100079c8:	60d3      	str	r3, [r2, #12]
100079ca:	609a      	str	r2, [r3, #8]
100079cc:	f000 f8e0 	bl	10007b90 <__malloc_unlock>
100079d0:	0020      	movs	r0, r4
100079d2:	3008      	adds	r0, #8
100079d4:	e6e5      	b.n	100077a2 <_malloc_r+0x18a>
100079d6:	002b      	movs	r3, r5
100079d8:	08e8      	lsrs	r0, r5, #3
100079da:	3308      	adds	r3, #8
100079dc:	e630      	b.n	10007640 <_malloc_r+0x28>
100079de:	2301      	movs	r3, #1
100079e0:	1960      	adds	r0, r4, r5
100079e2:	431d      	orrs	r5, r3
100079e4:	6065      	str	r5, [r4, #4]
100079e6:	6178      	str	r0, [r7, #20]
100079e8:	6138      	str	r0, [r7, #16]
100079ea:	60c2      	str	r2, [r0, #12]
100079ec:	6082      	str	r2, [r0, #8]
100079ee:	001a      	movs	r2, r3
100079f0:	464b      	mov	r3, r9
100079f2:	430a      	orrs	r2, r1
100079f4:	6042      	str	r2, [r0, #4]
100079f6:	0030      	movs	r0, r6
100079f8:	50e1      	str	r1, [r4, r3]
100079fa:	f000 f8c9 	bl	10007b90 <__malloc_unlock>
100079fe:	0020      	movs	r0, r4
10007a00:	3008      	adds	r0, #8
10007a02:	e6ce      	b.n	100077a2 <_malloc_r+0x18a>
10007a04:	099a      	lsrs	r2, r3, #6
10007a06:	0011      	movs	r1, r2
10007a08:	3239      	adds	r2, #57	; 0x39
10007a0a:	3138      	adds	r1, #56	; 0x38
10007a0c:	00d2      	lsls	r2, r2, #3
10007a0e:	e793      	b.n	10007938 <_malloc_r+0x320>
10007a10:	42bc      	cmp	r4, r7
10007a12:	d060      	beq.n	10007ad6 <_malloc_r+0x4be>
10007a14:	68bc      	ldr	r4, [r7, #8]
10007a16:	6862      	ldr	r2, [r4, #4]
10007a18:	2303      	movs	r3, #3
10007a1a:	439a      	bics	r2, r3
10007a1c:	1b53      	subs	r3, r2, r5
10007a1e:	4295      	cmp	r5, r2
10007a20:	d802      	bhi.n	10007a28 <_malloc_r+0x410>
10007a22:	2b0f      	cmp	r3, #15
10007a24:	dd00      	ble.n	10007a28 <_malloc_r+0x410>
10007a26:	e76f      	b.n	10007908 <_malloc_r+0x2f0>
10007a28:	0030      	movs	r0, r6
10007a2a:	f000 f8b1 	bl	10007b90 <__malloc_unlock>
10007a2e:	2000      	movs	r0, #0
10007a30:	e6b7      	b.n	100077a2 <_malloc_r+0x18a>
10007a32:	235b      	movs	r3, #91	; 0x5b
10007a34:	4698      	mov	r8, r3
10007a36:	4480      	add	r8, r0
10007a38:	305c      	adds	r0, #92	; 0x5c
10007a3a:	00c1      	lsls	r1, r0, #3
10007a3c:	e635      	b.n	100076aa <_malloc_r+0x92>
10007a3e:	2308      	movs	r3, #8
10007a40:	425b      	negs	r3, r3
10007a42:	469c      	mov	ip, r3
10007a44:	44e1      	add	r9, ip
10007a46:	464b      	mov	r3, r9
10007a48:	689b      	ldr	r3, [r3, #8]
10007a4a:	3801      	subs	r0, #1
10007a4c:	454b      	cmp	r3, r9
10007a4e:	d000      	beq.n	10007a52 <_malloc_r+0x43a>
10007a50:	e097      	b.n	10007b82 <_malloc_r+0x56a>
10007a52:	4643      	mov	r3, r8
10007a54:	4203      	tst	r3, r0
10007a56:	d1f2      	bne.n	10007a3e <_malloc_r+0x426>
10007a58:	687b      	ldr	r3, [r7, #4]
10007a5a:	438b      	bics	r3, r1
10007a5c:	607b      	str	r3, [r7, #4]
10007a5e:	0049      	lsls	r1, r1, #1
10007a60:	4299      	cmp	r1, r3
10007a62:	d900      	bls.n	10007a66 <_malloc_r+0x44e>
10007a64:	e6bb      	b.n	100077de <_malloc_r+0x1c6>
10007a66:	2900      	cmp	r1, #0
10007a68:	d104      	bne.n	10007a74 <_malloc_r+0x45c>
10007a6a:	e6b8      	b.n	100077de <_malloc_r+0x1c6>
10007a6c:	2204      	movs	r2, #4
10007a6e:	4694      	mov	ip, r2
10007a70:	0049      	lsls	r1, r1, #1
10007a72:	44e2      	add	sl, ip
10007a74:	420b      	tst	r3, r1
10007a76:	d0f9      	beq.n	10007a6c <_malloc_r+0x454>
10007a78:	4650      	mov	r0, sl
10007a7a:	e660      	b.n	1000773e <_malloc_r+0x126>
10007a7c:	3310      	adds	r3, #16
10007a7e:	9300      	str	r3, [sp, #0]
10007a80:	e6cb      	b.n	1000781a <_malloc_r+0x202>
10007a82:	1089      	asrs	r1, r1, #2
10007a84:	3b02      	subs	r3, #2
10007a86:	408b      	lsls	r3, r1
10007a88:	6879      	ldr	r1, [r7, #4]
10007a8a:	430b      	orrs	r3, r1
10007a8c:	607b      	str	r3, [r7, #4]
10007a8e:	e76a      	b.n	10007966 <_malloc_r+0x34e>
10007a90:	9b00      	ldr	r3, [sp, #0]
10007a92:	0030      	movs	r0, r6
10007a94:	4443      	add	r3, r8
10007a96:	425b      	negs	r3, r3
10007a98:	051b      	lsls	r3, r3, #20
10007a9a:	0d1b      	lsrs	r3, r3, #20
10007a9c:	0019      	movs	r1, r3
10007a9e:	469b      	mov	fp, r3
10007aa0:	f000 f878 	bl	10007b94 <_sbrk_r>
10007aa4:	1c43      	adds	r3, r0, #1
10007aa6:	d000      	beq.n	10007aaa <_malloc_r+0x492>
10007aa8:	e6f7      	b.n	1000789a <_malloc_r+0x282>
10007aaa:	2300      	movs	r3, #0
10007aac:	469b      	mov	fp, r3
10007aae:	e6f9      	b.n	100078a4 <_malloc_r+0x28c>
10007ab0:	2a54      	cmp	r2, #84	; 0x54
10007ab2:	d82a      	bhi.n	10007b0a <_malloc_r+0x4f2>
10007ab4:	0b1a      	lsrs	r2, r3, #12
10007ab6:	0011      	movs	r1, r2
10007ab8:	326f      	adds	r2, #111	; 0x6f
10007aba:	316e      	adds	r1, #110	; 0x6e
10007abc:	00d2      	lsls	r2, r2, #3
10007abe:	e73b      	b.n	10007938 <_malloc_r+0x320>
10007ac0:	23aa      	movs	r3, #170	; 0xaa
10007ac2:	005b      	lsls	r3, r3, #1
10007ac4:	4298      	cmp	r0, r3
10007ac6:	d82a      	bhi.n	10007b1e <_malloc_r+0x506>
10007ac8:	3bdd      	subs	r3, #221	; 0xdd
10007aca:	4698      	mov	r8, r3
10007acc:	0be8      	lsrs	r0, r5, #15
10007ace:	4480      	add	r8, r0
10007ad0:	3078      	adds	r0, #120	; 0x78
10007ad2:	00c1      	lsls	r1, r0, #3
10007ad4:	e5e9      	b.n	100076aa <_malloc_r+0x92>
10007ad6:	4653      	mov	r3, sl
10007ad8:	685b      	ldr	r3, [r3, #4]
10007ada:	9a00      	ldr	r2, [sp, #0]
10007adc:	469c      	mov	ip, r3
10007ade:	4653      	mov	r3, sl
10007ae0:	4462      	add	r2, ip
10007ae2:	605a      	str	r2, [r3, #4]
10007ae4:	e6b2      	b.n	1000784c <_malloc_r+0x234>
10007ae6:	0509      	lsls	r1, r1, #20
10007ae8:	d000      	beq.n	10007aec <_malloc_r+0x4d4>
10007aea:	e6af      	b.n	1000784c <_malloc_r+0x234>
10007aec:	9a00      	ldr	r2, [sp, #0]
10007aee:	68bc      	ldr	r4, [r7, #8]
10007af0:	444a      	add	r2, r9
10007af2:	3101      	adds	r1, #1
10007af4:	430a      	orrs	r2, r1
10007af6:	6062      	str	r2, [r4, #4]
10007af8:	e6f8      	b.n	100078ec <_malloc_r+0x2d4>
10007afa:	465b      	mov	r3, fp
10007afc:	4642      	mov	r2, r8
10007afe:	601a      	str	r2, [r3, #0]
10007b00:	e6af      	b.n	10007862 <_malloc_r+0x24a>
10007b02:	4644      	mov	r4, r8
10007b04:	e6f2      	b.n	100078ec <_malloc_r+0x2d4>
10007b06:	6041      	str	r1, [r0, #4]
10007b08:	e78e      	b.n	10007a28 <_malloc_r+0x410>
10007b0a:	21aa      	movs	r1, #170	; 0xaa
10007b0c:	0049      	lsls	r1, r1, #1
10007b0e:	428a      	cmp	r2, r1
10007b10:	d824      	bhi.n	10007b5c <_malloc_r+0x544>
10007b12:	0bda      	lsrs	r2, r3, #15
10007b14:	0011      	movs	r1, r2
10007b16:	3278      	adds	r2, #120	; 0x78
10007b18:	3177      	adds	r1, #119	; 0x77
10007b1a:	00d2      	lsls	r2, r2, #3
10007b1c:	e70c      	b.n	10007938 <_malloc_r+0x320>
10007b1e:	4b1a      	ldr	r3, [pc, #104]	; (10007b88 <_malloc_r+0x570>)
10007b20:	4298      	cmp	r0, r3
10007b22:	d824      	bhi.n	10007b6e <_malloc_r+0x556>
10007b24:	237c      	movs	r3, #124	; 0x7c
10007b26:	4698      	mov	r8, r3
10007b28:	0ca8      	lsrs	r0, r5, #18
10007b2a:	4480      	add	r8, r0
10007b2c:	307d      	adds	r0, #125	; 0x7d
10007b2e:	00c1      	lsls	r1, r0, #3
10007b30:	e5bb      	b.n	100076aa <_malloc_r+0x92>
10007b32:	9a00      	ldr	r2, [sp, #0]
10007b34:	9b01      	ldr	r3, [sp, #4]
10007b36:	4694      	mov	ip, r2
10007b38:	4642      	mov	r2, r8
10007b3a:	3b08      	subs	r3, #8
10007b3c:	4463      	add	r3, ip
10007b3e:	1a9b      	subs	r3, r3, r2
10007b40:	9300      	str	r3, [sp, #0]
10007b42:	2300      	movs	r3, #0
10007b44:	469b      	mov	fp, r3
10007b46:	e6ad      	b.n	100078a4 <_malloc_r+0x28c>
10007b48:	0021      	movs	r1, r4
10007b4a:	0030      	movs	r0, r6
10007b4c:	3108      	adds	r1, #8
10007b4e:	f000 f8af 	bl	10007cb0 <_free_r>
10007b52:	4653      	mov	r3, sl
10007b54:	68bc      	ldr	r4, [r7, #8]
10007b56:	685b      	ldr	r3, [r3, #4]
10007b58:	6862      	ldr	r2, [r4, #4]
10007b5a:	e6c7      	b.n	100078ec <_malloc_r+0x2d4>
10007b5c:	490a      	ldr	r1, [pc, #40]	; (10007b88 <_malloc_r+0x570>)
10007b5e:	428a      	cmp	r2, r1
10007b60:	d80b      	bhi.n	10007b7a <_malloc_r+0x562>
10007b62:	0c9a      	lsrs	r2, r3, #18
10007b64:	0011      	movs	r1, r2
10007b66:	327d      	adds	r2, #125	; 0x7d
10007b68:	317c      	adds	r1, #124	; 0x7c
10007b6a:	00d2      	lsls	r2, r2, #3
10007b6c:	e6e4      	b.n	10007938 <_malloc_r+0x320>
10007b6e:	21fe      	movs	r1, #254	; 0xfe
10007b70:	237e      	movs	r3, #126	; 0x7e
10007b72:	207f      	movs	r0, #127	; 0x7f
10007b74:	4698      	mov	r8, r3
10007b76:	0089      	lsls	r1, r1, #2
10007b78:	e597      	b.n	100076aa <_malloc_r+0x92>
10007b7a:	22fe      	movs	r2, #254	; 0xfe
10007b7c:	217e      	movs	r1, #126	; 0x7e
10007b7e:	0092      	lsls	r2, r2, #2
10007b80:	e6da      	b.n	10007938 <_malloc_r+0x320>
10007b82:	687b      	ldr	r3, [r7, #4]
10007b84:	e76b      	b.n	10007a5e <_malloc_r+0x446>
10007b86:	46c0      	nop			; (mov r8, r8)
10007b88:	00000554 	.word	0x00000554

10007b8c <__malloc_lock>:
10007b8c:	4770      	bx	lr
10007b8e:	46c0      	nop			; (mov r8, r8)

10007b90 <__malloc_unlock>:
10007b90:	4770      	bx	lr
10007b92:	46c0      	nop			; (mov r8, r8)

10007b94 <_sbrk_r>:
10007b94:	2300      	movs	r3, #0
10007b96:	b570      	push	{r4, r5, r6, lr}
10007b98:	4d06      	ldr	r5, [pc, #24]	; (10007bb4 <_sbrk_r+0x20>)
10007b9a:	0004      	movs	r4, r0
10007b9c:	0008      	movs	r0, r1
10007b9e:	602b      	str	r3, [r5, #0]
10007ba0:	f7f9 fc56 	bl	10001450 <_sbrk>
10007ba4:	1c43      	adds	r3, r0, #1
10007ba6:	d000      	beq.n	10007baa <_sbrk_r+0x16>
10007ba8:	bd70      	pop	{r4, r5, r6, pc}
10007baa:	682b      	ldr	r3, [r5, #0]
10007bac:	2b00      	cmp	r3, #0
10007bae:	d0fb      	beq.n	10007ba8 <_sbrk_r+0x14>
10007bb0:	6023      	str	r3, [r4, #0]
10007bb2:	e7f9      	b.n	10007ba8 <_sbrk_r+0x14>
10007bb4:	20001c6c 	.word	0x20001c6c

10007bb8 <strlen>:
10007bb8:	b510      	push	{r4, lr}
10007bba:	0783      	lsls	r3, r0, #30
10007bbc:	d00a      	beq.n	10007bd4 <strlen+0x1c>
10007bbe:	0003      	movs	r3, r0
10007bc0:	2103      	movs	r1, #3
10007bc2:	e002      	b.n	10007bca <strlen+0x12>
10007bc4:	3301      	adds	r3, #1
10007bc6:	420b      	tst	r3, r1
10007bc8:	d005      	beq.n	10007bd6 <strlen+0x1e>
10007bca:	781a      	ldrb	r2, [r3, #0]
10007bcc:	2a00      	cmp	r2, #0
10007bce:	d1f9      	bne.n	10007bc4 <strlen+0xc>
10007bd0:	1a18      	subs	r0, r3, r0
10007bd2:	bd10      	pop	{r4, pc}
10007bd4:	0003      	movs	r3, r0
10007bd6:	6819      	ldr	r1, [r3, #0]
10007bd8:	4a0c      	ldr	r2, [pc, #48]	; (10007c0c <strlen+0x54>)
10007bda:	4c0d      	ldr	r4, [pc, #52]	; (10007c10 <strlen+0x58>)
10007bdc:	188a      	adds	r2, r1, r2
10007bde:	438a      	bics	r2, r1
10007be0:	4222      	tst	r2, r4
10007be2:	d10f      	bne.n	10007c04 <strlen+0x4c>
10007be4:	6859      	ldr	r1, [r3, #4]
10007be6:	4a09      	ldr	r2, [pc, #36]	; (10007c0c <strlen+0x54>)
10007be8:	3304      	adds	r3, #4
10007bea:	188a      	adds	r2, r1, r2
10007bec:	438a      	bics	r2, r1
10007bee:	4222      	tst	r2, r4
10007bf0:	d108      	bne.n	10007c04 <strlen+0x4c>
10007bf2:	6859      	ldr	r1, [r3, #4]
10007bf4:	4a05      	ldr	r2, [pc, #20]	; (10007c0c <strlen+0x54>)
10007bf6:	3304      	adds	r3, #4
10007bf8:	188a      	adds	r2, r1, r2
10007bfa:	438a      	bics	r2, r1
10007bfc:	4222      	tst	r2, r4
10007bfe:	d0f1      	beq.n	10007be4 <strlen+0x2c>
10007c00:	e000      	b.n	10007c04 <strlen+0x4c>
10007c02:	3301      	adds	r3, #1
10007c04:	781a      	ldrb	r2, [r3, #0]
10007c06:	2a00      	cmp	r2, #0
10007c08:	d1fb      	bne.n	10007c02 <strlen+0x4a>
10007c0a:	e7e1      	b.n	10007bd0 <strlen+0x18>
10007c0c:	fefefeff 	.word	0xfefefeff
10007c10:	80808080 	.word	0x80808080

10007c14 <_malloc_trim_r>:
10007c14:	b5f8      	push	{r3, r4, r5, r6, r7, lr}
10007c16:	000c      	movs	r4, r1
10007c18:	0005      	movs	r5, r0
10007c1a:	f7ff ffb7 	bl	10007b8c <__malloc_lock>
10007c1e:	4f20      	ldr	r7, [pc, #128]	; (10007ca0 <_malloc_trim_r+0x8c>)
10007c20:	68bb      	ldr	r3, [r7, #8]
10007c22:	685e      	ldr	r6, [r3, #4]
10007c24:	2303      	movs	r3, #3
10007c26:	439e      	bics	r6, r3
10007c28:	4b1e      	ldr	r3, [pc, #120]	; (10007ca4 <_malloc_trim_r+0x90>)
10007c2a:	1b34      	subs	r4, r6, r4
10007c2c:	469c      	mov	ip, r3
10007c2e:	4464      	add	r4, ip
10007c30:	0b24      	lsrs	r4, r4, #12
10007c32:	3c01      	subs	r4, #1
10007c34:	3311      	adds	r3, #17
10007c36:	0324      	lsls	r4, r4, #12
10007c38:	429c      	cmp	r4, r3
10007c3a:	db07      	blt.n	10007c4c <_malloc_trim_r+0x38>
10007c3c:	2100      	movs	r1, #0
10007c3e:	0028      	movs	r0, r5
10007c40:	f7ff ffa8 	bl	10007b94 <_sbrk_r>
10007c44:	68bb      	ldr	r3, [r7, #8]
10007c46:	199b      	adds	r3, r3, r6
10007c48:	4298      	cmp	r0, r3
10007c4a:	d004      	beq.n	10007c56 <_malloc_trim_r+0x42>
10007c4c:	0028      	movs	r0, r5
10007c4e:	f7ff ff9f 	bl	10007b90 <__malloc_unlock>
10007c52:	2000      	movs	r0, #0
10007c54:	bdf8      	pop	{r3, r4, r5, r6, r7, pc}
10007c56:	0028      	movs	r0, r5
10007c58:	4261      	negs	r1, r4
10007c5a:	f7ff ff9b 	bl	10007b94 <_sbrk_r>
10007c5e:	1c43      	adds	r3, r0, #1
10007c60:	d00d      	beq.n	10007c7e <_malloc_trim_r+0x6a>
10007c62:	2201      	movs	r2, #1
10007c64:	68bb      	ldr	r3, [r7, #8]
10007c66:	1b36      	subs	r6, r6, r4
10007c68:	4316      	orrs	r6, r2
10007c6a:	605e      	str	r6, [r3, #4]
10007c6c:	4b0e      	ldr	r3, [pc, #56]	; (10007ca8 <_malloc_trim_r+0x94>)
10007c6e:	0028      	movs	r0, r5
10007c70:	681a      	ldr	r2, [r3, #0]
10007c72:	1b14      	subs	r4, r2, r4
10007c74:	601c      	str	r4, [r3, #0]
10007c76:	f7ff ff8b 	bl	10007b90 <__malloc_unlock>
10007c7a:	2001      	movs	r0, #1
10007c7c:	e7ea      	b.n	10007c54 <_malloc_trim_r+0x40>
10007c7e:	2100      	movs	r1, #0
10007c80:	0028      	movs	r0, r5
10007c82:	f7ff ff87 	bl	10007b94 <_sbrk_r>
10007c86:	68ba      	ldr	r2, [r7, #8]
10007c88:	1a83      	subs	r3, r0, r2
10007c8a:	2b0f      	cmp	r3, #15
10007c8c:	ddde      	ble.n	10007c4c <_malloc_trim_r+0x38>
10007c8e:	4907      	ldr	r1, [pc, #28]	; (10007cac <_malloc_trim_r+0x98>)
10007c90:	6809      	ldr	r1, [r1, #0]
10007c92:	1a40      	subs	r0, r0, r1
10007c94:	4904      	ldr	r1, [pc, #16]	; (10007ca8 <_malloc_trim_r+0x94>)
10007c96:	6008      	str	r0, [r1, #0]
10007c98:	2101      	movs	r1, #1
10007c9a:	430b      	orrs	r3, r1
10007c9c:	6053      	str	r3, [r2, #4]
10007c9e:	e7d5      	b.n	10007c4c <_malloc_trim_r+0x38>
10007ca0:	20000910 	.word	0x20000910
10007ca4:	00000fef 	.word	0x00000fef
10007ca8:	20000fa0 	.word	0x20000fa0
10007cac:	20000908 	.word	0x20000908

10007cb0 <_free_r>:
10007cb0:	b5f0      	push	{r4, r5, r6, r7, lr}
10007cb2:	46c6      	mov	lr, r8
10007cb4:	0005      	movs	r5, r0
10007cb6:	000c      	movs	r4, r1
10007cb8:	b500      	push	{lr}
10007cba:	2900      	cmp	r1, #0
10007cbc:	d04f      	beq.n	10007d5e <_free_r+0xae>
10007cbe:	f7ff ff65 	bl	10007b8c <__malloc_lock>
10007cc2:	0021      	movs	r1, r4
10007cc4:	3908      	subs	r1, #8
10007cc6:	684c      	ldr	r4, [r1, #4]
10007cc8:	2601      	movs	r6, #1
10007cca:	0022      	movs	r2, r4
10007ccc:	2003      	movs	r0, #3
10007cce:	43b2      	bics	r2, r6
10007cd0:	188f      	adds	r7, r1, r2
10007cd2:	687b      	ldr	r3, [r7, #4]
10007cd4:	4383      	bics	r3, r0
10007cd6:	4862      	ldr	r0, [pc, #392]	; (10007e60 <_free_r+0x1b0>)
10007cd8:	4698      	mov	r8, r3
10007cda:	6883      	ldr	r3, [r0, #8]
10007cdc:	42bb      	cmp	r3, r7
10007cde:	d06b      	beq.n	10007db8 <_free_r+0x108>
10007ce0:	4643      	mov	r3, r8
10007ce2:	607b      	str	r3, [r7, #4]
10007ce4:	4226      	tst	r6, r4
10007ce6:	d11e      	bne.n	10007d26 <_free_r+0x76>
10007ce8:	2308      	movs	r3, #8
10007cea:	469c      	mov	ip, r3
10007cec:	680c      	ldr	r4, [r1, #0]
10007cee:	4484      	add	ip, r0
10007cf0:	1b09      	subs	r1, r1, r4
10007cf2:	1912      	adds	r2, r2, r4
10007cf4:	688c      	ldr	r4, [r1, #8]
10007cf6:	4564      	cmp	r4, ip
10007cf8:	d04f      	beq.n	10007d9a <_free_r+0xea>
10007cfa:	68cb      	ldr	r3, [r1, #12]
10007cfc:	60e3      	str	r3, [r4, #12]
10007cfe:	609c      	str	r4, [r3, #8]
10007d00:	4643      	mov	r3, r8
10007d02:	18fc      	adds	r4, r7, r3
10007d04:	6864      	ldr	r4, [r4, #4]
10007d06:	4234      	tst	r4, r6
10007d08:	d111      	bne.n	10007d2e <_free_r+0x7e>
10007d0a:	68bb      	ldr	r3, [r7, #8]
10007d0c:	4c55      	ldr	r4, [pc, #340]	; (10007e64 <_free_r+0x1b4>)
10007d0e:	4442      	add	r2, r8
10007d10:	42a3      	cmp	r3, r4
10007d12:	d100      	bne.n	10007d16 <_free_r+0x66>
10007d14:	e07f      	b.n	10007e16 <_free_r+0x166>
10007d16:	68fc      	ldr	r4, [r7, #12]
10007d18:	60dc      	str	r4, [r3, #12]
10007d1a:	60a3      	str	r3, [r4, #8]
10007d1c:	2301      	movs	r3, #1
10007d1e:	4313      	orrs	r3, r2
10007d20:	604b      	str	r3, [r1, #4]
10007d22:	508a      	str	r2, [r1, r2]
10007d24:	e006      	b.n	10007d34 <_free_r+0x84>
10007d26:	18fc      	adds	r4, r7, r3
10007d28:	6864      	ldr	r4, [r4, #4]
10007d2a:	4234      	tst	r4, r6
10007d2c:	d0ed      	beq.n	10007d0a <_free_r+0x5a>
10007d2e:	4316      	orrs	r6, r2
10007d30:	604e      	str	r6, [r1, #4]
10007d32:	603a      	str	r2, [r7, #0]
10007d34:	2380      	movs	r3, #128	; 0x80
10007d36:	009b      	lsls	r3, r3, #2
10007d38:	429a      	cmp	r2, r3
10007d3a:	d213      	bcs.n	10007d64 <_free_r+0xb4>
10007d3c:	0954      	lsrs	r4, r2, #5
10007d3e:	08d3      	lsrs	r3, r2, #3
10007d40:	2201      	movs	r2, #1
10007d42:	40a2      	lsls	r2, r4
10007d44:	6844      	ldr	r4, [r0, #4]
10007d46:	00db      	lsls	r3, r3, #3
10007d48:	4322      	orrs	r2, r4
10007d4a:	6042      	str	r2, [r0, #4]
10007d4c:	1818      	adds	r0, r3, r0
10007d4e:	6883      	ldr	r3, [r0, #8]
10007d50:	60c8      	str	r0, [r1, #12]
10007d52:	608b      	str	r3, [r1, #8]
10007d54:	6081      	str	r1, [r0, #8]
10007d56:	60d9      	str	r1, [r3, #12]
10007d58:	0028      	movs	r0, r5
10007d5a:	f7ff ff19 	bl	10007b90 <__malloc_unlock>
10007d5e:	bc04      	pop	{r2}
10007d60:	4690      	mov	r8, r2
10007d62:	bdf0      	pop	{r4, r5, r6, r7, pc}
10007d64:	0a53      	lsrs	r3, r2, #9
10007d66:	2b04      	cmp	r3, #4
10007d68:	d83f      	bhi.n	10007dea <_free_r+0x13a>
10007d6a:	0994      	lsrs	r4, r2, #6
10007d6c:	0026      	movs	r6, r4
10007d6e:	3439      	adds	r4, #57	; 0x39
10007d70:	3638      	adds	r6, #56	; 0x38
10007d72:	00e4      	lsls	r4, r4, #3
10007d74:	1904      	adds	r4, r0, r4
10007d76:	6823      	ldr	r3, [r4, #0]
10007d78:	3c08      	subs	r4, #8
10007d7a:	2703      	movs	r7, #3
10007d7c:	429c      	cmp	r4, r3
10007d7e:	d043      	beq.n	10007e08 <_free_r+0x158>
10007d80:	6858      	ldr	r0, [r3, #4]
10007d82:	43b8      	bics	r0, r7
10007d84:	4290      	cmp	r0, r2
10007d86:	d902      	bls.n	10007d8e <_free_r+0xde>
10007d88:	689b      	ldr	r3, [r3, #8]
10007d8a:	429c      	cmp	r4, r3
10007d8c:	d1f8      	bne.n	10007d80 <_free_r+0xd0>
10007d8e:	68dc      	ldr	r4, [r3, #12]
10007d90:	60cc      	str	r4, [r1, #12]
10007d92:	608b      	str	r3, [r1, #8]
10007d94:	60a1      	str	r1, [r4, #8]
10007d96:	60d9      	str	r1, [r3, #12]
10007d98:	e7de      	b.n	10007d58 <_free_r+0xa8>
10007d9a:	4643      	mov	r3, r8
10007d9c:	18f8      	adds	r0, r7, r3
10007d9e:	6840      	ldr	r0, [r0, #4]
10007da0:	4230      	tst	r0, r6
10007da2:	d158      	bne.n	10007e56 <_free_r+0x1a6>
10007da4:	0013      	movs	r3, r2
10007da6:	68b8      	ldr	r0, [r7, #8]
10007da8:	68fa      	ldr	r2, [r7, #12]
10007daa:	4443      	add	r3, r8
10007dac:	431e      	orrs	r6, r3
10007dae:	60c2      	str	r2, [r0, #12]
10007db0:	6090      	str	r0, [r2, #8]
10007db2:	604e      	str	r6, [r1, #4]
10007db4:	50cb      	str	r3, [r1, r3]
10007db6:	e7cf      	b.n	10007d58 <_free_r+0xa8>
10007db8:	0013      	movs	r3, r2
10007dba:	4443      	add	r3, r8
10007dbc:	4226      	tst	r6, r4
10007dbe:	d106      	bne.n	10007dce <_free_r+0x11e>
10007dc0:	680a      	ldr	r2, [r1, #0]
10007dc2:	1a89      	subs	r1, r1, r2
10007dc4:	688c      	ldr	r4, [r1, #8]
10007dc6:	189b      	adds	r3, r3, r2
10007dc8:	68ca      	ldr	r2, [r1, #12]
10007dca:	60e2      	str	r2, [r4, #12]
10007dcc:	6094      	str	r4, [r2, #8]
10007dce:	2201      	movs	r2, #1
10007dd0:	431a      	orrs	r2, r3
10007dd2:	604a      	str	r2, [r1, #4]
10007dd4:	4a24      	ldr	r2, [pc, #144]	; (10007e68 <_free_r+0x1b8>)
10007dd6:	6081      	str	r1, [r0, #8]
10007dd8:	6812      	ldr	r2, [r2, #0]
10007dda:	429a      	cmp	r2, r3
10007ddc:	d8bc      	bhi.n	10007d58 <_free_r+0xa8>
10007dde:	4b23      	ldr	r3, [pc, #140]	; (10007e6c <_free_r+0x1bc>)
10007de0:	0028      	movs	r0, r5
10007de2:	6819      	ldr	r1, [r3, #0]
10007de4:	f7ff ff16 	bl	10007c14 <_malloc_trim_r>
10007de8:	e7b6      	b.n	10007d58 <_free_r+0xa8>
10007dea:	2b14      	cmp	r3, #20
10007dec:	d907      	bls.n	10007dfe <_free_r+0x14e>
10007dee:	2b54      	cmp	r3, #84	; 0x54
10007df0:	d81a      	bhi.n	10007e28 <_free_r+0x178>
10007df2:	0b14      	lsrs	r4, r2, #12
10007df4:	0026      	movs	r6, r4
10007df6:	346f      	adds	r4, #111	; 0x6f
10007df8:	366e      	adds	r6, #110	; 0x6e
10007dfa:	00e4      	lsls	r4, r4, #3
10007dfc:	e7ba      	b.n	10007d74 <_free_r+0xc4>
10007dfe:	001e      	movs	r6, r3
10007e00:	335c      	adds	r3, #92	; 0x5c
10007e02:	365b      	adds	r6, #91	; 0x5b
10007e04:	00dc      	lsls	r4, r3, #3
10007e06:	e7b5      	b.n	10007d74 <_free_r+0xc4>
10007e08:	2201      	movs	r2, #1
10007e0a:	10b6      	asrs	r6, r6, #2
10007e0c:	40b2      	lsls	r2, r6
10007e0e:	6846      	ldr	r6, [r0, #4]
10007e10:	4332      	orrs	r2, r6
10007e12:	6042      	str	r2, [r0, #4]
10007e14:	e7bc      	b.n	10007d90 <_free_r+0xe0>
10007e16:	60d9      	str	r1, [r3, #12]
10007e18:	6099      	str	r1, [r3, #8]
10007e1a:	60cb      	str	r3, [r1, #12]
10007e1c:	608b      	str	r3, [r1, #8]
10007e1e:	2301      	movs	r3, #1
10007e20:	4313      	orrs	r3, r2
10007e22:	604b      	str	r3, [r1, #4]
10007e24:	508a      	str	r2, [r1, r2]
10007e26:	e797      	b.n	10007d58 <_free_r+0xa8>
10007e28:	24aa      	movs	r4, #170	; 0xaa
10007e2a:	0064      	lsls	r4, r4, #1
10007e2c:	42a3      	cmp	r3, r4
10007e2e:	d805      	bhi.n	10007e3c <_free_r+0x18c>
10007e30:	0bd4      	lsrs	r4, r2, #15
10007e32:	0026      	movs	r6, r4
10007e34:	3478      	adds	r4, #120	; 0x78
10007e36:	3677      	adds	r6, #119	; 0x77
10007e38:	00e4      	lsls	r4, r4, #3
10007e3a:	e79b      	b.n	10007d74 <_free_r+0xc4>
10007e3c:	4c0c      	ldr	r4, [pc, #48]	; (10007e70 <_free_r+0x1c0>)
10007e3e:	42a3      	cmp	r3, r4
10007e40:	d805      	bhi.n	10007e4e <_free_r+0x19e>
10007e42:	0c94      	lsrs	r4, r2, #18
10007e44:	0026      	movs	r6, r4
10007e46:	347d      	adds	r4, #125	; 0x7d
10007e48:	367c      	adds	r6, #124	; 0x7c
10007e4a:	00e4      	lsls	r4, r4, #3
10007e4c:	e792      	b.n	10007d74 <_free_r+0xc4>
10007e4e:	24fe      	movs	r4, #254	; 0xfe
10007e50:	267e      	movs	r6, #126	; 0x7e
10007e52:	00a4      	lsls	r4, r4, #2
10007e54:	e78e      	b.n	10007d74 <_free_r+0xc4>
10007e56:	0033      	movs	r3, r6
10007e58:	4313      	orrs	r3, r2
10007e5a:	604b      	str	r3, [r1, #4]
10007e5c:	603a      	str	r2, [r7, #0]
10007e5e:	e77b      	b.n	10007d58 <_free_r+0xa8>
10007e60:	20000910 	.word	0x20000910
10007e64:	20000918 	.word	0x20000918
10007e68:	2000090c 	.word	0x2000090c
10007e6c:	20000f9c 	.word	0x20000f9c
10007e70:	00000554 	.word	0x00000554

10007e74 <_fini>:
10007e74:	b5f8      	push	{r3, r4, r5, r6, r7, lr}
10007e76:	46c0      	nop			; (mov r8, r8)

10007e78 <__flash_do_cmd_veneer>:
10007e78:	b401      	push	{r0}
10007e7a:	4802      	ldr	r0, [pc, #8]	; (10007e84 <__flash_do_cmd_veneer+0xc>)
10007e7c:	4684      	mov	ip, r0
10007e7e:	bc01      	pop	{r0}
10007e80:	4760      	bx	ip
10007e82:	bf00      	nop
10007e84:	20000301 	.word	0x20000301

10007e88 <__mutex_exit_veneer>:
10007e88:	b401      	push	{r0}
10007e8a:	4802      	ldr	r0, [pc, #8]	; (10007e94 <__mutex_exit_veneer+0xc>)
10007e8c:	4684      	mov	ip, r0
10007e8e:	bc01      	pop	{r0}
10007e90:	4760      	bx	ip
10007e92:	bf00      	nop
10007e94:	2000022d 	.word	0x2000022d

10007e98 <____aeabi_idiv0_veneer>:
10007e98:	b401      	push	{r0}
10007e9a:	4802      	ldr	r0, [pc, #8]	; (10007ea4 <____aeabi_idiv0_veneer+0xc>)
10007e9c:	4684      	mov	ip, r0
10007e9e:	bc01      	pop	{r0}
10007ea0:	4760      	bx	ip
10007ea2:	bf00      	nop
10007ea4:	200003a9 	.word	0x200003a9

10007ea8 <__mutex_try_enter_veneer>:
10007ea8:	b401      	push	{r0}
10007eaa:	4802      	ldr	r0, [pc, #8]	; (10007eb4 <__mutex_try_enter_veneer+0xc>)
10007eac:	4684      	mov	ip, r0
10007eae:	bc01      	pop	{r0}
10007eb0:	4760      	bx	ip
10007eb2:	bf00      	nop
10007eb4:	20000121 	.word	0x20000121

10007eb8 <__mutex_enter_timeout_ms_veneer>:
10007eb8:	b401      	push	{r0}
10007eba:	4802      	ldr	r0, [pc, #8]	; (10007ec4 <__mutex_enter_timeout_ms_veneer+0xc>)
10007ebc:	4684      	mov	ip, r0
10007ebe:	bc01      	pop	{r0}
10007ec0:	4760      	bx	ip
10007ec2:	bf00      	nop
10007ec4:	2000017d 	.word	0x2000017d

10007ec8 <__mutex_enter_blocking_veneer>:
10007ec8:	b401      	push	{r0}
10007eca:	4802      	ldr	r0, [pc, #8]	; (10007ed4 <__mutex_enter_blocking_veneer+0xc>)
10007ecc:	4684      	mov	ip, r0
10007ece:	bc01      	pop	{r0}
10007ed0:	4760      	bx	ip
10007ed2:	bf00      	nop
10007ed4:	200000c1 	.word	0x200000c1

Disassembly of section .data:

200000c0 <mutex_enter_blocking>:
200000c0:	b570      	push	{r4, r5, r6, lr}
200000c2:	24d0      	movs	r4, #208	; 0xd0
200000c4:	2500      	movs	r5, #0
200000c6:	0624      	lsls	r4, r4, #24
200000c8:	6802      	ldr	r2, [r0, #0]
200000ca:	f3ef 8110 	mrs	r1, PRIMASK
200000ce:	b672      	cpsid	i
200000d0:	6813      	ldr	r3, [r2, #0]
200000d2:	2b00      	cmp	r3, #0
200000d4:	d0fc      	beq.n	200000d0 <mutex_enter_blocking+0x10>
200000d6:	f3bf 8f5f 	dmb	sy
200000da:	2304      	movs	r3, #4
200000dc:	2200      	movs	r2, #0
200000de:	56c3      	ldrsb	r3, [r0, r3]
200000e0:	56a2      	ldrsb	r2, [r4, r2]
200000e2:	1c5e      	adds	r6, r3, #1
200000e4:	d016      	beq.n	20000114 <mutex_enter_blocking+0x54>
200000e6:	4293      	cmp	r3, r2
200000e8:	d10c      	bne.n	20000104 <mutex_enter_blocking+0x44>
200000ea:	7943      	ldrb	r3, [r0, #5]
200000ec:	2b01      	cmp	r3, #1
200000ee:	d909      	bls.n	20000104 <mutex_enter_blocking+0x44>
200000f0:	3b01      	subs	r3, #1
200000f2:	7143      	strb	r3, [r0, #5]
200000f4:	6803      	ldr	r3, [r0, #0]
200000f6:	f3bf 8f5f 	dmb	sy
200000fa:	2200      	movs	r2, #0
200000fc:	601a      	str	r2, [r3, #0]
200000fe:	f381 8810 	msr	PRIMASK, r1
20000102:	bd70      	pop	{r4, r5, r6, pc}
20000104:	6803      	ldr	r3, [r0, #0]
20000106:	f3bf 8f5f 	dmb	sy
2000010a:	601d      	str	r5, [r3, #0]
2000010c:	f381 8810 	msr	PRIMASK, r1
20000110:	bf20      	wfe
20000112:	e7d9      	b.n	200000c8 <mutex_enter_blocking+0x8>
20000114:	7943      	ldrb	r3, [r0, #5]
20000116:	7102      	strb	r2, [r0, #4]
20000118:	2b00      	cmp	r3, #0
2000011a:	d0eb      	beq.n	200000f4 <mutex_enter_blocking+0x34>
2000011c:	e7e8      	b.n	200000f0 <mutex_enter_blocking+0x30>
2000011e:	46c0      	nop			; (mov r8, r8)

20000120 <mutex_try_enter>:
20000120:	0003      	movs	r3, r0
20000122:	b530      	push	{r4, r5, lr}
20000124:	6800      	ldr	r0, [r0, #0]
20000126:	f3ef 8410 	mrs	r4, PRIMASK
2000012a:	b672      	cpsid	i
2000012c:	6802      	ldr	r2, [r0, #0]
2000012e:	2a00      	cmp	r2, #0
20000130:	d0fc      	beq.n	2000012c <mutex_try_enter+0xc>
20000132:	f3bf 8f5f 	dmb	sy
20000136:	22d0      	movs	r2, #208	; 0xd0
20000138:	2000      	movs	r0, #0
2000013a:	0612      	lsls	r2, r2, #24
2000013c:	5610      	ldrsb	r0, [r2, r0]
2000013e:	2204      	movs	r2, #4
20000140:	569a      	ldrsb	r2, [r3, r2]
20000142:	1c55      	adds	r5, r2, #1
20000144:	d014      	beq.n	20000170 <mutex_try_enter+0x50>
20000146:	4282      	cmp	r2, r0
20000148:	d00b      	beq.n	20000162 <mutex_try_enter+0x42>
2000014a:	2900      	cmp	r1, #0
2000014c:	d013      	beq.n	20000176 <mutex_try_enter+0x56>
2000014e:	2000      	movs	r0, #0
20000150:	600a      	str	r2, [r1, #0]
20000152:	681b      	ldr	r3, [r3, #0]
20000154:	f3bf 8f5f 	dmb	sy
20000158:	2200      	movs	r2, #0
2000015a:	601a      	str	r2, [r3, #0]
2000015c:	f384 8810 	msr	PRIMASK, r4
20000160:	bd30      	pop	{r4, r5, pc}
20000162:	7958      	ldrb	r0, [r3, #5]
20000164:	2801      	cmp	r0, #1
20000166:	d9f0      	bls.n	2000014a <mutex_try_enter+0x2a>
20000168:	3801      	subs	r0, #1
2000016a:	7158      	strb	r0, [r3, #5]
2000016c:	2001      	movs	r0, #1
2000016e:	e7f0      	b.n	20000152 <mutex_try_enter+0x32>
20000170:	7118      	strb	r0, [r3, #4]
20000172:	2001      	movs	r0, #1
20000174:	e7ed      	b.n	20000152 <mutex_try_enter+0x32>
20000176:	2000      	movs	r0, #0
20000178:	e7eb      	b.n	20000152 <mutex_try_enter+0x32>
2000017a:	46c0      	nop			; (mov r8, r8)

2000017c <mutex_enter_timeout_ms>:
2000017c:	b5f0      	push	{r4, r5, r6, r7, lr}
2000017e:	46c6      	mov	lr, r8
20000180:	b500      	push	{lr}
20000182:	000c      	movs	r4, r1
20000184:	4680      	mov	r8, r0
20000186:	f000 f913 	bl	200003b0 <__time_us_64_veneer>
2000018a:	22fa      	movs	r2, #250	; 0xfa
2000018c:	0006      	movs	r6, r0
2000018e:	000f      	movs	r7, r1
20000190:	0020      	movs	r0, r4
20000192:	2300      	movs	r3, #0
20000194:	2100      	movs	r1, #0
20000196:	0092      	lsls	r2, r2, #2
20000198:	f000 f922 	bl	200003e0 <____wrap___aeabi_lmul_veneer>
2000019c:	1980      	adds	r0, r0, r6
2000019e:	4179      	adcs	r1, r7
200001a0:	0004      	movs	r4, r0
200001a2:	000d      	movs	r5, r1
200001a4:	428f      	cmp	r7, r1
200001a6:	d82d      	bhi.n	20000204 <mutex_enter_timeout_ms+0x88>
200001a8:	d02a      	beq.n	20000200 <mutex_enter_timeout_ms+0x84>
200001aa:	27d0      	movs	r7, #208	; 0xd0
200001ac:	2600      	movs	r6, #0
200001ae:	063f      	lsls	r7, r7, #24
200001b0:	4643      	mov	r3, r8
200001b2:	681b      	ldr	r3, [r3, #0]
200001b4:	f3ef 8210 	mrs	r2, PRIMASK
200001b8:	b672      	cpsid	i
200001ba:	6819      	ldr	r1, [r3, #0]
200001bc:	2900      	cmp	r1, #0
200001be:	d0fc      	beq.n	200001ba <mutex_enter_timeout_ms+0x3e>
200001c0:	f3bf 8f5f 	dmb	sy
200001c4:	4643      	mov	r3, r8
200001c6:	2100      	movs	r1, #0
200001c8:	791b      	ldrb	r3, [r3, #4]
200001ca:	5679      	ldrsb	r1, [r7, r1]
200001cc:	b25b      	sxtb	r3, r3
200001ce:	1c58      	adds	r0, r3, #1
200001d0:	d01c      	beq.n	2000020c <mutex_enter_timeout_ms+0x90>
200001d2:	4299      	cmp	r1, r3
200001d4:	d103      	bne.n	200001de <mutex_enter_timeout_ms+0x62>
200001d6:	4643      	mov	r3, r8
200001d8:	795b      	ldrb	r3, [r3, #5]
200001da:	2b01      	cmp	r3, #1
200001dc:	d822      	bhi.n	20000224 <mutex_enter_timeout_ms+0xa8>
200001de:	4643      	mov	r3, r8
200001e0:	681b      	ldr	r3, [r3, #0]
200001e2:	f3bf 8f5f 	dmb	sy
200001e6:	601e      	str	r6, [r3, #0]
200001e8:	f382 8810 	msr	PRIMASK, r2
200001ec:	0020      	movs	r0, r4
200001ee:	0029      	movs	r1, r5
200001f0:	f000 f8e6 	bl	200003c0 <__best_effort_wfe_or_timeout_veneer>
200001f4:	2800      	cmp	r0, #0
200001f6:	d0db      	beq.n	200001b0 <mutex_enter_timeout_ms+0x34>
200001f8:	2000      	movs	r0, #0
200001fa:	bc04      	pop	{r2}
200001fc:	4690      	mov	r8, r2
200001fe:	bdf0      	pop	{r4, r5, r6, r7, pc}
20000200:	4286      	cmp	r6, r0
20000202:	d9d2      	bls.n	200001aa <mutex_enter_timeout_ms+0x2e>
20000204:	2401      	movs	r4, #1
20000206:	4264      	negs	r4, r4
20000208:	17e5      	asrs	r5, r4, #31
2000020a:	e7ce      	b.n	200001aa <mutex_enter_timeout_ms+0x2e>
2000020c:	4643      	mov	r3, r8
2000020e:	7119      	strb	r1, [r3, #4]
20000210:	4643      	mov	r3, r8
20000212:	681b      	ldr	r3, [r3, #0]
20000214:	f3bf 8f5f 	dmb	sy
20000218:	2100      	movs	r1, #0
2000021a:	6019      	str	r1, [r3, #0]
2000021c:	f382 8810 	msr	PRIMASK, r2
20000220:	2001      	movs	r0, #1
20000222:	e7ea      	b.n	200001fa <mutex_enter_timeout_ms+0x7e>
20000224:	4641      	mov	r1, r8
20000226:	3b01      	subs	r3, #1
20000228:	714b      	strb	r3, [r1, #5]
2000022a:	e7f1      	b.n	20000210 <mutex_enter_timeout_ms+0x94>

2000022c <mutex_exit>:
2000022c:	6802      	ldr	r2, [r0, #0]
2000022e:	f3ef 8110 	mrs	r1, PRIMASK
20000232:	b672      	cpsid	i
20000234:	6813      	ldr	r3, [r2, #0]
20000236:	2b00      	cmp	r3, #0
20000238:	d0fc      	beq.n	20000234 <mutex_exit+0x8>
2000023a:	f3bf 8f5f 	dmb	sy
2000023e:	7943      	ldrb	r3, [r0, #5]
20000240:	2b00      	cmp	r3, #0
20000242:	d00c      	beq.n	2000025e <mutex_exit+0x32>
20000244:	3301      	adds	r3, #1
20000246:	b2db      	uxtb	r3, r3
20000248:	7143      	strb	r3, [r0, #5]
2000024a:	2bff      	cmp	r3, #255	; 0xff
2000024c:	d011      	beq.n	20000272 <mutex_exit+0x46>
2000024e:	6803      	ldr	r3, [r0, #0]
20000250:	f3bf 8f5f 	dmb	sy
20000254:	2200      	movs	r2, #0
20000256:	601a      	str	r2, [r3, #0]
20000258:	f381 8810 	msr	PRIMASK, r1
2000025c:	4770      	bx	lr
2000025e:	22ff      	movs	r2, #255	; 0xff
20000260:	7102      	strb	r2, [r0, #4]
20000262:	6802      	ldr	r2, [r0, #0]
20000264:	f3bf 8f5f 	dmb	sy
20000268:	6013      	str	r3, [r2, #0]
2000026a:	f381 8810 	msr	PRIMASK, r1
2000026e:	bf40      	sev
20000270:	e7f4      	b.n	2000025c <mutex_exit+0x30>
20000272:	7103      	strb	r3, [r0, #4]
20000274:	6803      	ldr	r3, [r0, #0]
20000276:	f3bf 8f5f 	dmb	sy
2000027a:	2200      	movs	r2, #0
2000027c:	601a      	str	r2, [r3, #0]
2000027e:	f381 8810 	msr	PRIMASK, r1
20000282:	bf40      	sev
20000284:	e7ea      	b.n	2000025c <mutex_exit+0x30>
20000286:	46c0      	nop			; (mov r8, r8)

20000288 <flash_init_boot2_copyout>:
20000288:	4808      	ldr	r0, [pc, #32]	; (200002ac <flash_init_boot2_copyout+0x24>)
2000028a:	b510      	push	{r4, lr}
2000028c:	7803      	ldrb	r3, [r0, #0]
2000028e:	2b00      	cmp	r3, #0
20000290:	d10a      	bne.n	200002a8 <flash_init_boot2_copyout+0x20>
20000292:	2380      	movs	r3, #128	; 0x80
20000294:	4906      	ldr	r1, [pc, #24]	; (200002b0 <flash_init_boot2_copyout+0x28>)
20000296:	4a07      	ldr	r2, [pc, #28]	; (200002b4 <flash_init_boot2_copyout+0x2c>)
20000298:	055b      	lsls	r3, r3, #21
2000029a:	681c      	ldr	r4, [r3, #0]
2000029c:	50cc      	str	r4, [r1, r3]
2000029e:	3304      	adds	r3, #4
200002a0:	4293      	cmp	r3, r2
200002a2:	d1fa      	bne.n	2000029a <flash_init_boot2_copyout+0x12>
200002a4:	2301      	movs	r3, #1
200002a6:	7003      	strb	r3, [r0, #0]
200002a8:	bd10      	pop	{r4, pc}
200002aa:	46c0      	nop			; (mov r8, r8)
200002ac:	20001952 	.word	0x20001952
200002b0:	10001358 	.word	0x10001358
200002b4:	10000100 	.word	0x10000100

200002b8 <flash_enable_xip_via_boot2>:
200002b8:	b510      	push	{r4, lr}
200002ba:	4b02      	ldr	r3, [pc, #8]	; (200002c4 <flash_enable_xip_via_boot2+0xc>)
200002bc:	3301      	adds	r3, #1
200002be:	4798      	blx	r3
200002c0:	bd10      	pop	{r4, pc}
200002c2:	46c0      	nop			; (mov r8, r8)
200002c4:	20001358 	.word	0x20001358

200002c8 <flash_cs_force.constprop.0>:
200002c8:	4b05      	ldr	r3, [pc, #20]	; (200002e0 <flash_cs_force.constprop.0+0x18>)
200002ca:	681a      	ldr	r2, [r3, #0]
200002cc:	2380      	movs	r3, #128	; 0x80
200002ce:	009b      	lsls	r3, r3, #2
200002d0:	4053      	eors	r3, r2
200002d2:	22c0      	movs	r2, #192	; 0xc0
200002d4:	0092      	lsls	r2, r2, #2
200002d6:	4013      	ands	r3, r2
200002d8:	4a02      	ldr	r2, [pc, #8]	; (200002e4 <flash_cs_force.constprop.0+0x1c>)
200002da:	6013      	str	r3, [r2, #0]
200002dc:	4770      	bx	lr
200002de:	46c0      	nop			; (mov r8, r8)
200002e0:	4001800c 	.word	0x4001800c
200002e4:	4001900c 	.word	0x4001900c

200002e8 <flash_cs_force.constprop.1>:
200002e8:	4b03      	ldr	r3, [pc, #12]	; (200002f8 <flash_cs_force.constprop.1+0x10>)
200002ea:	681a      	ldr	r2, [r3, #0]
200002ec:	23c0      	movs	r3, #192	; 0xc0
200002ee:	009b      	lsls	r3, r3, #2
200002f0:	4393      	bics	r3, r2
200002f2:	4a02      	ldr	r2, [pc, #8]	; (200002fc <flash_cs_force.constprop.1+0x14>)
200002f4:	6013      	str	r3, [r2, #0]
200002f6:	4770      	bx	lr
200002f8:	4001800c 	.word	0x4001800c
200002fc:	4001900c 	.word	0x4001900c

20000300 <flash_do_cmd>:
20000300:	b5f8      	push	{r3, r4, r5, r6, r7, lr}
20000302:	46ce      	mov	lr, r9
20000304:	4647      	mov	r7, r8
20000306:	4681      	mov	r9, r0
20000308:	b580      	push	{r7, lr}
2000030a:	4824      	ldr	r0, [pc, #144]	; (2000039c <flash_do_cmd+0x9c>)
2000030c:	000e      	movs	r6, r1
2000030e:	0014      	movs	r4, r2
20000310:	f000 f85e 	bl	200003d0 <__rom_func_lookup_veneer>
20000314:	0007      	movs	r7, r0
20000316:	4822      	ldr	r0, [pc, #136]	; (200003a0 <flash_do_cmd+0xa0>)
20000318:	f000 f85a 	bl	200003d0 <__rom_func_lookup_veneer>
2000031c:	0005      	movs	r5, r0
2000031e:	4821      	ldr	r0, [pc, #132]	; (200003a4 <flash_do_cmd+0xa4>)
20000320:	f000 f856 	bl	200003d0 <__rom_func_lookup_veneer>
20000324:	4680      	mov	r8, r0
20000326:	f7ff ffaf 	bl	20000288 <flash_init_boot2_copyout>
2000032a:	47b8      	blx	r7
2000032c:	47a8      	blx	r5
2000032e:	f7ff ffcb 	bl	200002c8 <flash_cs_force.constprop.0>
20000332:	2c00      	cmp	r4, #0
20000334:	d01b      	beq.n	2000036e <flash_do_cmd+0x6e>
20000336:	21c0      	movs	r1, #192	; 0xc0
20000338:	0022      	movs	r2, r4
2000033a:	2708      	movs	r7, #8
2000033c:	2002      	movs	r0, #2
2000033e:	0549      	lsls	r1, r1, #21
20000340:	003d      	movs	r5, r7
20000342:	6a8b      	ldr	r3, [r1, #40]	; 0x28
20000344:	401d      	ands	r5, r3
20000346:	4218      	tst	r0, r3
20000348:	d00b      	beq.n	20000362 <flash_do_cmd+0x62>
2000034a:	2c00      	cmp	r4, #0
2000034c:	d009      	beq.n	20000362 <flash_do_cmd+0x62>
2000034e:	1b13      	subs	r3, r2, r4
20000350:	2b0d      	cmp	r3, #13
20000352:	d81e      	bhi.n	20000392 <flash_do_cmd+0x92>
20000354:	464b      	mov	r3, r9
20000356:	781b      	ldrb	r3, [r3, #0]
20000358:	3c01      	subs	r4, #1
2000035a:	660b      	str	r3, [r1, #96]	; 0x60
2000035c:	2301      	movs	r3, #1
2000035e:	469c      	mov	ip, r3
20000360:	44e1      	add	r9, ip
20000362:	0023      	movs	r3, r4
20000364:	2d00      	cmp	r5, #0
20000366:	d10b      	bne.n	20000380 <flash_do_cmd+0x80>
20000368:	4313      	orrs	r3, r2
2000036a:	2b00      	cmp	r3, #0
2000036c:	d1e8      	bne.n	20000340 <flash_do_cmd+0x40>
2000036e:	f7ff ffbb 	bl	200002e8 <flash_cs_force.constprop.1>
20000372:	47c0      	blx	r8
20000374:	f7ff ffa0 	bl	200002b8 <flash_enable_xip_via_boot2>
20000378:	bc0c      	pop	{r2, r3}
2000037a:	4690      	mov	r8, r2
2000037c:	4699      	mov	r9, r3
2000037e:	bdf8      	pop	{r3, r4, r5, r6, r7, pc}
20000380:	2a00      	cmp	r2, #0
20000382:	d0f2      	beq.n	2000036a <flash_do_cmd+0x6a>
20000384:	6e0b      	ldr	r3, [r1, #96]	; 0x60
20000386:	3a01      	subs	r2, #1
20000388:	7033      	strb	r3, [r6, #0]
2000038a:	0013      	movs	r3, r2
2000038c:	3601      	adds	r6, #1
2000038e:	4323      	orrs	r3, r4
20000390:	e7eb      	b.n	2000036a <flash_do_cmd+0x6a>
20000392:	2d00      	cmp	r5, #0
20000394:	d0d4      	beq.n	20000340 <flash_do_cmd+0x40>
20000396:	2a00      	cmp	r2, #0
20000398:	d0d2      	beq.n	20000340 <flash_do_cmd+0x40>
2000039a:	e7f3      	b.n	20000384 <flash_do_cmd+0x84>
2000039c:	00004649 	.word	0x00004649
200003a0:	00005845 	.word	0x00005845
200003a4:	00004346 	.word	0x00004346

200003a8 <__aeabi_idiv0>:
200003a8:	4770      	bx	lr
200003aa:	46c0      	nop			; (mov r8, r8)
200003ac:	0000      	movs	r0, r0
	...

200003b0 <__time_us_64_veneer>:
200003b0:	b401      	push	{r0}
200003b2:	4802      	ldr	r0, [pc, #8]	; (200003bc <__time_us_64_veneer+0xc>)
200003b4:	4684      	mov	ip, r0
200003b6:	bc01      	pop	{r0}
200003b8:	4760      	bx	ip
200003ba:	bf00      	nop
200003bc:	10000d49 	.word	0x10000d49

200003c0 <__best_effort_wfe_or_timeout_veneer>:
200003c0:	b401      	push	{r0}
200003c2:	4802      	ldr	r0, [pc, #8]	; (200003cc <__best_effort_wfe_or_timeout_veneer+0xc>)
200003c4:	4684      	mov	ip, r0
200003c6:	bc01      	pop	{r0}
200003c8:	4760      	bx	ip
200003ca:	bf00      	nop
200003cc:	10000ba5 	.word	0x10000ba5

200003d0 <__rom_func_lookup_veneer>:
200003d0:	b401      	push	{r0}
200003d2:	4802      	ldr	r0, [pc, #8]	; (200003dc <__rom_func_lookup_veneer+0xc>)
200003d4:	4684      	mov	ip, r0
200003d6:	bc01      	pop	{r0}
200003d8:	4760      	bx	ip
200003da:	bf00      	nop
200003dc:	10001c85 	.word	0x10001c85

200003e0 <____wrap___aeabi_lmul_veneer>:
200003e0:	b401      	push	{r0}
200003e2:	4802      	ldr	r0, [pc, #8]	; (200003ec <____wrap___aeabi_lmul_veneer+0xc>)
200003e4:	4684      	mov	ip, r0
200003e6:	bc01      	pop	{r0}
200003e8:	4760      	bx	ip
200003ea:	bf00      	nop
200003ec:	10001e05 	.word	0x10001e05

200003f0 <striped_spin_lock_num>:
200003f0:	00000010                                ....

200003f4 <default_alarm_pool>:
200003f4:	2000040c 00000000 20000d38 20001484     ... ....8.. ... 
	...

2000040c <default_alarm_pool_heap>:
2000040c:	20001494 00000000 00000000 00000010     ... ............

2000041c <irq_handler_chain_slots>:
2000041c:	00000000 	.word	0x00000000
20000420:	00010000 	.word	0x00010000
	...
2000042c:	00020000 	.word	0x00020000
	...
20000438:	00030000 	.word	0x00030000
	...
20000444:	00ff0000 	.word	0x00ff0000
20000448:	00000000 	.word	0x00000000

2000044c <irq_handler_chain_first_slot>:
2000044c:	b500      	push	{lr}
2000044e:	6848      	ldr	r0, [r1, #4]
20000450:	3101      	adds	r1, #1
20000452:	468e      	mov	lr, r1
20000454:	4700      	bx	r0

20000456 <irq_handler_chain_remove_tail>:
20000456:	4670      	mov	r0, lr
20000458:	3809      	subs	r0, #9
2000045a:	4901      	ldr	r1, [pc, #4]	; (20000460 <irq_handler_chain_remove_tail+0xa>)
2000045c:	4788      	blx	r1
2000045e:	bd00      	pop	{pc}
20000460:	100019d1 	.word	0x100019d1
	...

20000470 <aeabi_bits_funcs>:
20000470:	00003350 	.word	0x00003350
20000474:	0000334c 	.word	0x0000334c
20000478:	00003354 	.word	0x00003354
2000047c:	00003352 	.word	0x00003352

20000480 <aeabi_bits_funcs_end>:
20000480:	0000534d 	.word	0x0000534d
20000484:	0000434d 	.word	0x0000434d
20000488:	00003453 	.word	0x00003453
2000048c:	00003443 	.word	0x00003443

20000490 <stdio_usb>:
20000490:	10002285 00000000 1000221d 00000000     ."......."......
200004a0:	00000100                                ....

200004a4 <ep_dir_string>:
200004a4:	10008184 10008188                       ........

200004ac <_usbd_qdef>:
200004ac:	20001b5c 000c0010 ffe00000 0000001f     \.. ............
	...

200004d0 <uxTopUsedPriority>:
200004d0:	00000004                                ....

200004d4 <uxCriticalNesting>:
200004d4:	aaaaaaaa                                ....

200004d8 <_impure_ptr>:
200004d8:	200004e0 00000000                       ... ....

200004e0 <impure_data>:
200004e0:	00000000 200007cc 20000834 2000089c     ....... 4.. ... 
	...
20000588:	00000001 00000000 abcd330e e66d1234     .........3..4.m.
20000598:	0005deec 0000000b 00000000 00000000     ................
	...

20000908 <__malloc_sbrk_base>:
20000908:	ffffffff                                ....

2000090c <__malloc_trim_threshold>:
2000090c:	00020000                                ....

20000910 <__malloc_av_>:
	...
20000918:	20000910 20000910 20000918 20000918     ... ... ... ... 
20000928:	20000920 20000920 20000928 20000928      ..  .. (.. (.. 
20000938:	20000930 20000930 20000938 20000938     0.. 0.. 8.. 8.. 
20000948:	20000940 20000940 20000948 20000948     @.. @.. H.. H.. 
20000958:	20000950 20000950 20000958 20000958     P.. P.. X.. X.. 
20000968:	20000960 20000960 20000968 20000968     `.. `.. h.. h.. 
20000978:	20000970 20000970 20000978 20000978     p.. p.. x.. x.. 
20000988:	20000980 20000980 20000988 20000988     ... ... ... ... 
20000998:	20000990 20000990 20000998 20000998     ... ... ... ... 
200009a8:	200009a0 200009a0 200009a8 200009a8     ... ... ... ... 
200009b8:	200009b0 200009b0 200009b8 200009b8     ... ... ... ... 
200009c8:	200009c0 200009c0 200009c8 200009c8     ... ... ... ... 
200009d8:	200009d0 200009d0 200009d8 200009d8     ... ... ... ... 
200009e8:	200009e0 200009e0 200009e8 200009e8     ... ... ... ... 
200009f8:	200009f0 200009f0 200009f8 200009f8     ... ... ... ... 
20000a08:	20000a00 20000a00 20000a08 20000a08     ... ... ... ... 
20000a18:	20000a10 20000a10 20000a18 20000a18     ... ... ... ... 
20000a28:	20000a20 20000a20 20000a28 20000a28      ..  .. (.. (.. 
20000a38:	20000a30 20000a30 20000a38 20000a38     0.. 0.. 8.. 8.. 
20000a48:	20000a40 20000a40 20000a48 20000a48     @.. @.. H.. H.. 
20000a58:	20000a50 20000a50 20000a58 20000a58     P.. P.. X.. X.. 
20000a68:	20000a60 20000a60 20000a68 20000a68     `.. `.. h.. h.. 
20000a78:	20000a70 20000a70 20000a78 20000a78     p.. p.. x.. x.. 
20000a88:	20000a80 20000a80 20000a88 20000a88     ... ... ... ... 
20000a98:	20000a90 20000a90 20000a98 20000a98     ... ... ... ... 
20000aa8:	20000aa0 20000aa0 20000aa8 20000aa8     ... ... ... ... 
20000ab8:	20000ab0 20000ab0 20000ab8 20000ab8     ... ... ... ... 
20000ac8:	20000ac0 20000ac0 20000ac8 20000ac8     ... ... ... ... 
20000ad8:	20000ad0 20000ad0 20000ad8 20000ad8     ... ... ... ... 
20000ae8:	20000ae0 20000ae0 20000ae8 20000ae8     ... ... ... ... 
20000af8:	20000af0 20000af0 20000af8 20000af8     ... ... ... ... 
20000b08:	20000b00 20000b00 20000b08 20000b08     ... ... ... ... 
20000b18:	20000b10 20000b10 20000b18 20000b18     ... ... ... ... 
20000b28:	20000b20 20000b20 20000b28 20000b28      ..  .. (.. (.. 
20000b38:	20000b30 20000b30 20000b38 20000b38     0.. 0.. 8.. 8.. 
20000b48:	20000b40 20000b40 20000b48 20000b48     @.. @.. H.. H.. 
20000b58:	20000b50 20000b50 20000b58 20000b58     P.. P.. X.. X.. 
20000b68:	20000b60 20000b60 20000b68 20000b68     `.. `.. h.. h.. 
20000b78:	20000b70 20000b70 20000b78 20000b78     p.. p.. x.. x.. 
20000b88:	20000b80 20000b80 20000b88 20000b88     ... ... ... ... 
20000b98:	20000b90 20000b90 20000b98 20000b98     ... ... ... ... 
20000ba8:	20000ba0 20000ba0 20000ba8 20000ba8     ... ... ... ... 
20000bb8:	20000bb0 20000bb0 20000bb8 20000bb8     ... ... ... ... 
20000bc8:	20000bc0 20000bc0 20000bc8 20000bc8     ... ... ... ... 
20000bd8:	20000bd0 20000bd0 20000bd8 20000bd8     ... ... ... ... 
20000be8:	20000be0 20000be0 20000be8 20000be8     ... ... ... ... 
20000bf8:	20000bf0 20000bf0 20000bf8 20000bf8     ... ... ... ... 
20000c08:	20000c00 20000c00 20000c08 20000c08     ... ... ... ... 
20000c18:	20000c10 20000c10 20000c18 20000c18     ... ... ... ... 
20000c28:	20000c20 20000c20 20000c28 20000c28      ..  .. (.. (.. 
20000c38:	20000c30 20000c30 20000c38 20000c38     0.. 0.. 8.. 8.. 
20000c48:	20000c40 20000c40 20000c48 20000c48     @.. @.. H.. H.. 
20000c58:	20000c50 20000c50 20000c58 20000c58     P.. P.. X.. X.. 
20000c68:	20000c60 20000c60 20000c68 20000c68     `.. `.. h.. h.. 
20000c78:	20000c70 20000c70 20000c78 20000c78     p.. p.. x.. x.. 
20000c88:	20000c80 20000c80 20000c88 20000c88     ... ... ... ... 
20000c98:	20000c90 20000c90 20000c98 20000c98     ... ... ... ... 
20000ca8:	20000ca0 20000ca0 20000ca8 20000ca8     ... ... ... ... 
20000cb8:	20000cb0 20000cb0 20000cb8 20000cb8     ... ... ... ... 
20000cc8:	20000cc0 20000cc0 20000cc8 20000cc8     ... ... ... ... 
20000cd8:	20000cd0 20000cd0 20000cd8 20000cd8     ... ... ... ... 
20000ce8:	20000ce0 20000ce0 20000ce8 20000ce8     ... ... ... ... 
20000cf8:	20000cf0 20000cf0 20000cf8 20000cf8     ... ... ... ... 
20000d08:	20000d00 20000d00 20000d08 20000d08     ... ... ... ... 

20000d18 <print_mutex>:
	...

20000d20 <__mutex_array_end>:
20000d20:	10001ef5 	.word	0x10001ef5
20000d24:	10001c75 	.word	0x10001c75
20000d28:	10001d2d 	.word	0x10001d2d
20000d2c:	10001e39 	.word	0x10001e39

20000d30 <__frame_dummy_init_array_entry>:
20000d30:	10000339 10004505                       9....E..
